
f4e750bb-1437-4fbf-8785-8d3580c34994.elf:     file format elf64-littleaarch64
f4e750bb-1437-4fbf-8785-8d3580c34994.elf
architecture: aarch64, flags 0x00000150:
HAS_SYMS, DYNAMIC, D_PAGED
start address 0x00000000000004e0

Program Header:
    LOAD off    0x0000000000001000 vaddr 0x0000000000000000 paddr 0x0000000000000000 align 2**12
         filesz 0x0000000000012ec8 memsz 0x0000000000012ec8 flags r-x
    LOAD off    0x0000000000014000 vaddr 0x0000000000013000 paddr 0x0000000000013000 align 2**12
         filesz 0x000000000000058c memsz 0x000000000000c630 flags rw-
 DYNAMIC off    0x0000000000014000 vaddr 0x0000000000013000 paddr 0x0000000000013000 align 2**3
         filesz 0x0000000000000110 memsz 0x0000000000000110 flags rw-
   STACK off    0x0000000000000000 vaddr 0x0000000000000000 paddr 0x0000000000000000 align 2**4
         filesz 0x0000000000000000 memsz 0x0000000000000000 flags rw-

Dynamic Section:
  HASH                 0x0000000000012bb0
  GNU_HASH             0x0000000000012ac0
  STRTAB               0x0000000000012b80
  SYMTAB               0x0000000000012af0
  STRSZ                0x000000000000002e
  SYMENT               0x0000000000000018
  DEBUG                0x0000000000000000
  RELA                 0x0000000000012be0
  RELASZ               0x00000000000004f8
  RELAENT              0x0000000000000018
  FLAGS_1              0x0000000008000000
  RELACOUNT            0x000000000000001f
private flags = 0:

Sections:
Idx Name          Size      VMA               LMA               File off  Algn
  0 .ta_head      00000020  0000000000000000  0000000000000000  00001000  2**3
                  CONTENTS, ALLOC, LOAD, READONLY, DATA
  1 .text         0000e6fc  0000000000000020  0000000000000020  00001020  2**3
                  CONTENTS, ALLOC, LOAD, READONLY, CODE
  2 .eh_frame     00003054  000000000000e720  000000000000e720  0000f720  2**3
                  CONTENTS, ALLOC, LOAD, READONLY, DATA
  3 .rodata       00001346  0000000000011778  0000000000011778  00012778  2**3
                  CONTENTS, ALLOC, LOAD, READONLY, DATA
  4 .gnu.hash     00000030  0000000000012ac0  0000000000012ac0  00013ac0  2**3
                  CONTENTS, ALLOC, LOAD, READONLY, DATA
  5 .dynsym       00000090  0000000000012af0  0000000000012af0  00013af0  2**3
                  CONTENTS, ALLOC, LOAD, READONLY, DATA
  6 .dynstr       0000002e  0000000000012b80  0000000000012b80  00013b80  2**0
                  CONTENTS, ALLOC, LOAD, READONLY, DATA
  7 .hash         0000002c  0000000000012bb0  0000000000012bb0  00013bb0  2**3
                  CONTENTS, ALLOC, LOAD, READONLY, DATA
  8 .rela.dyn     000002e8  0000000000012be0  0000000000012be0  00013be0  2**3
                  CONTENTS, ALLOC, LOAD, READONLY, DATA
  9 .dynamic      00000110  0000000000013000  0000000000013000  00014000  2**3
                  CONTENTS, ALLOC, LOAD, DATA
 10 .got          000000d0  0000000000013110  0000000000013110  00014110  2**3
                  CONTENTS, ALLOC, LOAD, DATA
 11 .rela.got     00000210  00000000000131e0  00000000000131e0  000141e0  2**3
                  CONTENTS, ALLOC, LOAD, READONLY, DATA
 12 .data         0000019c  00000000000133f0  00000000000133f0  000143f0  2**3
                  CONTENTS, ALLOC, LOAD, DATA
 13 .bss          0000c0a0  0000000000013590  0000000000013590  0001458c  2**3
                  ALLOC
 14 .debug_info   0001d7d0  0000000000000000  0000000000000000  0001458c  2**0
                  CONTENTS, READONLY, DEBUGGING, OCTETS
 15 .debug_abbrev 00004690  0000000000000000  0000000000000000  00031d5c  2**0
                  CONTENTS, READONLY, DEBUGGING, OCTETS
 16 .debug_loc    00028f1b  0000000000000000  0000000000000000  000363ec  2**0
                  CONTENTS, READONLY, DEBUGGING, OCTETS
 17 .debug_aranges 000009b0  0000000000000000  0000000000000000  0005f310  2**4
                  CONTENTS, READONLY, DEBUGGING, OCTETS
 18 .debug_ranges 00001df0  0000000000000000  0000000000000000  0005fcc0  2**4
                  CONTENTS, READONLY, DEBUGGING, OCTETS
 19 .debug_macro  00019dd2  0000000000000000  0000000000000000  00061ab0  2**0
                  CONTENTS, READONLY, DEBUGGING, OCTETS
 20 .debug_line   00010017  0000000000000000  0000000000000000  0007b882  2**0
                  CONTENTS, READONLY, DEBUGGING, OCTETS
 21 .debug_str    0001b95f  0000000000000000  0000000000000000  0008b899  2**0
                  CONTENTS, READONLY, DEBUGGING, OCTETS
 22 .comment      0000002b  0000000000000000  0000000000000000  000a71f8  2**0
                  CONTENTS, READONLY
SYMBOL TABLE:
0000000000000000 l    d  .ta_head	0000000000000000 .ta_head
0000000000000020 l    d  .text	0000000000000000 .text
000000000000e720 l    d  .eh_frame	0000000000000000 .eh_frame
0000000000011778 l    d  .rodata	0000000000000000 .rodata
0000000000012ac0 l    d  .gnu.hash	0000000000000000 .gnu.hash
0000000000012af0 l    d  .dynsym	0000000000000000 .dynsym
0000000000012b80 l    d  .dynstr	0000000000000000 .dynstr
0000000000012bb0 l    d  .hash	0000000000000000 .hash
0000000000012be0 l    d  .rela.dyn	0000000000000000 .rela.dyn
0000000000013000 l    d  .dynamic	0000000000000000 .dynamic
0000000000013110 l    d  .got	0000000000000000 .got
00000000000131e0 l    d  .rela.got	0000000000000000 .rela.got
00000000000133f0 l    d  .data	0000000000000000 .data
0000000000013590 l    d  .bss	0000000000000000 .bss
0000000000000000 l    d  .debug_info	0000000000000000 .debug_info
0000000000000000 l    d  .debug_abbrev	0000000000000000 .debug_abbrev
0000000000000000 l    d  .debug_loc	0000000000000000 .debug_loc
0000000000000000 l    d  .debug_aranges	0000000000000000 .debug_aranges
0000000000000000 l    d  .debug_ranges	0000000000000000 .debug_ranges
0000000000000000 l    d  .debug_macro	0000000000000000 .debug_macro
0000000000000000 l    d  .debug_line	0000000000000000 .debug_line
0000000000000000 l    d  .debug_str	0000000000000000 .debug_str
0000000000000000 l    d  .comment	0000000000000000 .comment
0000000000000000 l    df *ABS*	0000000000000000 user_ta_header.c
0000000000011780 l     O .rodata	0000000000000001 __compound_literal.6
0000000000011784 l     O .rodata	0000000000000004 __compound_literal.5
0000000000011788 l     O .rodata	0000000000000004 __compound_literal.4
000000000001178c l     O .rodata	0000000000000004 __compound_literal.3
0000000000011790 l     O .rodata	0000000000000001 __compound_literal.2
0000000000011791 l     O .rodata	0000000000000001 __compound_literal.1
0000000000011792 l     O .rodata	0000000000000001 __compound_literal.0
0000000000000000 l    df *ABS*	0000000000000000 memcpy.c
0000000000000000 l    df *ABS*	0000000000000000 secure_storage_ta.c
0000000000011cd6 l     O .rodata	0000000000000012 __func__.4600
0000000000011ce8 l     O .rodata	0000000000000010 __func__.4614
0000000000011cf8 l     O .rodata	000000000000000e __func__.4587
0000000000011d06 l     O .rodata	0000000000000022 __func__.4640
0000000000000000 l    df *ABS*	0000000000000000 stack_check.c
0000000000000000 l    df *ABS*	0000000000000000 trace.c
0000000000011e56 l     O .rodata	0000000000000005 lvl_strs.3647
0000000000000000 l    df *ABS*	0000000000000000 snprintk.c
0000000000000a54 l     F .text	0000000000000be0 kprintf.constprop.0
000000000001185a l     O .rodata	0000000000000011 HEXDIGITS
000000000001186b l     O .rodata	0000000000000011 hexdigits
0000000000000000 l    df *ABS*	0000000000000000 memchr.c
0000000000000000 l    df *ABS*	0000000000000000 strlen.c
0000000000000000 l    df *ABS*	0000000000000000 trace_ext.c
0000000000000000 l    df *ABS*	0000000000000000 tee_api.c
00000000000018a8 l     F .text	000000000000006c copy_param
0000000000001914 l     F .text	0000000000000070 copy_gp11_param
0000000000001984 l     F .text	0000000000000094 check_mem_access_rights_params
0000000000001a18 l     F .text	0000000000000044 buf_overlaps_no_share_heap
0000000000001a5c l     F .text	00000000000000a8 check_invoke_param
0000000000001b04 l     F .text	00000000000000a8 update_out_param
0000000000001bac l     F .text	00000000000000ac update_out_gp11_param
0000000000001e28 l     F .text	000000000000019c map_tmp_param
0000000000013590 l     O .bss	0000000000000008 tee_api_instance_data
00000000000117b8 l     O .rodata	000000000000000b __func__.5460
0000000000000000 l    df *ABS*	0000000000000000 tee_api_objects.c
0000000000000000 l    df *ABS*	0000000000000000 tee_api_panic.c
0000000000004478 l     F .text	000000000000001c check_access
000000000000449c l     F .text	0000000000000010 check_res.isra.0
0000000000000000 l    df *ABS*	0000000000000000 tee_system_pta.c
0000000000004694 l     F .text	0000000000000088 invoke_system_pta
000000000001187c l     O .rodata	0000000000000010 uuid.4677
000000000001188c l     O .rodata	000000000000000a __func__.4697
0000000000011896 l     O .rodata	0000000000000017 __func__.4709
00000000000135a0 l     O .bss	0000000000000008 sess.4676
0000000000000000 l    df *ABS*	0000000000000000 user_ta_entry.c
00000000000049a4 l     F .text	00000000000000b0 _get_fn_array
0000000000004a54 l     F .text	0000000000000090 _fini_iterate_phdr_cb
0000000000004ae4 l     F .text	0000000000000028 ta_header_get_session
0000000000004b0c l     F .text	000000000000006c to_utee_params
0000000000004b78 l     F .text	000000000000005c from_utee_params
0000000000004bd4 l     F .text	0000000000000094 _init_iterate_phdr_cb
0000000000004dd0 l     F .text	0000000000000098 ta_header_remove_session
0000000000011f48 l     O .rodata	0000000000000016 __func__.5424
00000000000135a8 l     O .bss	0000000000000008 _num_mod_init
00000000000135b0 l     O .bss	0000000000000001 init_done
00000000000134d0 l     O .data	0000000000000010 ta_sessions
00000000000134e0 l     O .data	0000000000000010 __phdr_info_head
0000000000000000 l    df *ABS*	0000000000000000 user_ta_entry_compat.c
00000000000050f0 l     F .text	0000000000000064 to_gp11_param
0000000000005154 l     F .text	0000000000000064 from_gp11_param
0000000000000000 l    df *ABS*	0000000000000000 utee_syscalls_a64.o
0000000000000000 l    df *ABS*	0000000000000000 abort.c
0000000000000000 l    df *ABS*	0000000000000000 tee_api_arith_mpi.c
00000000000055f0 l     F .text	0000000000000030 api_panic
0000000000005620 l     F .text	0000000000000030 mpi_panic
0000000000005650 l     F .text	0000000000000098 get_mpi
00000000000056e8 l     F .text	0000000000000064 copy_mpi_to_bigint
000000000000574c l     F .text	000000000000014c bigint_binary
0000000000005898 l     F .text	0000000000000020 mpi_is_odd
00000000000058b8 l     F .text	0000000000000028 rng_read
00000000000058e0 l     F .text	0000000000000574 mpi_egcd
0000000000013618 l     O .bss	0000000000004000 data.5267
0000000000006380 l     F .text	00000000000001d0 bigint_binary_mod
000000000001202e l     O .rodata	0000000000000008 __func__.5301
0000000000012036 l     O .rodata	000000000000000e __func__.5439
0000000000012044 l     O .rodata	0000000000000009 __func__.5603
000000000001204d l     O .rodata	0000000000000012 __func__.5268
000000000001205f l     O .rodata	000000000000000f __func__.5307
000000000001206e l     O .rodata	000000000000001f __func__.5335
000000000001208d l     O .rodata	0000000000000019 __func__.5349
00000000000120a6 l     O .rodata	0000000000000012 __func__.5458
00000000000120b8 l     O .rodata	0000000000000015 __func__.5380
00000000000120cd l     O .rodata	000000000000000e __func__.5479
00000000000120db l     O .rodata	000000000000000e __func__.5508
00000000000120e9 l     O .rodata	000000000000000e __func__.5516
00000000000120f7 l     O .rodata	0000000000000011 __func__.5549
0000000000012108 l     O .rodata	0000000000000018 __func__.5562
0000000000012120 l     O .rodata	0000000000000011 __func__.5583
0000000000012131 l     O .rodata	000000000000001d __func__.5660
000000000001214e l     O .rodata	0000000000000019 __func__.5733
0000000000012167 l     O .rodata	0000000000000015 __func__.5748
0000000000000000 l    df *ABS*	0000000000000000 tee_api_property.c
000000000000771c l     F .text	000000000000006c propset_get
0000000000007788 l     F .text	000000000000002c is_propset_pseudo_handle
00000000000077b4 l     F .text	0000000000000148 propget_get_ext_prop
00000000000078fc l     F .text	00000000000001b0 propget_get_property
00000000000118c0 l     O .rodata	0000000000000004 __compound_literal.3
00000000000118c4 l     O .rodata	0000000000000004 __compound_literal.2
00000000000118c8 l     O .rodata	0000000000000004 __compound_literal.1
00000000000118cc l     O .rodata	0000000000000004 __compound_literal.0
0000000000000000 l    df *ABS*	0000000000000000 tcb.c
0000000000012289 l     O .rodata	0000000000000010 __func__.4134
0000000000012299 l     O .rodata	0000000000000010 __func__.4161
0000000000017618 l     O .bss	0000000000000008 _tls_size
0000000000017620 l     O .bss	0000000000000008 _tcb
0000000000000000 l    df *ABS*	0000000000000000 assert.c
0000000000000000 l    df *ABS*	0000000000000000 base64.c
00000000000118d4 l     O .rodata	0000000000000041 base64_table
0000000000000000 l    df *ABS*	0000000000000000 bignum.c
0000000000008c90 l     F .text	0000000000000064 mpi_get_digit
0000000000008cf4 l     F .text	000000000000040c mpi_mul_hlp
0000000000009100 l     F .text	0000000000000038 mpi_montg_init.isra.0
0000000000009138 l     F .text	00000000000000ac mpi_bigendian_to_host.part.0
00000000000091e4 l     F .text	00000000000000c0 mpi_fill_random_internal
00000000000092a4 l     F .text	0000000000000148 mpi_montmul.isra.0
00000000000093ec l     F .text	0000000000000078 mpi_montred
00000000000095f0 l     F .text	000000000000006c mbedtls_mpi_resize_clear
000000000000b328 l     F .text	00000000000000c4 mpi_check_small_factors
000000000000bd0c l     F .text	00000000000002a4 mpi_miller_rabin
0000000000011918 l     O .rodata	00000000000002a0 small_prime
0000000000011bb8 l     O .rodata	0000000000000024 gcd_pairs
0000000000000000 l    df *ABS*	0000000000000000 constant_time.c
000000000000ce20 l     F .text	0000000000000020 mbedtls_ct_uchar_mask_of_range
0000000000000000 l    df *ABS*	0000000000000000 platform_util.c
0000000000013550 l     O .data	0000000000000008 memset_func
0000000000000000 l    df *ABS*	0000000000000000 bget_malloc.c
000000000000d600 l     F .text	0000000000000010 _assert_trap
000000000000d610 l     F .text	0000000000000028 bget_buf_size.part.0
00000000000129b8 l     O .rodata	000000000000000e __func__.4016
00000000000129c6 l     O .rodata	0000000000000005 __func__.3942
00000000000129cb l     O .rodata	0000000000000006 __func__.3962
00000000000129d1 l     O .rodata	0000000000000005 __func__.3983
00000000000129d6 l     O .rodata	0000000000000006 __func__.3973
00000000000129dc l     O .rodata	0000000000000006 __func__.3992
00000000000129e2 l     O .rodata	0000000000000014 __func__.4202
00000000000129f6 l     O .rodata	0000000000000013 __func__.4066
0000000000013558 l     O .data	0000000000000030 malloc_ctx
0000000000000000 l    df *ABS*	0000000000000000 snprintf.c
0000000000000000 l    df *ABS*	0000000000000000 memmove.c
0000000000000000 l    df *ABS*	0000000000000000 memset.c
0000000000000000 l    df *ABS*	0000000000000000 strcmp.c
0000000000000000 l    df *ABS*	0000000000000000 strlcpy.c
0000000000000000 l    df *ABS*	0000000000000000 mempool.c
0000000000012a92 l     O .rodata	0000000000000013 __func__.3748
0000000000012aa5 l     O .rodata	000000000000000b __func__.3729
0000000000012ab0 l     O .rodata	000000000000000e __func__.3754
0000000000000000 l    df *ABS*	0000000000000000 consttime_memcmp.c
0000000000000000 l    df *ABS*	0000000000000000 
0000000000013000 l     O *ABS*	0000000000000000 _DYNAMIC
0000000000013128 l     O *ABS*	0000000000000000 _GLOBAL_OFFSET_TABLE_
0000000000001838 g     F .text	0000000000000070 putchar
0000000000005fd4 g     F .text	0000000000000008 __GP11_TEE_BigIntConvertFromOctetString
00000000000032b8 g     F .text	0000000000000144 TEE_PopulateTransientObject
0000000000007500 g     F .text	0000000000000004 TEE_BigIntConvertToFMM
0000000000006d74 g     F .text	000000000000000c TEE_BigIntSquareMod
0000000000006550 g     F .text	00000000000001a0 TEE_BigIntShiftRight
000000000000e02c g     F .text	00000000000000c8 raw_malloc_add_pool
0000000000004894 g     F .text	0000000000000110 tee_invoke_supp_plugin
0000000000009508 g     F .text	00000000000000e8 mbedtls_mpi_grow
0000000000008404 g     F .text	0000000000000128 __GP11_TEE_GetPropertyName
0000000000002870 g     F .text	00000000000000d8 TEE_Realloc
0000000000004674 g     F .text	0000000000000020 __utee_check_inout_annotation
000000000000de10 g     F .text	0000000000000010 raw_free
00000000000016f8 g     F .text	0000000000000100 printf
00000000000068ec g     F .text	000000000000002c TEE_BigIntAbs
0000000000003540 g     F .text	000000000000004c TEE_InitRefAttribute
000000000000533c g     F .text	000000000000000c _utee_log
0000000000002260 g     F .text	0000000000000184 TEE_InvokeTACommand
0000000000003628 g     F .text	000000000000004c __GP11_TEE_InitValueAttribute
00000000000044ac g     F .text	000000000000004c __utee_check_outbuf_annotation
0000000000009474 g     F .text	0000000000000028 mbedtls_mpi_init_mempool
00000000000054bc g     F .text	000000000000000c _utee_cryp_random_number_generate
0000000000009c70 g     F .text	00000000000000c4 mbedtls_mpi_write_binary
0000000000000930 g     F .text	0000000000000058 vsnprintk
000000000000a4ec g     F .text	0000000000000074 mbedtls_mpi_sub_int
000000000000e428 g     F .text	000000000000005c memmove
000000000000e300 g     F .text	00000000000000d0 snprintf
0000000000006304 g     F .text	000000000000007c TEE_BigIntCmpS32
0000000000002580 g     F .text	0000000000000008 __GP11_TEE_MemMove
00000000000134c8 g     O .data	0000000000000008 __stack_chk_guard
000000000000d364 g     F .text	000000000000027c mbedtls_ct_rsaes_pkcs1_v15_unpadding
00000000000035dc g     F .text	000000000000004c TEE_InitValueAttribute
000000000000965c g     F .text	0000000000000120 mbedtls_mpi_shrink
0000000000002598 g     F .text	0000000000000008 __GP11_TEE_MemFill
0000000000006918 g     F .text	000000000000000c TEE_BigIntAdd
000000000000545c g     F .text	000000000000000c _utee_cryp_obj_restrict_usage
000000000000358c g     F .text	0000000000000050 __GP11_TEE_InitRefAttribute
00000000000117a0 g     O .rodata	0000000000000008 ta_heap_size
0000000000003228 g     F .text	0000000000000090 TEE_ResetTransientObject
0000000000005504 g     F .text	000000000000000c _utee_asymm_operate
0000000000008a38 g     F .text	0000000000000018 _base64_enc_len
000000000000a7b4 g     F .text	000000000000020c mbedtls_mpi_read_string
000000000000390c g     F .text	000000000000010c __GP11_TEE_GenerateKey
0000000000006930 g     F .text	00000000000000e4 TEE_BigIntNeg
0000000000005558 g     F .text	000000000000000c _utee_storage_free_enum
0000000000000020 g       .text	0000000000000000 __text_start
00000000000085b4 g     F .text	00000000000000e0 TEE_GetNextProperty
0000000000003e7c g     F .text	0000000000000050 TEE_StartPersistentObjectEnumerator
0000000000009e44 g     F .text	00000000000000c0 mbedtls_mpi_shift_r
000000000000e2ec g     F .text	0000000000000014 malloc_buffer_overlaps_heap
0000000000005408 g     F .text	000000000000000c _utee_hash_init
0000000000006d5c g     F .text	000000000000000c TEE_BigIntSubMod
000000000000c6ac g     F .text	000000000000034c mbedtls_mpi_gen_prime
0000000000008134 g     F .text	0000000000000098 TEE_GetPropertyAsBinaryBlock
0000000000009938 g     F .text	000000000000002c mbedtls_mpi_get_bit
0000000000011798 g     O .rodata	0000000000000008 __ta_no_share_heap_size
0000000000009b34 g     F .text	0000000000000084 mbedtls_mpi_read_binary
000000000000078c g     F .text	00000000000000e0 trace_printf
000000000000b3f4 g     F .text	0000000000000008 mbedtls_mpi_montmul
00000000000055c4 g     F .text	000000000000000c _utee_cache_operation
0000000000000020 g     F .text	00000000000000ec memcpy
0000000000007504 g     F .text	00000000000000d0 TEE_BigIntConvertFromFMM
0000000000004494 g     F .text	0000000000000008 TEE_Panic
00000000000017f8 g     F .text	0000000000000040 puts
00000000000075d4 g     F .text	0000000000000148 TEE_BigIntComputeFMM
00000000000026bc g     F .text	0000000000000028 TEE_GetREETime
0000000000003d9c g     F .text	0000000000000090 TEE_AllocatePersistentObjectEnumerator
00000000000133f0 g     O .data	00000000000000d8 ta_props
0000000000002808 g     F .text	0000000000000008 __GP11_TEE_Malloc
0000000000002118 g     F .text	0000000000000148 __GP11_TEE_OpenTASession
0000000000004544 g     F .text	0000000000000030 __utee_check_instring_annotation
000000000000df58 g     F .text	0000000000000018 malloc
00000000000083f0 g     F .text	0000000000000004 TEE_FreePropertyEnumerator
000000000000ce98 g     F .text	0000000000000010 mbedtls_ct_mpi_uint_mask
0000000000003800 g     F .text	000000000000010c TEE_GenerateKey
000000000000e3d0 g     F .text	0000000000000058 vsnprintf
0000000000013588 g     O .data	0000000000000004 trace_level
0000000000003afc g     F .text	0000000000000008 __GP11_TEE_OpenPersistentObject
0000000000006270 g     F .text	0000000000000094 TEE_BigIntCmp
0000000000011778 g     O .rodata	0000000000000008 ta_num_props
000000000000dc0c g     F .text	00000000000000d0 bgetr
000000000000551c g     F .text	000000000000000c _utee_storage_obj_open
000000000000258c g     F .text	0000000000000008 __GP11_TEE_MemCompare
000000000000e698 g     F .text	0000000000000014 mempool_free
0000000000005414 g     F .text	000000000000000c _utee_hash_update
0000000000005fdc g     F .text	00000000000000c8 TEE_BigIntConvertToOctetString
0000000000009a44 g     F .text	000000000000005c mbedtls_mpi_bitlen
00000000000066f8 g     F .text	0000000000000080 TEE_BigIntGetBit
00000000000117a8 g     O .rodata	0000000000000003 trace_ext_prefix
000000000000557c g     F .text	000000000000000c _utee_storage_next_enum
000000000000de00 g     F .text	0000000000000010 raw_malloc
000000000000d900 g     F .text	0000000000000088 bgetz
000000000000cea8 g     F .text	0000000000000018 mbedtls_ct_size_bool_eq
0000000000002570 g     F .text	000000000000000c TEE_GetInstanceData
00000000000025c8 g     F .text	000000000000003c TEE_Wait
000000000000a560 g     F .text	00000000000001ac mbedtls_mpi_mul_mpi
00000000000066f0 g     F .text	0000000000000008 __GP11_TEE_BigIntShiftRight
0000000000002958 g     F .text	0000000000000008 TEE_CacheFlush
0000000000000570 g     F .text	000000000000021c trace_vprintf
0000000000000114 g     F .text	0000000000000004 TA_DestroyEntryPoint
0000000000009464 g     F .text	0000000000000010 mbedtls_mpi_init
0000000000005534 g     F .text	000000000000000c _utee_storage_obj_del
00000000000099f0 g     F .text	0000000000000054 mbedtls_mpi_lsb
00000000000089e0 g     F .text	0000000000000044 _assert_log
00000000000053f0 g     F .text	000000000000000c _utee_cryp_state_copy
00000000000074e0 g     F .text	0000000000000008 TEE_BigIntFMMContextSizeInU32
00000000000047cc g     F .text	00000000000000c8 tee_unmap
000000000000cedc g     F .text	0000000000000030 mbedtls_ct_uint_if
0000000000003d38 g     F .text	000000000000005c TEE_RenamePersistentObject
00000000000033fc g     F .text	0000000000000144 __GP11_TEE_PopulateTransientObject
0000000000005e54 g     F .text	0000000000000050 _TEE_MathAPI_Init
0000000000008694 g     F .text	0000000000000240 __utee_tcb_init
000000000000a364 g     F .text	0000000000000088 mbedtls_mpi_add_mpi
00000000000055d0 g     F .text	0000000000000020 abort
000000000000bfb0 g     F .text	00000000000001b8 mbedtls_mpi_random
0000000000000514 g     F .text	0000000000000030 __stack_chk_fail
000000000000460c g     F .text	0000000000000020 __utee_check_out_annotation
0000000000017630 g     O .bss	0000000000008000 ta_heap
0000000000006d80 g     F .text	0000000000000150 TEE_BigIntInvMod
0000000000004c68 g     F .text	0000000000000158 __utee_call_elf_init_fn
0000000000002ac4 g     F .text	00000000000000c4 __GP11_TEE_GetObjectInfo
0000000000000120 g     F .text	0000000000000004 TA_CloseSessionEntryPoint
0000000000000124 g     F .text	00000000000003bc __GP11_TA_InvokeCommandEntryPoint
0000000000005378 g     F .text	000000000000000c _utee_close_ta_session
00000000000074a8 g     F .text	0000000000000008 __GP11_TEE_BigIntInitFMMContext
0000000000002c38 g     F .text	00000000000000c0 __GP11_TEE_GetObjectInfo1
0000000000003a18 g     F .text	00000000000000e4 TEE_OpenPersistentObject
000000000000a3ec g     F .text	000000000000008c mbedtls_mpi_sub_mpi
000000000000e6ac g     F .text	0000000000000070 consttime_memcmp
0000000000005330 g     F .text	000000000000000c _utee_return
0000000000005348 g     F .text	000000000000000c __utee_panic
000000000000ce40 g     F .text	0000000000000048 mbedtls_ct_memcmp
00000000000088d4 g     F .text	000000000000001c __tls_get_addr
0000000000000508 g     F .text	000000000000000c TA_InvokeCommandEntryPoint
0000000000004dc0 g     F .text	0000000000000010 __utee_call_elf_fini_fn
000000000000dfe8 g     F .text	0000000000000010 free_wipe
000000000000e5e4 g     F .text	0000000000000064 mempool_alloc
0000000000005324 g     F .text	000000000000000c _utee_panic
000000000000e000 g     F .text	000000000000002c raw_malloc_init_ctx
000000000000e648 g     F .text	0000000000000050 mempool_calloc
00000000000055b8 g     F .text	000000000000000c _utee_cryp_obj_generate_key
00000000000055a0 g     F .text	000000000000000c _utee_storage_obj_trunc
000000000000376c g     F .text	0000000000000094 TEE_CopyObjectAttributes
00000000000134f0 g     O .data	0000000000000060 tee_props
00000000000053a8 g     F .text	000000000000000c _utee_unmask_cancellation
000000000000839c g     F .text	000000000000000c TEE_ResetPropertyEnumerator
000000000000df70 g     F .text	000000000000001c calloc
00000000000026e4 g     F .text	0000000000000124 TEE_Malloc
0000000000001da0 g     F .text	0000000000000088 TEE_CheckMemoryAccessRights
00000000000081cc g     F .text	00000000000000e8 TEE_GetPropertyAsUUID
0000000000005354 g     F .text	000000000000000c _utee_get_property
00000000000067ec g     F .text	00000000000000b0 TEE_BigIntSetBit
00000000000098d0 g     F .text	0000000000000068 mbedtls_mpi_lset
0000000000004114 g     F .text	00000000000000c8 TEE_ReadObjectData
0000000000002dcc g     F .text	0000000000000104 TEE_GetObjectBufferAttribute
00000000000004fc g     F .text	000000000000000c TA_OpenSessionEntryPoint
0000000000000118 g     F .text	0000000000000008 __GP11_TA_OpenSessionEntryPoint
00000000000088f0 g     F .text	00000000000000f0 dl_iterate_phdr
000000000001f630 g       .bss	0000000000000000 __ftrace_buf_end
00000000000135b8 g     O .bss	0000000000000004 ta_param_types
000000000000aef4 g     F .text	0000000000000074 mbedtls_mpi_div_int
0000000000002968 g     F .text	0000000000000050 __utee_from_attr
000000000000c5c0 g     F .text	00000000000000dc mbedtls_mpi_is_prime_ext
0000000000007414 g     F .text	0000000000000084 TEE_BigIntIsProbablePrime
000000000000a70c g     F .text	00000000000000a8 mbedtls_mpi_mul_int
0000000000003cc4 g     F .text	0000000000000048 TEE_CloseAndDeletePersistentObject1
000000000000b400 g     F .text	00000000000006cc mbedtls_mpi_exp_mod
000000000000d0b4 g     F .text	00000000000000bc mbedtls_mpi_safe_cond_assign
0000000000007aac g     F .text	000000000000025c TEE_GetPropertyAsString
000000000000d26c g     F .text	00000000000000f8 mbedtls_mpi_lt_mpi_ct
0000000000005ea4 g     F .text	0000000000000060 TEE_BigIntInit
00000000000060a4 g     F .text	0000000000000060 __GP11_TEE_BigIntConvertToOctetString
000000000000689c g     F .text	0000000000000050 TEE_BigIntAssign
0000000000004574 g     F .text	000000000000004c __utee_check_outstring_annotation
000000000000257c g     F .text	0000000000000004 TEE_MemMove
000000000000d5e0 g     F .text	0000000000000020 mbedtls_platform_zeroize
0000000000005f0c g     F .text	00000000000000c8 TEE_BigIntConvertFromOctetString
00000000000054f8 g     F .text	000000000000000c _utee_authenc_dec_final
0000000000009f04 g     F .text	000000000000009c mbedtls_mpi_cmp_abs
0000000000005588 g     F .text	000000000000000c _utee_storage_obj_read
0000000000001680 g     F .text	000000000000002c memchr
0000000000001ce0 g     F .text	0000000000000060 TEE_UnmaskCancellation
0000000000002a08 g     F .text	00000000000000bc TEE_GetObjectInfo
000000000000c9f8 g     F .text	0000000000000428 mbedtls_mpi_self_test
00000000000044f8 g     F .text	000000000000004c __utee_check_gp11_outbuf_annotation
00000000000055ac g     F .text	000000000000000c _utee_storage_obj_seek
0000000000003198 g     F .text	0000000000000090 TEE_FreeTransientObject
000000000000539c g     F .text	000000000000000c _utee_check_access_rights
00000000000023e4 g     F .text	0000000000000178 __GP11_TEE_InvokeTACommand
000000000000a074 g     F .text	0000000000000074 mbedtls_mpi_cmp_int
0000000000008b6c g     F .text	0000000000000124 _base64_dec
0000000000005564 g     F .text	000000000000000c _utee_storage_reset_enum
000000000000cff8 g     F .text	00000000000000bc mbedtls_ct_base64_dec_value
000000000000462c g     F .text	0000000000000024 __utee_check_attr_in_annotation
00000000000054e0 g     F .text	000000000000000c _utee_authenc_update_payload
0000000000006ce4 g     F .text	000000000000006c TEE_BigIntMod
000000000000b01c g     F .text	000000000000009c mbedtls_mpi_mod_int
0000000000009abc g     F .text	0000000000000078 mbedtls_mpi_read_binary_le
0000000000006b30 g     F .text	00000000000001b4 TEE_BigIntDiv
0000000000005474 g     F .text	000000000000000c _utee_cryp_obj_alloc
000000000001f630 g       .bss	0000000000000000 __ftrace_buf_start
000000000000e4c4 g     F .text	0000000000000058 strlcpy
000000000000cf48 g     F .text	00000000000000b0 mbedtls_ct_base64_enc_char
000000000000977c g     F .text	00000000000000cc mbedtls_mpi_copy
00000000000082b4 g     F .text	00000000000000e8 TEE_GetPropertyAsIdentity
0000000000001634 g     F .text	000000000000004c __vsprintf
0000000000007f60 g     F .text	00000000000000e8 TEE_GetPropertyAsU64
00000000000053d8 g     F .text	000000000000000c _utee_set_ta_time
0000000000005384 g     F .text	000000000000000c _utee_invoke_ta_command
0000000000002cf8 g     F .text	0000000000000044 TEE_RestrictObjectUsage1
000000000000df8c g     F .text	0000000000000018 realloc
0000000000009848 g     F .text	0000000000000088 mbedtls_mpi_swap
000000000000e51c g     F .text	00000000000000c8 mempool_alloc_pool
0000000000006a14 g     F .text	0000000000000114 TEE_BigIntMul
000000000000dff8 g     F .text	0000000000000008 raw_malloc_get_ctx_size
0000000000009d34 g     F .text	0000000000000110 mbedtls_mpi_shift_l
0000000000009fa0 g     F .text	00000000000000d4 mbedtls_mpi_cmp_mpi
0000000000002594 g     F .text	0000000000000004 TEE_MemFill
000000000000e2c4 g     F .text	0000000000000014 malloc_add_pool
0000000000000560 g     F .text	0000000000000010 trace_get_level
000000000000a0e8 g     F .text	0000000000000120 mbedtls_mpi_add_abs
0000000000002d3c g     F .text	0000000000000090 TEE_RestrictObjectUsage
00000000000074b8 g     F .text	0000000000000010 TEE_BigIntFMMSizeInU32
0000000000007da0 g     F .text	00000000000000d8 TEE_GetPropertyAsBool
000000000000de70 g     F .text	00000000000000e8 raw_realloc
0000000000007498 g     F .text	0000000000000004 TEE_BigIntInitFMM
00000000000030a0 g     F .text	0000000000000028 TEE_CloseObject
000000000000542c g     F .text	000000000000000c _utee_cipher_init
0000000000004e68 g     F .text	0000000000000288 __utee_entry
0000000000007e78 g     F .text	00000000000000e8 TEE_GetPropertyAsU32
000000000000e71c g       .text	0000000000000000 __text_end
0000000000006ed0 g     F .text	0000000000000108 TEE_BigIntRelativePrime
000000000000af68 g     F .text	00000000000000b4 mbedtls_mpi_mod_mpi
0000000000005450 g     F .text	000000000000000c _utee_cryp_obj_get_info
000000000000dcdc g     F .text	00000000000000d0 bpool
00000000000083a8 g     F .text	0000000000000048 TEE_AllocatePropertyEnumerator
00000000000053e4 g     F .text	000000000000000c _utee_cryp_state_alloc
0000000000001c80 g     F .text	0000000000000060 TEE_GetCancellationFlag
0000000000003c48 g     F .text	000000000000007c __GP11_TEE_CreatePersistentObject
000000000000bacc g     F .text	00000000000001d8 mbedtls_mpi_gcd
0000000000002678 g     F .text	0000000000000044 TEE_SetTAPersistentTime
0000000000009bb8 g     F .text	00000000000000b8 mbedtls_mpi_write_binary_le
000000000000e484 g     F .text	000000000000001c memset
000000000000ddac g     F .text	0000000000000054 raw_memalign
0000000000002604 g     F .text	0000000000000074 TEE_GetTAPersistentTime
000000000000086c g     F .text	0000000000000004 dhex_dump
0000000000003b04 g     F .text	0000000000000144 TEE_CreatePersistentObject
0000000000001d40 g     F .text	0000000000000060 TEE_MaskCancellation
00000000000042f4 g     F .text	000000000000005c TEE_TruncateObjectData
0000000000005468 g     F .text	000000000000000c _utee_cryp_obj_get_attr
0000000000002b88 g     F .text	00000000000000b0 TEE_GetObjectInfo1
0000000000005444 g     F .text	000000000000000c _utee_cipher_final
0000000000000544 g     F .text	000000000000001c trace_set_level
0000000000002f68 g     F .text	0000000000000138 TEE_GetObjectValueAttribute
000000000000cec0 g     F .text	000000000000001c mbedtls_ct_mpi_uint_lt
0000000000002ed0 g     F .text	0000000000000098 __GP11_TEE_GetObjectBufferAttribute
00000000000053fc g     F .text	000000000000000c _utee_cryp_state_free
000000000000e4a0 g     F .text	0000000000000024 strcmp
000000000000536c g     F .text	000000000000000c _utee_open_ta_session
00000000000061b4 g     F .text	00000000000000bc TEE_BigIntConvertToS32
0000000000006924 g     F .text	000000000000000c TEE_BigIntSub
0000000000004470 g     F .text	0000000000000008 __GP11_TEE_SeekObjectData
00000000000004f4 g     F .text	0000000000000008 tahead_get_trace_level
0000000000005570 g     F .text	000000000000000c _utee_storage_start_enum
0000000000004358 g     F .text	0000000000000118 TEE_SeekObjectData
000000000000471c g     F .text	00000000000000b0 tee_map_zi
0000000000004350 g     F .text	0000000000000008 __GP11_TEE_TruncateObjectData
000000000000b3fc g     F .text	0000000000000004 mbedtls_mpi_montred
000000000000dfa4 g     F .text	000000000000001c memalign
000000000000ce88 g     F .text	0000000000000010 mbedtls_ct_uint_mask
0000000000005f04 g     F .text	0000000000000008 __GP11_TEE_BigIntInit
0000000000006104 g     F .text	00000000000000b0 TEE_BigIntConvertFromS32
000000000000a478 g     F .text	0000000000000074 mbedtls_mpi_add_int
00000000000054ec g     F .text	000000000000000c _utee_authenc_enc_final
000000000000e2d8 g     F .text	0000000000000014 malloc_buffer_is_within_alloced
0000000000005480 g     F .text	000000000000000c _utee_cryp_obj_close
00000000000074a4 g     F .text	0000000000000004 TEE_BigIntInitFMMContext
00000000000053b4 g     F .text	000000000000000c _utee_mask_cancellation
00000000000135c0 g     O .bss	0000000000000008 __ta_no_share_malloc_ctx
0000000000005540 g     F .text	000000000000000c _utee_storage_obj_rename
0000000000003fe8 g     F .text	000000000000012c __GP11_TEE_GetNextPersistentObject
0000000000004274 g     F .text	0000000000000078 TEE_WriteObjectData
0000000000003e54 g     F .text	0000000000000028 TEE_ResetPersistentObjectEnumerator
000000000000255c g     F .text	0000000000000008 __GP11_TEE_CheckMemoryAccessRights
0000000000006b28 g     F .text	0000000000000008 TEE_BigIntSquare
0000000000005594 g     F .text	000000000000000c _utee_storage_obj_write
000000000000010c g     F .text	0000000000000008 TA_CreateEntryPoint
00000000000004e0 g     F .text	0000000000000014 __ta_entry
000000000001f630 g     O .bss	0000000000000000 __ta_no_share_heap
00000000000054d4 g     F .text	000000000000000c _utee_authenc_update_aad
000000000000b3ec g     F .text	0000000000000008 mbedtls_mpi_montg_init
0000000000000988 g     F .text	00000000000000cc snprintk
0000000000006778 g     F .text	0000000000000074 TEE_BigIntGetBitCount
00000000000054a4 g     F .text	000000000000000c _utee_cryp_obj_copy
0000000000006d68 g     F .text	000000000000000c TEE_BigIntMulMod
000000000000c168 g     F .text	0000000000000458 mbedtls_mpi_inv_mod
0000000000004650 g     F .text	0000000000000024 __utee_check_gp11_attr_in_annotation
00000000000135c8 g     O .bss	0000000000000040 ta_params
000000000000a9c0 g     F .text	0000000000000534 mbedtls_mpi_div_mpi
00000000000045c0 g     F .text	000000000000004c __utee_check_gp11_outstring_annotation
0000000000009aa0 g     F .text	000000000000001c mbedtls_mpi_size
000000000000d638 g     F .text	00000000000002c8 bget
00000000000041dc g     F .text	0000000000000098 __GP11_TEE_ReadObjectData
000000000000317c g     F .text	000000000000001c TEE_AllocateTransientObject
00000000000074e8 g     F .text	0000000000000018 __GP11_TEE_BigIntFMMContextSizeInU32
00000000000083f4 g     F .text	0000000000000010 TEE_StartPropertyEnumerator
00000000000053c0 g     F .text	000000000000000c _utee_wait
0000000000009964 g     F .text	000000000000008c mbedtls_mpi_set_bit
0000000000002810 g     F .text	0000000000000060 TEE_Free
000000000000c69c g     F .text	0000000000000010 mbedtls_mpi_is_prime
0000000000002960 g     F .text	0000000000000008 TEE_CacheInvalidate
0000000000008a24 g     F .text	0000000000000014 _assert_break
0000000000006d50 g     F .text	000000000000000c TEE_BigIntAddMod
000000000000cf0c g     F .text	000000000000003c mbedtls_ct_mpi_uint_cond_assign
000000000000749c g     F .text	0000000000000008 __GP11_TEE_BigIntInitFMM
00000000000053cc g     F .text	000000000000000c _utee_get_time
000000000000852c g     F .text	0000000000000088 TEE_GetPropertyName
0000000000002948 g     F .text	0000000000000008 __GP11_TEE_Realloc
0000000000005498 g     F .text	000000000000000c _utee_cryp_obj_populate
00000000000029b8 g     F .text	0000000000000050 __utee_from_gp11_attr
0000000000002588 g     F .text	0000000000000004 TEE_MemCompare
0000000000005438 g     F .text	000000000000000c _utee_cipher_update
0000000000000870 g     F .text	00000000000000c0 __vsnprintf
0000000000013608 g     O .bss	0000000000000010 __elf_phdr_info
0000000000003e2c g     F .text	0000000000000028 TEE_FreePersistentObjectEnumerator
0000000000001fc4 g     F .text	0000000000000154 TEE_OpenTASession
00000000000016c8 g     F .text	0000000000000028 trace_ext_puts
0000000000007d08 g     F .text	0000000000000098 __GP11_TEE_GetPropertyAsString
000000000000e174 g     F .text	0000000000000150 raw_malloc_buffer_is_within_alloced
00000000000016f0 g     F .text	0000000000000008 trace_ext_get_thread_id
000000000000e0f4 g     F .text	0000000000000080 raw_malloc_buffer_overlaps_heap
0000000000003d0c g     F .text	000000000000002c TEE_CloseAndDeletePersistentObject
00000000000054b0 g     F .text	000000000000000c _utee_cryp_derive_key
000000000000949c g     F .text	000000000000006c mbedtls_mpi_free
000000000000548c g     F .text	000000000000000c _utee_cryp_obj_reset
0000000000002950 g     F .text	0000000000000008 TEE_CacheClean
0000000000005360 g     F .text	000000000000000c _utee_get_property_name_to_index
000000000000de20 g     F .text	0000000000000050 raw_calloc
0000000000008a50 g     F .text	000000000000011c _base64_enc
000000000000d170 g     F .text	00000000000000fc mbedtls_mpi_safe_cond_swap
00000000000054c8 g     F .text	000000000000000c _utee_authenc_init
0000000000003674 g     F .text	00000000000000f8 TEE_CopyObjectAttributes1
0000000000003d94 g     F .text	0000000000000008 __GP11_TEE_RenamePersistentObject
00000000000016ac g     F .text	000000000000001c strlen
00000000000071ac g     F .text	0000000000000268 TEE_BigIntComputeExtendedGcd
000000000000554c g     F .text	000000000000000c _utee_storage_alloc_enum
0000000000006fd8 g     F .text	00000000000001d4 TEE_BigIntExpMod
00000000000025a0 g     F .text	0000000000000028 TEE_GetSystemTime
0000000000005510 g     F .text	000000000000000c _utee_asymm_verify
0000000000000000 g     O .ta_head	0000000000000020 ta_head
000000000000d988 g     F .text	0000000000000284 brel
0000000000005264 g     F .text	00000000000000c0 __ta_invoke_cmd
0000000000008048 g     F .text	00000000000000ec __GP11_TEE_GetPropertyAsBinaryBlock
000000000000a208 g     F .text	000000000000015c mbedtls_mpi_sub_abs
000000000000bca4 g     F .text	0000000000000068 mbedtls_mpi_fill_random
00000000000030c8 g     F .text	00000000000000b4 __GP11_TEE_AllocateTransientObject
00000000000051b8 g     F .text	00000000000000ac __ta_open_sess
0000000000002564 g     F .text	000000000000000c TEE_SetInstanceData
0000000000005390 g     F .text	000000000000000c _utee_get_cancellation_flag
000000000000b0b8 g     F .text	0000000000000270 mbedtls_mpi_write_string
000000000000dfc0 g     F .text	0000000000000018 aligned_alloc
0000000000003ecc g     F .text	000000000000011c TEE_GetNextPersistentObject
00000000000074b0 g     F .text	0000000000000008 TEE_BigIntInitFMMContext1
00000000000042ec g     F .text	0000000000000008 __GP11_TEE_WriteObjectData
0000000000001c58 g     F .text	0000000000000028 TEE_CloseTASession
0000000000005528 g     F .text	000000000000000c _utee_storage_obj_create
00000000000074c8 g     F .text	0000000000000018 __GP11_TEE_BigIntFMMSizeInU32
000000000000dfd8 g     F .text	0000000000000010 free
0000000000017628 g     O .bss	0000000000000008 mbedtls_mpi_mempool
0000000000005420 g     F .text	000000000000000c _utee_hash_final



Disassembly of section .text:

0000000000000020 <memcpy>:
memcpy():
/home/avees/Linux_for_Tegra/sources/tegra/optee-src/nv-optee/optee/optee_os/lib/libutils/isoc/newlib/memcpy.c:106
      20:	f1007c5f 	cmp	x2, #0x1f
      24:	54000629 	b.ls	e8 <memcpy+0xc8>  // b.plast
/home/avees/Linux_for_Tegra/sources/tegra/optee-src/nv-optee/optee/optee_os/lib/libutils/isoc/newlib/memcpy.c:106 (discriminator 1)
      28:	aa000025 	orr	x5, x1, x0
      2c:	f24008a5 	ands	x5, x5, #0x7
      30:	54000641 	b.ne	f8 <memcpy+0xd8>  // b.any
      34:	d1008048 	sub	x8, x2, #0x20
/home/avees/Linux_for_Tegra/sources/tegra/optee-src/nv-optee/optee/optee_os/lib/libutils/isoc/newlib/memcpy.c:108
      38:	aa0103e4 	mov	x4, x1
      3c:	927be908 	and	x8, x8, #0xffffffffffffffe0
/home/avees/Linux_for_Tegra/sources/tegra/optee-src/nv-optee/optee/optee_os/lib/libutils/isoc/newlib/memcpy.c:107
      40:	aa0003e3 	mov	x3, x0
      44:	91008108 	add	x8, x8, #0x20
      48:	8b080007 	add	x7, x0, x8
      4c:	d503201f 	nop
/home/avees/Linux_for_Tegra/sources/tegra/optee-src/nv-optee/optee/optee_os/lib/libutils/isoc/newlib/memcpy.c:112
      50:	f9400086 	ldr	x6, [x4]
      54:	f9000066 	str	x6, [x3]
/home/avees/Linux_for_Tegra/sources/tegra/optee-src/nv-optee/optee/optee_os/lib/libutils/isoc/newlib/memcpy.c:113
      58:	91008084 	add	x4, x4, #0x20
      5c:	91008063 	add	x3, x3, #0x20
      60:	f85e8086 	ldur	x6, [x4, #-24]
      64:	f81e8066 	stur	x6, [x3, #-24]
/home/avees/Linux_for_Tegra/sources/tegra/optee-src/nv-optee/optee/optee_os/lib/libutils/isoc/newlib/memcpy.c:114
      68:	f85f0086 	ldur	x6, [x4, #-16]
      6c:	f81f0066 	stur	x6, [x3, #-16]
/home/avees/Linux_for_Tegra/sources/tegra/optee-src/nv-optee/optee/optee_os/lib/libutils/isoc/newlib/memcpy.c:111
      70:	eb0300ff 	cmp	x7, x3
/home/avees/Linux_for_Tegra/sources/tegra/optee-src/nv-optee/optee/optee_os/lib/libutils/isoc/newlib/memcpy.c:115
      74:	f85f8086 	ldur	x6, [x4, #-8]
      78:	f81f8066 	stur	x6, [x3, #-8]
/home/avees/Linux_for_Tegra/sources/tegra/optee-src/nv-optee/optee/optee_os/lib/libutils/isoc/newlib/memcpy.c:111
      7c:	54fffea1 	b.ne	50 <memcpy+0x30>  // b.any
      80:	8b080021 	add	x1, x1, x8
/home/avees/Linux_for_Tegra/sources/tegra/optee-src/nv-optee/optee/optee_os/lib/libutils/isoc/newlib/memcpy.c:120
      84:	f27d045f 	tst	x2, #0x18
      88:	92401044 	and	x4, x2, #0x1f
      8c:	540003c0 	b.eq	104 <memcpy+0xe4>  // b.none
/home/avees/Linux_for_Tegra/sources/tegra/optee-src/nv-optee/optee/optee_os/lib/libutils/isoc/newlib/memcpy.c:121
      90:	f8656826 	ldr	x6, [x1, x5]
      94:	f8256866 	str	x6, [x3, x5]
/home/avees/Linux_for_Tegra/sources/tegra/optee-src/nv-optee/optee/optee_os/lib/libutils/isoc/newlib/memcpy.c:120
      98:	910020a5 	add	x5, x5, #0x8
      9c:	cb050086 	sub	x6, x4, x5
      a0:	f1001cdf 	cmp	x6, #0x7
      a4:	54ffff68 	b.hi	90 <memcpy+0x70>  // b.pmore
      a8:	d1002084 	sub	x4, x4, #0x8
      ac:	92400842 	and	x2, x2, #0x7
      b0:	927df084 	and	x4, x4, #0xfffffffffffffff8
/home/avees/Linux_for_Tegra/sources/tegra/optee-src/nv-optee/optee/optee_os/lib/libutils/isoc/newlib/memcpy.c:130
      b4:	d1000446 	sub	x6, x2, #0x1
      b8:	91002084 	add	x4, x4, #0x8
      bc:	8b040063 	add	x3, x3, x4
      c0:	8b040021 	add	x1, x1, x4
      c4:	b4000102 	cbz	x2, e4 <memcpy+0xc4>
/home/avees/Linux_for_Tegra/sources/tegra/optee-src/nv-optee/optee/optee_os/lib/libutils/isoc/newlib/memcpy.c:99
      c8:	d2800002 	mov	x2, #0x0                   	// #0
      cc:	d503201f 	nop
/home/avees/Linux_for_Tegra/sources/tegra/optee-src/nv-optee/optee/optee_os/lib/libutils/isoc/newlib/memcpy.c:131
      d0:	38626825 	ldrb	w5, [x1, x2]
/home/avees/Linux_for_Tegra/sources/tegra/optee-src/nv-optee/optee/optee_os/lib/libutils/isoc/newlib/memcpy.c:130
      d4:	eb0200df 	cmp	x6, x2
/home/avees/Linux_for_Tegra/sources/tegra/optee-src/nv-optee/optee/optee_os/lib/libutils/isoc/newlib/memcpy.c:131
      d8:	38226865 	strb	w5, [x3, x2]
/home/avees/Linux_for_Tegra/sources/tegra/optee-src/nv-optee/optee/optee_os/lib/libutils/isoc/newlib/memcpy.c:130
      dc:	91000442 	add	x2, x2, #0x1
      e0:	54ffff81 	b.ne	d0 <memcpy+0xb0>  // b.any
/home/avees/Linux_for_Tegra/sources/tegra/optee-src/nv-optee/optee/optee_os/lib/libutils/isoc/newlib/memcpy.c:135
      e4:	d65f03c0 	ret
/home/avees/Linux_for_Tegra/sources/tegra/optee-src/nv-optee/optee/optee_os/lib/libutils/isoc/newlib/memcpy.c:99
      e8:	aa0003e3 	mov	x3, x0
/home/avees/Linux_for_Tegra/sources/tegra/optee-src/nv-optee/optee/optee_os/lib/libutils/isoc/newlib/memcpy.c:130
      ec:	d1000446 	sub	x6, x2, #0x1
      f0:	b5fffec2 	cbnz	x2, c8 <memcpy+0xa8>
/home/avees/Linux_for_Tegra/sources/tegra/optee-src/nv-optee/optee/optee_os/lib/libutils/isoc/newlib/memcpy.c:135
      f4:	d65f03c0 	ret
/home/avees/Linux_for_Tegra/sources/tegra/optee-src/nv-optee/optee/optee_os/lib/libutils/isoc/newlib/memcpy.c:130
      f8:	d1000446 	sub	x6, x2, #0x1
/home/avees/Linux_for_Tegra/sources/tegra/optee-src/nv-optee/optee/optee_os/lib/libutils/isoc/newlib/memcpy.c:99
      fc:	aa0003e3 	mov	x3, x0
     100:	17fffff2 	b	c8 <memcpy+0xa8>
/home/avees/Linux_for_Tegra/sources/tegra/optee-src/nv-optee/optee/optee_os/lib/libutils/isoc/newlib/memcpy.c:120
     104:	aa0403e2 	mov	x2, x4
     108:	17fffff9 	b	ec <memcpy+0xcc>

000000000000010c <TA_CreateEntryPoint>:
TA_CreateEntryPoint():
/home/avees/cp4ad-optee/secure_storage/ta/secure_storage_ta.c:234
     10c:	52800000 	mov	w0, #0x0                   	// #0
     110:	d65f03c0 	ret

0000000000000114 <TA_DestroyEntryPoint>:
TA_DestroyEntryPoint():
/home/avees/cp4ad-optee/secure_storage/ta/secure_storage_ta.c:239
     114:	d65f03c0 	ret

0000000000000118 <__GP11_TA_OpenSessionEntryPoint>:
__GP11_TA_OpenSessionEntryPoint():
/home/avees/cp4ad-optee/secure_storage/ta/secure_storage_ta.c:247
     118:	52800000 	mov	w0, #0x0                   	// #0
     11c:	d65f03c0 	ret

0000000000000120 <TA_CloseSessionEntryPoint>:
TA_CloseSessionEntryPoint():
/home/avees/cp4ad-optee/secure_storage/ta/secure_storage_ta.c:252
     120:	d65f03c0 	ret

0000000000000124 <__GP11_TA_InvokeCommandEntryPoint>:
__GP11_TA_InvokeCommandEntryPoint():
/home/avees/cp4ad-optee/secure_storage/ta/secure_storage_ta.c:258
     124:	a9b87bfd 	stp	x29, x30, [sp, #-128]!
     128:	f0000080 	adrp	x0, 13000 <_DYNAMIC>
/home/avees/cp4ad-optee/secure_storage/ta/secure_storage_ta.c:259
     12c:	7100043f 	cmp	w1, #0x1
/home/avees/cp4ad-optee/secure_storage/ta/secure_storage_ta.c:258
     130:	910003fd 	mov	x29, sp
     134:	f9409800 	ldr	x0, [x0, #304]
     138:	a90153f3 	stp	x19, x20, [sp, #16]
     13c:	2a0203f3 	mov	w19, w2
     140:	f9400002 	ldr	x2, [x0]
     144:	f9003fe2 	str	x2, [sp, #120]
     148:	d2800002 	mov	x2, #0x0                   	// #0
     14c:	a9025bf5 	stp	x21, x22, [sp, #32]
     150:	2a0103f4 	mov	w20, w1
     154:	a90363f7 	stp	x23, x24, [sp, #48]
     158:	aa0303f5 	mov	x21, x3
/home/avees/cp4ad-optee/secure_storage/ta/secure_storage_ta.c:259
     15c:	54000560 	b.eq	208 <__GP11_TA_InvokeCommandEntryPoint+0xe4>  // b.none
     160:	7100083f 	cmp	w1, #0x2
     164:	54001540 	b.eq	40c <__GP11_TA_InvokeCommandEntryPoint+0x2e8>  // b.none
     168:	35001981 	cbnz	w1, 498 <__GP11_TA_InvokeCommandEntryPoint+0x374>
read_raw_object():
/home/avees/cp4ad-optee/secure_storage/ta/secure_storage_ta.c:164
     16c:	7101967f 	cmp	w19, #0x65
     170:	54001901 	b.ne	490 <__GP11_TA_InvokeCommandEntryPoint+0x36c>  // b.any
/home/avees/cp4ad-optee/secure_storage/ta/secure_storage_ta.c:167
     174:	b9400873 	ldr	w19, [x3, #8]
/home/avees/cp4ad-optee/secure_storage/ta/secure_storage_ta.c:168
     178:	2a1303e0 	mov	w0, w19
     17c:	940009a3 	bl	2808 <__GP11_TEE_Malloc>
     180:	aa0003f6 	mov	x22, x0
/home/avees/cp4ad-optee/secure_storage/ta/secure_storage_ta.c:169
     184:	b4000520 	cbz	x0, 228 <__GP11_TA_InvokeCommandEntryPoint+0x104>
/home/avees/cp4ad-optee/secure_storage/ta/secure_storage_ta.c:172
     188:	aa1503f7 	mov	x23, x21
     18c:	2a1303e2 	mov	w2, w19
     190:	f84106e1 	ldr	x1, [x23], #16
     194:	940008fb 	bl	2580 <__GP11_TEE_MemMove>
/home/avees/cp4ad-optee/secure_storage/ta/secure_storage_ta.c:174
     198:	b9400af8 	ldr	w24, [x23, #8]
/home/avees/cp4ad-optee/secure_storage/ta/secure_storage_ta.c:175
     19c:	52800001 	mov	w1, #0x0                   	// #0
     1a0:	2a1803e0 	mov	w0, w24
     1a4:	94000999 	bl	2808 <__GP11_TEE_Malloc>
     1a8:	aa0003f4 	mov	x20, x0
/home/avees/cp4ad-optee/secure_storage/ta/secure_storage_ta.c:176
     1ac:	b40003e0 	cbz	x0, 228 <__GP11_TA_InvokeCommandEntryPoint+0x104>
/home/avees/cp4ad-optee/secure_storage/ta/secure_storage_ta.c:183
     1b0:	2a1303e2 	mov	w2, w19
     1b4:	910143e4 	add	x4, sp, #0x50
     1b8:	aa1603e1 	mov	x1, x22
     1bc:	52800223 	mov	w3, #0x11                  	// #17
     1c0:	52800020 	mov	w0, #0x1                   	// #1
     1c4:	94000e4e 	bl	3afc <__GP11_TEE_OpenPersistentObject>
     1c8:	2a0003f3 	mov	w19, w0
/home/avees/cp4ad-optee/secure_storage/ta/secure_storage_ta.c:188
     1cc:	34000b60 	cbz	w0, 338 <__GP11_TA_InvokeCommandEntryPoint+0x214>
/home/avees/cp4ad-optee/secure_storage/ta/secure_storage_ta.c:189
     1d0:	2a0003e5 	mov	w5, w0
     1d4:	b0000080 	adrp	x0, 11000 <__text_end+0x28e4>
     1d8:	91335800 	add	x0, x0, #0xcd6
     1dc:	b0000084 	adrp	x4, 11000 <__text_end+0x28e4>
     1e0:	91004800 	add	x0, x0, #0x12
     1e4:	91309c84 	add	x4, x4, #0xc27
     1e8:	52800023 	mov	w3, #0x1                   	// #1
     1ec:	52800022 	mov	w2, #0x1                   	// #1
     1f0:	528017a1 	mov	w1, #0xbd                  	// #189
     1f4:	94000166 	bl	78c <trace_printf>
/home/avees/cp4ad-optee/secure_storage/ta/secure_storage_ta.c:225
     1f8:	aa1603e0 	mov	x0, x22
     1fc:	94000985 	bl	2810 <TEE_Free>
delete_object():
/home/avees/cp4ad-optee/secure_storage/ta/secure_storage_ta.c:73
     200:	aa1403e0 	mov	x0, x20
     204:	1400002f 	b	2c0 <__GP11_TA_InvokeCommandEntryPoint+0x19c>
create_raw_object():
/home/avees/cp4ad-optee/secure_storage/ta/secure_storage_ta.c:96
     208:	7101567f 	cmp	w19, #0x55
     20c:	54001421 	b.ne	490 <__GP11_TA_InvokeCommandEntryPoint+0x36c>  // b.any
/home/avees/cp4ad-optee/secure_storage/ta/secure_storage_ta.c:99
     210:	b9400873 	ldr	w19, [x3, #8]
/home/avees/cp4ad-optee/secure_storage/ta/secure_storage_ta.c:100
     214:	52800001 	mov	w1, #0x0                   	// #0
     218:	2a1303e0 	mov	w0, w19
     21c:	9400097b 	bl	2808 <__GP11_TEE_Malloc>
     220:	aa0003f7 	mov	x23, x0
/home/avees/cp4ad-optee/secure_storage/ta/secure_storage_ta.c:101
     224:	b5000060 	cbnz	x0, 230 <__GP11_TA_InvokeCommandEntryPoint+0x10c>
delete_object():
/home/avees/cp4ad-optee/secure_storage/ta/secure_storage_ta.c:54
     228:	129ffe73 	mov	w19, #0xffff000c            	// #-65524
__GP11_TA_InvokeCommandEntryPoint():
/home/avees/cp4ad-optee/secure_storage/ta/secure_storage_ta.c:265
     22c:	14000026 	b	2c4 <__GP11_TA_InvokeCommandEntryPoint+0x1a0>
create_raw_object():
/home/avees/cp4ad-optee/secure_storage/ta/secure_storage_ta.c:104
     230:	aa1503f6 	mov	x22, x21
     234:	2a1303e2 	mov	w2, w19
     238:	f84106c1 	ldr	x1, [x22], #16
     23c:	940008d1 	bl	2580 <__GP11_TEE_MemMove>
/home/avees/cp4ad-optee/secure_storage/ta/secure_storage_ta.c:106
     240:	b9400ad8 	ldr	w24, [x22, #8]
/home/avees/cp4ad-optee/secure_storage/ta/secure_storage_ta.c:107
     244:	52800001 	mov	w1, #0x0                   	// #0
     248:	2a1803e0 	mov	w0, w24
     24c:	9400096f 	bl	2808 <__GP11_TEE_Malloc>
     250:	aa0003f6 	mov	x22, x0
/home/avees/cp4ad-optee/secure_storage/ta/secure_storage_ta.c:108
     254:	b4fffea0 	cbz	x0, 228 <__GP11_TA_InvokeCommandEntryPoint+0x104>
/home/avees/cp4ad-optee/secure_storage/ta/secure_storage_ta.c:110
     258:	f9400aa1 	ldr	x1, [x21, #16]
     25c:	2a1803e2 	mov	w2, w24
     260:	940008c8 	bl	2580 <__GP11_TEE_MemMove>
/home/avees/cp4ad-optee/secure_storage/ta/secure_storage_ta.c:120
     264:	2a1303e2 	mov	w2, w19
     268:	910163e7 	add	x7, sp, #0x58
     26c:	aa1703e1 	mov	x1, x23
     270:	2a1403e0 	mov	w0, w20
     274:	52800006 	mov	w6, #0x0                   	// #0
     278:	d2800005 	mov	x5, #0x0                   	// #0
     27c:	d2800004 	mov	x4, #0x0                   	// #0
     280:	528080e3 	mov	w3, #0x407                 	// #1031
     284:	94000e71 	bl	3c48 <__GP11_TEE_CreatePersistentObject>
     288:	2a0003f3 	mov	w19, w0
/home/avees/cp4ad-optee/secure_storage/ta/secure_storage_ta.c:126
     28c:	340002c0 	cbz	w0, 2e4 <__GP11_TA_InvokeCommandEntryPoint+0x1c0>
/home/avees/cp4ad-optee/secure_storage/ta/secure_storage_ta.c:127
     290:	2a0003e5 	mov	w5, w0
     294:	b0000084 	adrp	x4, 11000 <__text_end+0x28e4>
     298:	b0000080 	adrp	x0, 11000 <__text_end+0x28e4>
     29c:	912f7084 	add	x4, x4, #0xbdc
     2a0:	2a1403e3 	mov	w3, w20
     2a4:	2a1403e2 	mov	w2, w20
     2a8:	91335800 	add	x0, x0, #0xcd6
     2ac:	52800fe1 	mov	w1, #0x7f                  	// #127
     2b0:	94000137 	bl	78c <trace_printf>
/home/avees/cp4ad-optee/secure_storage/ta/secure_storage_ta.c:140
     2b4:	aa1703e0 	mov	x0, x23
     2b8:	94000956 	bl	2810 <TEE_Free>
/home/avees/cp4ad-optee/secure_storage/ta/secure_storage_ta.c:141
     2bc:	aa1603e0 	mov	x0, x22
delete_object():
/home/avees/cp4ad-optee/secure_storage/ta/secure_storage_ta.c:73
     2c0:	94000954 	bl	2810 <TEE_Free>
__GP11_TA_InvokeCommandEntryPoint():
/home/avees/cp4ad-optee/secure_storage/ta/secure_storage_ta.c:270
     2c4:	f0000080 	adrp	x0, 13000 <_DYNAMIC>
     2c8:	f9409800 	ldr	x0, [x0, #304]
     2cc:	f9403fe1 	ldr	x1, [sp, #120]
     2d0:	f9400002 	ldr	x2, [x0]
     2d4:	eb020021 	subs	x1, x1, x2
     2d8:	d2800002 	mov	x2, #0x0                   	// #0
     2dc:	54000f60 	b.eq	4c8 <__GP11_TA_InvokeCommandEntryPoint+0x3a4>  // b.none
     2e0:	9400008d 	bl	514 <__stack_chk_fail>
create_raw_object():
/home/avees/cp4ad-optee/secure_storage/ta/secure_storage_ta.c:133
     2e4:	f9402fe0 	ldr	x0, [sp, #88]
     2e8:	2a1803e2 	mov	w2, w24
     2ec:	aa1603e1 	mov	x1, x22
     2f0:	94000fff 	bl	42ec <__GP11_TEE_WriteObjectData>
     2f4:	2a0003f3 	mov	w19, w0
/home/avees/cp4ad-optee/secure_storage/ta/secure_storage_ta.c:134
     2f8:	340001a0 	cbz	w0, 32c <__GP11_TA_InvokeCommandEntryPoint+0x208>
/home/avees/cp4ad-optee/secure_storage/ta/secure_storage_ta.c:135
     2fc:	2a0003e5 	mov	w5, w0
     300:	2a1403e3 	mov	w3, w20
     304:	2a1403e2 	mov	w2, w20
     308:	528010e1 	mov	w1, #0x87                  	// #135
     30c:	b0000084 	adrp	x4, 11000 <__text_end+0x28e4>
     310:	b0000080 	adrp	x0, 11000 <__text_end+0x28e4>
     314:	91301484 	add	x4, x4, #0xc05
     318:	91335800 	add	x0, x0, #0xcd6
     31c:	9400011c 	bl	78c <trace_printf>
/home/avees/cp4ad-optee/secure_storage/ta/secure_storage_ta.c:136
     320:	f9402fe0 	ldr	x0, [sp, #88]
     324:	94000e68 	bl	3cc4 <TEE_CloseAndDeletePersistentObject1>
     328:	17ffffe3 	b	2b4 <__GP11_TA_InvokeCommandEntryPoint+0x190>
/home/avees/cp4ad-optee/secure_storage/ta/secure_storage_ta.c:138
     32c:	f9402fe0 	ldr	x0, [sp, #88]
     330:	94000b5c 	bl	30a0 <TEE_CloseObject>
     334:	17ffffe0 	b	2b4 <__GP11_TA_InvokeCommandEntryPoint+0x190>
read_raw_object():
/home/avees/cp4ad-optee/secure_storage/ta/secure_storage_ta.c:195
     338:	f9402be0 	ldr	x0, [sp, #80]
     33c:	910163e1 	add	x1, sp, #0x58
     340:	94000a3e 	bl	2c38 <__GP11_TEE_GetObjectInfo1>
     344:	2a0003f3 	mov	w19, w0
/home/avees/cp4ad-optee/secure_storage/ta/secure_storage_ta.c:196
     348:	340001c0 	cbz	w0, 380 <__GP11_TA_InvokeCommandEntryPoint+0x25c>
/home/avees/cp4ad-optee/secure_storage/ta/secure_storage_ta.c:197
     34c:	2a0003e5 	mov	w5, w0
     350:	b0000080 	adrp	x0, 11000 <__text_end+0x28e4>
     354:	91335800 	add	x0, x0, #0xcd6
     358:	b0000084 	adrp	x4, 11000 <__text_end+0x28e4>
     35c:	91004800 	add	x0, x0, #0x12
     360:	91315084 	add	x4, x4, #0xc54
     364:	52800023 	mov	w3, #0x1                   	// #1
     368:	52800022 	mov	w2, #0x1                   	// #1
     36c:	528018a1 	mov	w1, #0xc5                  	// #197
     370:	94000107 	bl	78c <trace_printf>
/home/avees/cp4ad-optee/secure_storage/ta/secure_storage_ta.c:224
     374:	f9402be0 	ldr	x0, [sp, #80]
     378:	94000b4a 	bl	30a0 <TEE_CloseObject>
     37c:	17ffff9f 	b	1f8 <__GP11_TA_InvokeCommandEntryPoint+0xd4>
/home/avees/cp4ad-optee/secure_storage/ta/secure_storage_ta.c:201
     380:	b9406be2 	ldr	w2, [sp, #104]
     384:	6b02031f 	cmp	w24, w2
     388:	54000082 	b.cs	398 <__GP11_TA_InvokeCommandEntryPoint+0x274>  // b.hs, b.nlast
/home/avees/cp4ad-optee/secure_storage/ta/secure_storage_ta.c:207
     38c:	129ffdf3 	mov	w19, #0xffff0010            	// #-65520
/home/avees/cp4ad-optee/secure_storage/ta/secure_storage_ta.c:206
     390:	b9000ae2 	str	w2, [x23, #8]
/home/avees/cp4ad-optee/secure_storage/ta/secure_storage_ta.c:208
     394:	17fffff8 	b	374 <__GP11_TA_InvokeCommandEntryPoint+0x250>
/home/avees/cp4ad-optee/secure_storage/ta/secure_storage_ta.c:211
     398:	f9402be0 	ldr	x0, [sp, #80]
     39c:	910133e3 	add	x3, sp, #0x4c
     3a0:	aa1403e1 	mov	x1, x20
     3a4:	94000f8e 	bl	41dc <__GP11_TEE_ReadObjectData>
     3a8:	2a0003f3 	mov	w19, w0
/home/avees/cp4ad-optee/secure_storage/ta/secure_storage_ta.c:213
     3ac:	340001c0 	cbz	w0, 3e4 <__GP11_TA_InvokeCommandEntryPoint+0x2c0>
/home/avees/cp4ad-optee/secure_storage/ta/secure_storage_ta.c:216
     3b0:	b9404fe6 	ldr	w6, [sp, #76]
     3b4:	b0000080 	adrp	x0, 11000 <__text_end+0x28e4>
     3b8:	b9406be7 	ldr	w7, [sp, #104]
     3bc:	91335800 	add	x0, x0, #0xcd6
     3c0:	2a1303e5 	mov	w5, w19
     3c4:	91004800 	add	x0, x0, #0x12
     3c8:	b0000084 	adrp	x4, 11000 <__text_end+0x28e4>
     3cc:	52800023 	mov	w3, #0x1                   	// #1
     3d0:	91320c84 	add	x4, x4, #0xc83
     3d4:	52800022 	mov	w2, #0x1                   	// #1
     3d8:	52801b01 	mov	w1, #0xd8                  	// #216
     3dc:	940000ec 	bl	78c <trace_printf>
/home/avees/cp4ad-optee/secure_storage/ta/secure_storage_ta.c:218
     3e0:	17ffffe5 	b	374 <__GP11_TA_InvokeCommandEntryPoint+0x250>
/home/avees/cp4ad-optee/secure_storage/ta/secure_storage_ta.c:214
     3e4:	b9404fe2 	ldr	w2, [sp, #76]
     3e8:	aa1403e1 	mov	x1, x20
     3ec:	f9400aa0 	ldr	x0, [x21, #16]
     3f0:	94000864 	bl	2580 <__GP11_TEE_MemMove>
/home/avees/cp4ad-optee/secure_storage/ta/secure_storage_ta.c:215
     3f4:	b9404fe1 	ldr	w1, [sp, #76]
     3f8:	b9406be0 	ldr	w0, [sp, #104]
     3fc:	6b01001f 	cmp	w0, w1
     400:	54fffd81 	b.ne	3b0 <__GP11_TA_InvokeCommandEntryPoint+0x28c>  // b.any
/home/avees/cp4ad-optee/secure_storage/ta/secure_storage_ta.c:222
     404:	b9000ae0 	str	w0, [x23, #8]
     408:	17ffffdb 	b	374 <__GP11_TA_InvokeCommandEntryPoint+0x250>
delete_object():
/home/avees/cp4ad-optee/secure_storage/ta/secure_storage_ta.c:48
     40c:	7100167f 	cmp	w19, #0x5
     410:	54000401 	b.ne	490 <__GP11_TA_InvokeCommandEntryPoint+0x36c>  // b.any
/home/avees/cp4ad-optee/secure_storage/ta/secure_storage_ta.c:51
     414:	b9400876 	ldr	w22, [x3, #8]
/home/avees/cp4ad-optee/secure_storage/ta/secure_storage_ta.c:52
     418:	52800001 	mov	w1, #0x0                   	// #0
     41c:	2a1603e0 	mov	w0, w22
     420:	940008fa 	bl	2808 <__GP11_TEE_Malloc>
     424:	aa0003f4 	mov	x20, x0
/home/avees/cp4ad-optee/secure_storage/ta/secure_storage_ta.c:53
     428:	b4fff000 	cbz	x0, 228 <__GP11_TA_InvokeCommandEntryPoint+0x104>
/home/avees/cp4ad-optee/secure_storage/ta/secure_storage_ta.c:56
     42c:	f94002a1 	ldr	x1, [x21]
     430:	2a1603e2 	mov	w2, w22
     434:	94000853 	bl	2580 <__GP11_TEE_MemMove>
/home/avees/cp4ad-optee/secure_storage/ta/secure_storage_ta.c:61
     438:	2a1303e3 	mov	w3, w19
     43c:	910163e4 	add	x4, sp, #0x58
     440:	2a1603e2 	mov	w2, w22
     444:	aa1403e1 	mov	x1, x20
     448:	52800020 	mov	w0, #0x1                   	// #1
     44c:	94000dac 	bl	3afc <__GP11_TEE_OpenPersistentObject>
     450:	2a0003f3 	mov	w19, w0
/home/avees/cp4ad-optee/secure_storage/ta/secure_storage_ta.c:66
     454:	34000180 	cbz	w0, 484 <__GP11_TA_InvokeCommandEntryPoint+0x360>
/home/avees/cp4ad-optee/secure_storage/ta/secure_storage_ta.c:67
     458:	2a0003e5 	mov	w5, w0
     45c:	b0000080 	adrp	x0, 11000 <__text_end+0x28e4>
     460:	91335800 	add	x0, x0, #0xcd6
     464:	b0000084 	adrp	x4, 11000 <__text_end+0x28e4>
     468:	91008800 	add	x0, x0, #0x22
     46c:	91309c84 	add	x4, x4, #0xc27
     470:	52800023 	mov	w3, #0x1                   	// #1
     474:	52800022 	mov	w2, #0x1                   	// #1
     478:	52800861 	mov	w1, #0x43                  	// #67
     47c:	940000c4 	bl	78c <trace_printf>
/home/avees/cp4ad-optee/secure_storage/ta/secure_storage_ta.c:68
     480:	17ffff60 	b	200 <__GP11_TA_InvokeCommandEntryPoint+0xdc>
/home/avees/cp4ad-optee/secure_storage/ta/secure_storage_ta.c:72
     484:	f9402fe0 	ldr	x0, [sp, #88]
     488:	94000e0f 	bl	3cc4 <TEE_CloseAndDeletePersistentObject1>
     48c:	17ffff5d 	b	200 <__GP11_TA_InvokeCommandEntryPoint+0xdc>
/home/avees/cp4ad-optee/secure_storage/ta/secure_storage_ta.c:49
     490:	129fff33 	mov	w19, #0xffff0006            	// #-65530
     494:	17ffff8c 	b	2c4 <__GP11_TA_InvokeCommandEntryPoint+0x1a0>
__GP11_TA_InvokeCommandEntryPoint():
/home/avees/cp4ad-optee/secure_storage/ta/secure_storage_ta.c:267
     498:	b0000080 	adrp	x0, 11000 <__text_end+0x28e4>
     49c:	91335800 	add	x0, x0, #0xcd6
     4a0:	2a0103e5 	mov	w5, w1
     4a4:	9100c000 	add	x0, x0, #0x30
     4a8:	b0000084 	adrp	x4, 11000 <__text_end+0x28e4>
     4ac:	52800023 	mov	w3, #0x1                   	// #1
     4b0:	9132d484 	add	x4, x4, #0xcb5
     4b4:	52800022 	mov	w2, #0x1                   	// #1
     4b8:	52802161 	mov	w1, #0x10b                 	// #267
/home/avees/cp4ad-optee/secure_storage/ta/secure_storage_ta.c:268
     4bc:	129ffeb3 	mov	w19, #0xffff000a            	// #-65526
/home/avees/cp4ad-optee/secure_storage/ta/secure_storage_ta.c:267
     4c0:	940000b3 	bl	78c <trace_printf>
/home/avees/cp4ad-optee/secure_storage/ta/secure_storage_ta.c:268
     4c4:	17ffff80 	b	2c4 <__GP11_TA_InvokeCommandEntryPoint+0x1a0>
/home/avees/cp4ad-optee/secure_storage/ta/secure_storage_ta.c:270
     4c8:	2a1303e0 	mov	w0, w19
     4cc:	a94153f3 	ldp	x19, x20, [sp, #16]
     4d0:	a9425bf5 	ldp	x21, x22, [sp, #32]
     4d4:	a94363f7 	ldp	x23, x24, [sp, #48]
     4d8:	a8c87bfd 	ldp	x29, x30, [sp], #128
     4dc:	d65f03c0 	ret

00000000000004e0 <__ta_entry>:
__ta_entry():
/home/avees/Linux_for_Tegra/sources/tegra/optee-src/nv-optee/optee/build/t234/export-ta_arm64/src/user_ta_header.c:51
     4e0:	a9bf7bfd 	stp	x29, x30, [sp, #-16]!
     4e4:	910003fd 	mov	x29, sp
/home/avees/Linux_for_Tegra/sources/tegra/optee-src/nv-optee/optee/build/t234/export-ta_arm64/src/user_ta_header.c:70
     4e8:	94001260 	bl	4e68 <__utee_entry>
/home/avees/Linux_for_Tegra/sources/tegra/optee-src/nv-optee/optee/build/t234/export-ta_arm64/src/user_ta_header.c:81
     4ec:	2a0003e0 	mov	w0, w0
     4f0:	94001390 	bl	5330 <_utee_return>

00000000000004f4 <tahead_get_trace_level>:
tahead_get_trace_level():
/home/avees/Linux_for_Tegra/sources/tegra/optee-src/nv-optee/optee/build/t234/export-ta_arm64/src/user_ta_header.c:193
     4f4:	52800040 	mov	w0, #0x2                   	// #2
     4f8:	d65f03c0 	ret

00000000000004fc <TA_OpenSessionEntryPoint>:
TA_OpenSessionEntryPoint():
/home/avees/Linux_for_Tegra/sources/tegra/optee-src/nv-optee/optee/build/t234/export-ta_arm64/src/user_ta_header.c:203
     4fc:	f0000083 	adrp	x3, 13000 <_DYNAMIC>
     500:	f940cc63 	ldr	x3, [x3, #408]
     504:	1400132d 	b	51b8 <__ta_open_sess>

0000000000000508 <TA_InvokeCommandEntryPoint>:
TA_InvokeCommandEntryPoint():
/home/avees/Linux_for_Tegra/sources/tegra/optee-src/nv-optee/optee/build/t234/export-ta_arm64/src/user_ta_header.c:211
     508:	f0000084 	adrp	x4, 13000 <_DYNAMIC>
     50c:	f940c084 	ldr	x4, [x4, #384]
     510:	14001355 	b	5264 <__ta_invoke_cmd>

0000000000000514 <__stack_chk_fail>:
__stack_chk_fail():
/home/avees/Linux_for_Tegra/sources/tegra/optee-src/nv-optee/optee/optee_os/lib/libutils/isoc/stack_check.c:24
     514:	a9bf7bfd 	stp	x29, x30, [sp, #-16]!
/home/avees/Linux_for_Tegra/sources/tegra/optee-src/nv-optee/optee/optee_os/lib/libutils/isoc/stack_check.c:25
     518:	b0000084 	adrp	x4, 11000 <__text_end+0x28e4>
     51c:	52800023 	mov	w3, #0x1                   	// #1
/home/avees/Linux_for_Tegra/sources/tegra/optee-src/nv-optee/optee/optee_os/lib/libutils/isoc/stack_check.c:24
     520:	910003fd 	mov	x29, sp
/home/avees/Linux_for_Tegra/sources/tegra/optee-src/nv-optee/optee/optee_os/lib/libutils/isoc/stack_check.c:25
     524:	91389084 	add	x4, x4, #0xe24
     528:	52800022 	mov	w2, #0x1                   	// #1
     52c:	52800001 	mov	w1, #0x0                   	// #0
     530:	d2800000 	mov	x0, #0x0                   	// #0
     534:	94000096 	bl	78c <trace_printf>
/home/avees/Linux_for_Tegra/sources/tegra/optee-src/nv-optee/optee/optee_os/lib/libutils/isoc/stack_check.c:27 (discriminator 1)
     538:	1299fe00 	mov	w0, #0xffff300f            	// #-53233
     53c:	9400137a 	bl	5324 <_utee_panic>
/home/avees/Linux_for_Tegra/sources/tegra/optee-src/nv-optee/optee/optee_os/lib/libutils/isoc/stack_check.c:26 (discriminator 1)
     540:	17fffffe 	b	538 <__stack_chk_fail+0x24>

0000000000000544 <trace_set_level>:
trace_set_level():
/home/avees/Linux_for_Tegra/sources/tegra/optee-src/nv-optee/optee/optee_os/lib/libutils/ext/trace.c:28
     544:	7100141f 	cmp	w0, #0x5
     548:	52800081 	mov	w1, #0x4                   	// #4
     54c:	1a813000 	csel	w0, w0, w1, cc  // cc = lo, ul, last
     550:	f0000081 	adrp	x1, 13000 <_DYNAMIC>
     554:	f940a821 	ldr	x1, [x1, #336]
     558:	b9000020 	str	w0, [x1]
/home/avees/Linux_for_Tegra/sources/tegra/optee-src/nv-optee/optee/optee_os/lib/libutils/ext/trace.c:29
     55c:	d65f03c0 	ret

0000000000000560 <trace_get_level>:
trace_get_level():
/home/avees/Linux_for_Tegra/sources/tegra/optee-src/nv-optee/optee/optee_os/lib/libutils/ext/trace.c:33
     560:	f0000080 	adrp	x0, 13000 <_DYNAMIC>
/home/avees/Linux_for_Tegra/sources/tegra/optee-src/nv-optee/optee/optee_os/lib/libutils/ext/trace.c:34
     564:	f940a800 	ldr	x0, [x0, #336]
     568:	b9400000 	ldr	w0, [x0]
     56c:	d65f03c0 	ret

0000000000000570 <trace_vprintf>:
trace_vprintf():
/home/avees/Linux_for_Tegra/sources/tegra/optee-src/nv-optee/optee/optee_os/lib/libutils/ext/trace.c:113
     570:	a9a77bfd 	stp	x29, x30, [sp, #-400]!
     574:	910003fd 	mov	x29, sp
     578:	a9046bf9 	stp	x25, x26, [sp, #64]
     57c:	2a0103f9 	mov	w25, w1
     580:	f0000081 	adrp	x1, 13000 <_DYNAMIC>
     584:	a9025bf5 	stp	x21, x22, [sp, #32]
     588:	aa0003f6 	mov	x22, x0
     58c:	aa0103f5 	mov	x21, x1
     590:	f9409820 	ldr	x0, [x1, #304]
     594:	a90153f3 	stp	x19, x20, [sp, #16]
     598:	2a0203f3 	mov	w19, w2
     59c:	f9400002 	ldr	x2, [x0]
     5a0:	f900c7e2 	str	x2, [sp, #392]
     5a4:	d2800002 	mov	x2, #0x0                   	// #0
     5a8:	a90363f7 	stp	x23, x24, [sp, #48]
     5ac:	aa0403f7 	mov	x23, x4
     5b0:	a90573fb 	stp	x27, x28, [sp, #80]
     5b4:	aa0503f8 	mov	x24, x5
/home/avees/Linux_for_Tegra/sources/tegra/optee-src/nv-optee/optee/optee_os/lib/libutils/ext/trace.c:118
     5b8:	72001c7b 	ands	w27, w3, #0xff
     5bc:	54000b20 	b.eq	720 <trace_vprintf+0x1b0>  // b.none
/home/avees/Linux_for_Tegra/sources/tegra/optee-src/nv-optee/optee/optee_os/lib/libutils/ext/trace.c:118 (discriminator 1)
     5c0:	f940a820 	ldr	x0, [x1, #336]
     5c4:	b9400000 	ldr	w0, [x0]
     5c8:	6b13001f 	cmp	w0, w19
     5cc:	540009cb 	b.lt	704 <trace_vprintf+0x194>  // b.tstop
trace_level_to_string():
/home/avees/Linux_for_Tegra/sources/tegra/optee-src/nv-optee/optee/optee_os/lib/libutils/ext/trace.c:51
     5d0:	7100127f 	cmp	w19, #0x4
/home/avees/Linux_for_Tegra/sources/tegra/optee-src/nv-optee/optee/optee_os/lib/libutils/ext/trace.c:54
     5d4:	b0000080 	adrp	x0, 11000 <__text_end+0x28e4>
/home/avees/Linux_for_Tegra/sources/tegra/optee-src/nv-optee/optee/optee_os/lib/libutils/ext/trace.c:51
     5d8:	1a9f9261 	csel	w1, w19, wzr, ls  // ls = plast
/home/avees/Linux_for_Tegra/sources/tegra/optee-src/nv-optee/optee/optee_os/lib/libutils/ext/trace.c:54
     5dc:	91395800 	add	x0, x0, #0xe56
     5e0:	3861c803 	ldrb	w3, [x0, w1, sxtw]
trace_vprintf():
/home/avees/Linux_for_Tegra/sources/tegra/optee-src/nv-optee/optee/optee_os/lib/libutils/ext/trace.c:122
     5e4:	910223f4 	add	x20, sp, #0x88
     5e8:	b0000082 	adrp	x2, 11000 <__text_end+0x28e4>
     5ec:	aa1403e0 	mov	x0, x20
     5f0:	9138f042 	add	x2, x2, #0xe3c
     5f4:	d2802001 	mov	x1, #0x100                 	// #256
     5f8:	940000e4 	bl	988 <snprintk>
/home/avees/Linux_for_Tegra/sources/tegra/optee-src/nv-optee/optee/optee_os/lib/libutils/ext/trace.c:124
     5fc:	37f80840 	tbnz	w0, #31, 704 <trace_vprintf+0x194>
/home/avees/Linux_for_Tegra/sources/tegra/optee-src/nv-optee/optee/optee_os/lib/libutils/ext/trace.c:129
     600:	f940b2a3 	ldr	x3, [x21, #352]
     604:	d280201c 	mov	x28, #0x100                 	// #256
/home/avees/Linux_for_Tegra/sources/tegra/optee-src/nv-optee/optee/optee_os/lib/libutils/ext/trace.c:126
     608:	93407c1a 	sxtw	x26, w0
/home/avees/Linux_for_Tegra/sources/tegra/optee-src/nv-optee/optee/optee_os/lib/libutils/ext/trace.c:129
     60c:	cb20c381 	sub	x1, x28, w0, sxtw
     610:	b0000082 	adrp	x2, 11000 <__text_end+0x28e4>
     614:	8b20c280 	add	x0, x20, w0, sxtw
     618:	91390042 	add	x2, x2, #0xe40
     61c:	940000db 	bl	988 <snprintk>
/home/avees/Linux_for_Tegra/sources/tegra/optee-src/nv-optee/optee/optee_os/lib/libutils/ext/trace.c:131
     620:	37f80720 	tbnz	w0, #31, 704 <trace_vprintf+0x194>
/home/avees/Linux_for_Tegra/sources/tegra/optee-src/nv-optee/optee/optee_os/lib/libutils/ext/trace.c:133
     624:	8b20c35a 	add	x26, x26, w0, sxtw
/home/avees/Linux_for_Tegra/sources/tegra/optee-src/nv-optee/optee/optee_os/lib/libutils/ext/trace.c:135
     628:	3400093b 	cbz	w27, 74c <trace_vprintf+0x1dc>
/home/avees/Linux_for_Tegra/sources/tegra/optee-src/nv-optee/optee/optee_os/lib/libutils/ext/trace.c:135 (discriminator 1)
     62c:	52800342 	mov	w2, #0x1a                  	// #26
     630:	1ad32453 	lsr	w19, w2, w19
     634:	360008d3 	tbz	w19, #0, 74c <trace_vprintf+0x1dc>
print_thread_id():
/home/avees/Linux_for_Tegra/sources/tegra/optee-src/nv-optee/optee/optee_os/lib/libutils/ext/trace.c:66
     638:	9400042e 	bl	16f0 <trace_ext_get_thread_id>
trace_vprintf():
/home/avees/Linux_for_Tegra/sources/tegra/optee-src/nv-optee/optee/optee_os/lib/libutils/ext/trace.c:137
     63c:	8b1a029b 	add	x27, x20, x26
     640:	cb1a039c 	sub	x28, x28, x26
print_thread_id():
/home/avees/Linux_for_Tegra/sources/tegra/optee-src/nv-optee/optee/optee_os/lib/libutils/ext/trace.c:66
     644:	2a0003e4 	mov	w4, w0
/home/avees/Linux_for_Tegra/sources/tegra/optee-src/nv-optee/optee/optee_os/lib/libutils/ext/trace.c:68
     648:	37f80700 	tbnz	w0, #31, 728 <trace_vprintf+0x1b8>
/home/avees/Linux_for_Tegra/sources/tegra/optee-src/nv-optee/optee/optee_os/lib/libutils/ext/trace.c:69
     64c:	b0000082 	adrp	x2, 11000 <__text_end+0x28e4>
     650:	aa1c03e1 	mov	x1, x28
     654:	91391042 	add	x2, x2, #0xe44
     658:	aa1b03e0 	mov	x0, x27
     65c:	52800043 	mov	w3, #0x2                   	// #2
     660:	940000ca 	bl	988 <snprintk>
trace_vprintf():
/home/avees/Linux_for_Tegra/sources/tegra/optee-src/nv-optee/optee/optee_os/lib/libutils/ext/trace.c:144
     664:	37f80500 	tbnz	w0, #31, 704 <trace_vprintf+0x194>
/home/avees/Linux_for_Tegra/sources/tegra/optee-src/nv-optee/optee/optee_os/lib/libutils/ext/trace.c:146
     668:	8b20c353 	add	x19, x26, w0, sxtw
/home/avees/Linux_for_Tegra/sources/tegra/optee-src/nv-optee/optee/optee_os/lib/libutils/ext/trace.c:148
     66c:	b4000176 	cbz	x22, 698 <trace_vprintf+0x128>
/home/avees/Linux_for_Tegra/sources/tegra/optee-src/nv-optee/optee/optee_os/lib/libutils/ext/trace.c:149
     670:	b0000082 	adrp	x2, 11000 <__text_end+0x28e4>
     674:	d2802001 	mov	x1, #0x100                 	// #256
     678:	2a1903e4 	mov	w4, w25
     67c:	aa1603e3 	mov	x3, x22
     680:	91393c42 	add	x2, x2, #0xe4f
     684:	cb130021 	sub	x1, x1, x19
     688:	8b130280 	add	x0, x20, x19
     68c:	940000bf 	bl	988 <snprintk>
/home/avees/Linux_for_Tegra/sources/tegra/optee-src/nv-optee/optee/optee_os/lib/libutils/ext/trace.c:151
     690:	37f803a0 	tbnz	w0, #31, 704 <trace_vprintf+0x194>
/home/avees/Linux_for_Tegra/sources/tegra/optee-src/nv-optee/optee/optee_os/lib/libutils/ext/trace.c:153
     694:	8b20c273 	add	x19, x19, w0, sxtw
/home/avees/Linux_for_Tegra/sources/tegra/optee-src/nv-optee/optee/optee_os/lib/libutils/ext/trace.c:163
     698:	910183e3 	add	x3, sp, #0x60
     69c:	aa1803e1 	mov	x1, x24
     6a0:	aa0303e0 	mov	x0, x3
     6a4:	d2800402 	mov	x2, #0x20                  	// #32
     6a8:	97fffe5e 	bl	20 <memcpy>
     6ac:	aa0003e3 	mov	x3, x0
     6b0:	aa1703e2 	mov	x2, x23
     6b4:	8b130280 	add	x0, x20, x19
     6b8:	d2802001 	mov	x1, #0x100                 	// #256
     6bc:	cb130021 	sub	x1, x1, x19
     6c0:	9400009c 	bl	930 <vsnprintk>
/home/avees/Linux_for_Tegra/sources/tegra/optee-src/nv-optee/optee/optee_os/lib/libutils/ext/trace.c:164
     6c4:	7100001f 	cmp	w0, #0x0
     6c8:	5400004d 	b.le	6d0 <trace_vprintf+0x160>
/home/avees/Linux_for_Tegra/sources/tegra/optee-src/nv-optee/optee/optee_os/lib/libutils/ext/trace.c:165
     6cc:	8b20c273 	add	x19, x19, w0, sxtw
/home/avees/Linux_for_Tegra/sources/tegra/optee-src/nv-optee/optee/optee_os/lib/libutils/ext/trace.c:167
     6d0:	f103fa7f 	cmp	x19, #0xfe
     6d4:	d2801fc0 	mov	x0, #0xfe                  	// #254
     6d8:	9a809273 	csel	x19, x19, x0, ls  // ls = plast
/home/avees/Linux_for_Tegra/sources/tegra/optee-src/nv-optee/optee/optee_os/lib/libutils/ext/trace.c:170
     6dc:	52800140 	mov	w0, #0xa                   	// #10
     6e0:	38336a80 	strb	w0, [x20, x19]
/home/avees/Linux_for_Tegra/sources/tegra/optee-src/nv-optee/optee/optee_os/lib/libutils/ext/trace.c:171
     6e4:	b4000093 	cbz	x19, 6f4 <trace_vprintf+0x184>
/home/avees/Linux_for_Tegra/sources/tegra/optee-src/nv-optee/optee/optee_os/lib/libutils/ext/trace.c:171 (discriminator 1)
     6e8:	38736a80 	ldrb	w0, [x20, x19]
     6ec:	7100281f 	cmp	w0, #0xa
     6f0:	540003c0 	b.eq	768 <trace_vprintf+0x1f8>  // b.none
/home/avees/Linux_for_Tegra/sources/tegra/optee-src/nv-optee/optee/optee_os/lib/libutils/ext/trace.c:174
     6f4:	91022be0 	add	x0, sp, #0x8a
     6f8:	3833681f 	strb	wzr, [x0, x19]
/home/avees/Linux_for_Tegra/sources/tegra/optee-src/nv-optee/optee/optee_os/lib/libutils/ext/trace.c:176
     6fc:	aa1403e0 	mov	x0, x20
     700:	940003f2 	bl	16c8 <trace_ext_puts>
/home/avees/Linux_for_Tegra/sources/tegra/optee-src/nv-optee/optee/optee_os/lib/libutils/ext/trace.c:177
     704:	f9409ab5 	ldr	x21, [x21, #304]
     708:	f940c7e0 	ldr	x0, [sp, #392]
     70c:	f94002a1 	ldr	x1, [x21]
     710:	eb010000 	subs	x0, x0, x1
     714:	d2800001 	mov	x1, #0x0                   	// #0
     718:	540002c0 	b.eq	770 <trace_vprintf+0x200>  // b.none
     71c:	97ffff7e 	bl	514 <__stack_chk_fail>
trace_level_to_string():
/home/avees/Linux_for_Tegra/sources/tegra/optee-src/nv-optee/optee/optee_os/lib/libutils/ext/trace.c:49
     720:	528009a3 	mov	w3, #0x4d                  	// #77
     724:	17ffffb0 	b	5e4 <trace_vprintf+0x74>
print_thread_id():
/home/avees/Linux_for_Tegra/sources/tegra/optee-src/nv-optee/optee/optee_os/lib/libutils/ext/trace.c:71
     728:	aa1c03e1 	mov	x1, x28
     72c:	aa1b03e0 	mov	x0, x27
     730:	d0000084 	adrp	x4, 12000 <__func__.5424+0xb8>
     734:	52800043 	mov	w3, #0x2                   	// #2
     738:	911c9484 	add	x4, x4, #0x725
     73c:	b0000082 	adrp	x2, 11000 <__text_end+0x28e4>
     740:	91392842 	add	x2, x2, #0xe4a
     744:	94000091 	bl	988 <snprintk>
     748:	17ffffc7 	b	664 <trace_vprintf+0xf4>
trace_vprintf():
/home/avees/Linux_for_Tegra/sources/tegra/optee-src/nv-optee/optee/optee_os/lib/libutils/ext/trace.c:157
     74c:	f103fb5f 	cmp	x26, #0xfe
     750:	54fffda8 	b.hi	704 <trace_vprintf+0x194>  // b.pmore
/home/avees/Linux_for_Tegra/sources/tegra/optee-src/nv-optee/optee/optee_os/lib/libutils/ext/trace.c:159
     754:	91000753 	add	x19, x26, #0x1
     758:	52800400 	mov	w0, #0x20                  	// #32
     75c:	383a6a80 	strb	w0, [x20, x26]
/home/avees/Linux_for_Tegra/sources/tegra/optee-src/nv-optee/optee/optee_os/lib/libutils/ext/trace.c:160
     760:	38336a9f 	strb	wzr, [x20, x19]
     764:	17ffffcd 	b	698 <trace_vprintf+0x128>
/home/avees/Linux_for_Tegra/sources/tegra/optee-src/nv-optee/optee/optee_os/lib/libutils/ext/trace.c:172
     768:	d1000673 	sub	x19, x19, #0x1
     76c:	17ffffde 	b	6e4 <trace_vprintf+0x174>
/home/avees/Linux_for_Tegra/sources/tegra/optee-src/nv-optee/optee/optee_os/lib/libutils/ext/trace.c:177
     770:	a94153f3 	ldp	x19, x20, [sp, #16]
     774:	a9425bf5 	ldp	x21, x22, [sp, #32]
     778:	a94363f7 	ldp	x23, x24, [sp, #48]
     77c:	a9446bf9 	ldp	x25, x26, [sp, #64]
     780:	a94573fb 	ldp	x27, x28, [sp, #80]
     784:	a8d97bfd 	ldp	x29, x30, [sp], #400
     788:	d65f03c0 	ret

000000000000078c <trace_printf>:
trace_printf():
/home/avees/Linux_for_Tegra/sources/tegra/optee-src/nv-optee/optee/optee_os/lib/libutils/ext/trace.c:104
     78c:	a9ad7bfd 	stp	x29, x30, [sp, #-304]!
     790:	910003fd 	mov	x29, sp
     794:	a90153f3 	stp	x19, x20, [sp, #16]
     798:	f0000093 	adrp	x19, 13000 <_DYNAMIC>
     79c:	aa0003f4 	mov	x20, x0
     7a0:	f9409a73 	ldr	x19, [x19, #304]
     7a4:	3d8027e0 	str	q0, [sp, #144]
     7a8:	3d802be1 	str	q1, [sp, #160]
     7ac:	3d802fe2 	str	q2, [sp, #176]
     7b0:	3d8033e3 	str	q3, [sp, #192]
     7b4:	3d8037e4 	str	q4, [sp, #208]
     7b8:	3d803be5 	str	q5, [sp, #224]
     7bc:	3d803fe6 	str	q6, [sp, #240]
     7c0:	3d8043e7 	str	q7, [sp, #256]
     7c4:	a9119be5 	stp	x5, x6, [sp, #280]
/home/avees/Linux_for_Tegra/sources/tegra/optee-src/nv-optee/optee/optee_os/lib/libutils/ext/trace.c:108
     7c8:	910103e5 	add	x5, sp, #0x40
/home/avees/Linux_for_Tegra/sources/tegra/optee-src/nv-optee/optee/optee_os/lib/libutils/ext/trace.c:104
     7cc:	f90097e7 	str	x7, [sp, #296]
     7d0:	a9025bf5 	stp	x21, x22, [sp, #32]
     7d4:	2a0103f5 	mov	w21, w1
     7d8:	f9400260 	ldr	x0, [x19]
     7dc:	f90047e0 	str	x0, [sp, #136]
     7e0:	d2800000 	mov	x0, #0x0                   	// #0
/home/avees/Linux_for_Tegra/sources/tegra/optee-src/nv-optee/optee/optee_os/lib/libutils/ext/trace.c:107
     7e4:	9104c3e0 	add	x0, sp, #0x130
     7e8:	a90683e0 	stp	x0, x0, [sp, #104]
     7ec:	910443e0 	add	x0, sp, #0x110
     7f0:	f9003fe0 	str	x0, [sp, #120]
     7f4:	128002e0 	mov	w0, #0xffffffe8            	// #-24
     7f8:	b90083e0 	str	w0, [sp, #128]
     7fc:	12800fe0 	mov	w0, #0xffffff80            	// #-128
/home/avees/Linux_for_Tegra/sources/tegra/optee-src/nv-optee/optee/optee_os/lib/libutils/ext/trace.c:104
     800:	2a0203f6 	mov	w22, w2
/home/avees/Linux_for_Tegra/sources/tegra/optee-src/nv-optee/optee/optee_os/lib/libutils/ext/trace.c:108
     804:	9101a3e1 	add	x1, sp, #0x68
     808:	d2800402 	mov	x2, #0x20                  	// #32
/home/avees/Linux_for_Tegra/sources/tegra/optee-src/nv-optee/optee/optee_os/lib/libutils/ext/trace.c:104
     80c:	a90363f7 	stp	x23, x24, [sp, #48]
     810:	12001c78 	and	w24, w3, #0xff
     814:	aa0403f7 	mov	x23, x4
/home/avees/Linux_for_Tegra/sources/tegra/optee-src/nv-optee/optee/optee_os/lib/libutils/ext/trace.c:107
     818:	b90087e0 	str	w0, [sp, #132]
/home/avees/Linux_for_Tegra/sources/tegra/optee-src/nv-optee/optee/optee_os/lib/libutils/ext/trace.c:108
     81c:	aa0503e0 	mov	x0, x5
     820:	97fffe00 	bl	20 <memcpy>
     824:	2a1503e1 	mov	w1, w21
     828:	aa0003e5 	mov	x5, x0
     82c:	aa1703e4 	mov	x4, x23
     830:	aa1403e0 	mov	x0, x20
     834:	2a1803e3 	mov	w3, w24
     838:	2a1603e2 	mov	w2, w22
     83c:	97ffff4d 	bl	570 <trace_vprintf>
/home/avees/Linux_for_Tegra/sources/tegra/optee-src/nv-optee/optee/optee_os/lib/libutils/ext/trace.c:110
     840:	f94047e0 	ldr	x0, [sp, #136]
     844:	f9400261 	ldr	x1, [x19]
     848:	eb010000 	subs	x0, x0, x1
     84c:	d2800001 	mov	x1, #0x0                   	// #0
     850:	54000040 	b.eq	858 <trace_printf+0xcc>  // b.none
     854:	97ffff30 	bl	514 <__stack_chk_fail>
     858:	a94153f3 	ldp	x19, x20, [sp, #16]
     85c:	a9425bf5 	ldp	x21, x22, [sp, #32]
     860:	a94363f7 	ldp	x23, x24, [sp, #48]
     864:	a8d37bfd 	ldp	x29, x30, [sp], #304
     868:	d65f03c0 	ret

000000000000086c <dhex_dump>:
dhex_dump():
/home/avees/Linux_for_Tegra/sources/tegra/optee-src/nv-optee/optee/optee_os/lib/libutils/ext/trace.c:287
     86c:	d65f03c0 	ret

0000000000000870 <__vsnprintf>:
__vsnprintf():
/home/avees/Linux_for_Tegra/sources/tegra/optee-src/nv-optee/optee/optee_os/lib/libutils/ext/snprintk.c:138
     870:	a9b97bfd 	stp	x29, x30, [sp, #-112]!
     874:	f0000085 	adrp	x5, 13000 <_DYNAMIC>
     878:	910003fd 	mov	x29, sp
     87c:	f94098a5 	ldr	x5, [x5, #304]
     880:	a90153f3 	stp	x19, x20, [sp, #16]
     884:	aa0003f3 	mov	x19, x0
     888:	aa0103f4 	mov	x20, x1
     88c:	f94000a0 	ldr	x0, [x5]
     890:	f90037e0 	str	x0, [sp, #104]
     894:	d2800000 	mov	x0, #0x0                   	// #0
     898:	aa0303e1 	mov	x1, x3
/home/avees/Linux_for_Tegra/sources/tegra/optee-src/nv-optee/optee/optee_os/lib/libutils/ext/snprintk.c:143
     89c:	910103e0 	add	x0, sp, #0x40
/home/avees/Linux_for_Tegra/sources/tegra/optee-src/nv-optee/optee/optee_os/lib/libutils/ext/snprintk.c:138
     8a0:	a9025bf5 	stp	x21, x22, [sp, #32]
     8a4:	aa0203f5 	mov	x21, x2
/home/avees/Linux_for_Tegra/sources/tegra/optee-src/nv-optee/optee/optee_os/lib/libutils/ext/snprintk.c:142
     8a8:	8b140276 	add	x22, x19, x20
/home/avees/Linux_for_Tegra/sources/tegra/optee-src/nv-optee/optee/optee_os/lib/libutils/ext/snprintk.c:143
     8ac:	d2800402 	mov	x2, #0x20                  	// #32
/home/avees/Linux_for_Tegra/sources/tegra/optee-src/nv-optee/optee/optee_os/lib/libutils/ext/snprintk.c:138
     8b0:	f9001bf7 	str	x23, [sp, #48]
     8b4:	12001c97 	and	w23, w4, #0xff
/home/avees/Linux_for_Tegra/sources/tegra/optee-src/nv-optee/optee/optee_os/lib/libutils/ext/snprintk.c:142
     8b8:	f90033f6 	str	x22, [sp, #96]
/home/avees/Linux_for_Tegra/sources/tegra/optee-src/nv-optee/optee/optee_os/lib/libutils/ext/snprintk.c:143
     8bc:	97fffdd9 	bl	20 <memcpy>
     8c0:	aa0003e3 	mov	x3, x0
     8c4:	2a1703e4 	mov	w4, w23
     8c8:	aa1303e2 	mov	x2, x19
     8cc:	910183e1 	add	x1, sp, #0x60
     8d0:	aa1503e0 	mov	x0, x21
     8d4:	94000060 	bl	a54 <kprintf.constprop.0>
/home/avees/Linux_for_Tegra/sources/tegra/optee-src/nv-optee/optee/optee_os/lib/libutils/ext/snprintk.c:144
     8d8:	f100027f 	cmp	x19, #0x0
     8dc:	fa401a84 	ccmp	x20, #0x0, #0x4, ne  // ne = any
     8e0:	540000a0 	b.eq	8f4 <__vsnprintf+0x84>  // b.none
/home/avees/Linux_for_Tegra/sources/tegra/optee-src/nv-optee/optee/optee_os/lib/libutils/ext/snprintk.c:146
     8e4:	93407c01 	sxtw	x1, w0
     8e8:	eb20c29f 	cmp	x20, w0, sxtw
     8ec:	54000148 	b.hi	914 <__vsnprintf+0xa4>  // b.pmore
/home/avees/Linux_for_Tegra/sources/tegra/optee-src/nv-optee/optee/optee_os/lib/libutils/ext/snprintk.c:147
     8f0:	381ff2df 	sturb	wzr, [x22, #-1]
/home/avees/Linux_for_Tegra/sources/tegra/optee-src/nv-optee/optee/optee_os/lib/libutils/ext/snprintk.c:152
     8f4:	f0000085 	adrp	x5, 13000 <_DYNAMIC>
     8f8:	f94098a5 	ldr	x5, [x5, #304]
     8fc:	f94037e1 	ldr	x1, [sp, #104]
     900:	f94000a2 	ldr	x2, [x5]
     904:	eb020021 	subs	x1, x1, x2
     908:	d2800002 	mov	x2, #0x0                   	// #0
     90c:	54000080 	b.eq	91c <__vsnprintf+0xac>  // b.none
     910:	97ffff01 	bl	514 <__stack_chk_fail>
/home/avees/Linux_for_Tegra/sources/tegra/optee-src/nv-optee/optee/optee_os/lib/libutils/ext/snprintk.c:149
     914:	38216a7f 	strb	wzr, [x19, x1]
/home/avees/Linux_for_Tegra/sources/tegra/optee-src/nv-optee/optee/optee_os/lib/libutils/ext/snprintk.c:151
     918:	17fffff7 	b	8f4 <__vsnprintf+0x84>
/home/avees/Linux_for_Tegra/sources/tegra/optee-src/nv-optee/optee/optee_os/lib/libutils/ext/snprintk.c:152
     91c:	a94153f3 	ldp	x19, x20, [sp, #16]
     920:	a9425bf5 	ldp	x21, x22, [sp, #32]
     924:	f9401bf7 	ldr	x23, [sp, #48]
     928:	a8c77bfd 	ldp	x29, x30, [sp], #112
     92c:	d65f03c0 	ret

0000000000000930 <vsnprintk>:
vsnprintk():
/home/avees/Linux_for_Tegra/sources/tegra/optee-src/nv-optee/optee/optee_os/lib/libutils/ext/snprintk.c:130
     930:	a9bb7bfd 	stp	x29, x30, [sp, #-80]!
/home/avees/Linux_for_Tegra/sources/tegra/optee-src/nv-optee/optee/optee_os/lib/libutils/ext/snprintk.c:131
     934:	9100c3e4 	add	x4, sp, #0x30
/home/avees/Linux_for_Tegra/sources/tegra/optee-src/nv-optee/optee/optee_os/lib/libutils/ext/snprintk.c:130
     938:	910003fd 	mov	x29, sp
     93c:	a90153f3 	stp	x19, x20, [sp, #16]
     940:	aa0003f3 	mov	x19, x0
     944:	aa0103f4 	mov	x20, x1
/home/avees/Linux_for_Tegra/sources/tegra/optee-src/nv-optee/optee/optee_os/lib/libutils/ext/snprintk.c:131
     948:	aa0403e0 	mov	x0, x4
/home/avees/Linux_for_Tegra/sources/tegra/optee-src/nv-optee/optee/optee_os/lib/libutils/ext/snprintk.c:130
     94c:	aa0303e1 	mov	x1, x3
     950:	f90013f5 	str	x21, [sp, #32]
     954:	aa0203f5 	mov	x21, x2
/home/avees/Linux_for_Tegra/sources/tegra/optee-src/nv-optee/optee/optee_os/lib/libutils/ext/snprintk.c:131
     958:	d2800402 	mov	x2, #0x20                  	// #32
     95c:	97fffdb1 	bl	20 <memcpy>
     960:	aa1503e2 	mov	x2, x21
     964:	aa0003e3 	mov	x3, x0
     968:	aa1403e1 	mov	x1, x20
     96c:	aa1303e0 	mov	x0, x19
     970:	52800024 	mov	w4, #0x1                   	// #1
     974:	97ffffbf 	bl	870 <__vsnprintf>
/home/avees/Linux_for_Tegra/sources/tegra/optee-src/nv-optee/optee/optee_os/lib/libutils/ext/snprintk.c:132
     978:	a94153f3 	ldp	x19, x20, [sp, #16]
     97c:	f94013f5 	ldr	x21, [sp, #32]
     980:	a8c57bfd 	ldp	x29, x30, [sp], #80
     984:	d65f03c0 	ret

0000000000000988 <snprintk>:
snprintk():
/home/avees/Linux_for_Tegra/sources/tegra/optee-src/nv-optee/optee/optee_os/lib/libutils/ext/snprintk.c:113
     988:	a9ad7bfd 	stp	x29, x30, [sp, #-304]!
     98c:	910003fd 	mov	x29, sp
     990:	a90153f3 	stp	x19, x20, [sp, #16]
     994:	f0000093 	adrp	x19, 13000 <_DYNAMIC>
     998:	aa0003f4 	mov	x20, x0
     99c:	f9409a73 	ldr	x19, [x19, #304]
     9a0:	3d8023e0 	str	q0, [sp, #128]
     9a4:	3d8027e1 	str	q1, [sp, #144]
     9a8:	3d802be2 	str	q2, [sp, #160]
     9ac:	3d802fe3 	str	q3, [sp, #176]
     9b0:	3d8033e4 	str	q4, [sp, #192]
     9b4:	3d8037e5 	str	q5, [sp, #208]
     9b8:	3d803be6 	str	q6, [sp, #224]
     9bc:	3d803fe7 	str	q7, [sp, #240]
     9c0:	a91093e3 	stp	x3, x4, [sp, #264]
/home/avees/Linux_for_Tegra/sources/tegra/optee-src/nv-optee/optee/optee_os/lib/libutils/ext/snprintk.c:118
     9c4:	9100c3e3 	add	x3, sp, #0x30
/home/avees/Linux_for_Tegra/sources/tegra/optee-src/nv-optee/optee/optee_os/lib/libutils/ext/snprintk.c:113
     9c8:	a9119be5 	stp	x5, x6, [sp, #280]
     9cc:	f90097e7 	str	x7, [sp, #296]
     9d0:	a9025bf5 	stp	x21, x22, [sp, #32]
     9d4:	aa0103f5 	mov	x21, x1
     9d8:	f9400260 	ldr	x0, [x19]
     9dc:	f9003fe0 	str	x0, [sp, #120]
     9e0:	d2800000 	mov	x0, #0x0                   	// #0
/home/avees/Linux_for_Tegra/sources/tegra/optee-src/nv-optee/optee/optee_os/lib/libutils/ext/snprintk.c:117
     9e4:	9104c3e0 	add	x0, sp, #0x130
     9e8:	a90583e0 	stp	x0, x0, [sp, #88]
     9ec:	910403e0 	add	x0, sp, #0x100
     9f0:	f90037e0 	str	x0, [sp, #104]
     9f4:	128004e0 	mov	w0, #0xffffffd8            	// #-40
     9f8:	b90073e0 	str	w0, [sp, #112]
     9fc:	12800fe0 	mov	w0, #0xffffff80            	// #-128
/home/avees/Linux_for_Tegra/sources/tegra/optee-src/nv-optee/optee/optee_os/lib/libutils/ext/snprintk.c:113
     a00:	aa0203f6 	mov	x22, x2
/home/avees/Linux_for_Tegra/sources/tegra/optee-src/nv-optee/optee/optee_os/lib/libutils/ext/snprintk.c:118
     a04:	910163e1 	add	x1, sp, #0x58
     a08:	d2800402 	mov	x2, #0x20                  	// #32
/home/avees/Linux_for_Tegra/sources/tegra/optee-src/nv-optee/optee/optee_os/lib/libutils/ext/snprintk.c:117
     a0c:	b90077e0 	str	w0, [sp, #116]
/home/avees/Linux_for_Tegra/sources/tegra/optee-src/nv-optee/optee/optee_os/lib/libutils/ext/snprintk.c:118
     a10:	aa0303e0 	mov	x0, x3
     a14:	97fffd83 	bl	20 <memcpy>
     a18:	aa1603e2 	mov	x2, x22
     a1c:	aa0003e3 	mov	x3, x0
     a20:	aa1503e1 	mov	x1, x21
     a24:	aa1403e0 	mov	x0, x20
     a28:	97ffffc2 	bl	930 <vsnprintk>
/home/avees/Linux_for_Tegra/sources/tegra/optee-src/nv-optee/optee/optee_os/lib/libutils/ext/snprintk.c:122
     a2c:	f9403fe1 	ldr	x1, [sp, #120]
     a30:	f9400262 	ldr	x2, [x19]
     a34:	eb020021 	subs	x1, x1, x2
     a38:	d2800002 	mov	x2, #0x0                   	// #0
     a3c:	54000040 	b.eq	a44 <snprintk+0xbc>  // b.none
     a40:	97fffeb5 	bl	514 <__stack_chk_fail>
     a44:	a94153f3 	ldp	x19, x20, [sp, #16]
     a48:	a9425bf5 	ldp	x21, x22, [sp, #32]
     a4c:	a8d37bfd 	ldp	x29, x30, [sp], #304
     a50:	d65f03c0 	ret

0000000000000a54 <kprintf.constprop.0>:
kprintf():
/home/avees/Linux_for_Tegra/sources/tegra/optee-src/nv-optee/optee/optee_os/lib/libutils/ext/snprintk.c:242
     a54:	d103c3ff 	sub	sp, sp, #0xf0
     a58:	aa0103e8 	mov	x8, x1
     a5c:	a9037bfd 	stp	x29, x30, [sp, #48]
     a60:	9100c3fd 	add	x29, sp, #0x30
     a64:	a90873fb 	stp	x27, x28, [sp, #128]
     a68:	aa0003fb 	mov	x27, x0
     a6c:	12001c80 	and	w0, w4, #0xff
     a70:	b900a3e0 	str	w0, [sp, #160]
     a74:	f0000080 	adrp	x0, 13000 <_DYNAMIC>
     a78:	a90453f3 	stp	x19, x20, [sp, #64]
     a7c:	b9401874 	ldr	w20, [x3, #24]
     a80:	f9409800 	ldr	x0, [x0, #304]
     a84:	a9055bf5 	stp	x21, x22, [sp, #80]
     a88:	aa0203f6 	mov	x22, x2
     a8c:	f9400001 	ldr	x1, [x0]
     a90:	f90077e1 	str	x1, [sp, #232]
     a94:	d2800001 	mov	x1, #0x0                   	// #0
     a98:	a90663f7 	stp	x23, x24, [sp, #96]
     a9c:	a9076bf9 	stp	x25, x26, [sp, #112]
     aa0:	a9406873 	ldp	x19, x26, [x3]
/home/avees/Linux_for_Tegra/sources/tegra/optee-src/nv-optee/optee/optee_os/lib/libutils/ext/snprintk.c:264
     aa4:	b40004c8 	cbz	x8, b3c <kprintf.constprop.0+0xe8>
/home/avees/Linux_for_Tegra/sources/tegra/optee-src/nv-optee/optee/optee_os/lib/libutils/ext/snprintk.c:265
     aa8:	f9400118 	ldr	x24, [x8]
/home/avees/Linux_for_Tegra/sources/tegra/optee-src/nv-optee/optee/optee_os/lib/libutils/ext/snprintk.c:543
     aac:	910303ec 	add	x12, sp, #0xc0
     ab0:	b0000080 	adrp	x0, 11000 <__text_end+0x28e4>
/home/avees/Linux_for_Tegra/sources/tegra/optee-src/nv-optee/optee/optee_os/lib/libutils/ext/snprintk.c:275
     ab4:	d2800017 	mov	x23, #0x0                   	// #0
     ab8:	911f4000 	add	x0, x0, #0x7d0
/home/avees/Linux_for_Tegra/sources/tegra/optee-src/nv-optee/optee/optee_os/lib/libutils/ext/snprintk.c:273
     abc:	52800019 	mov	w25, #0x0                   	// #0
     ac0:	f9004be0 	str	x0, [sp, #144]
/home/avees/Linux_for_Tegra/sources/tegra/optee-src/nv-optee/optee/optee_os/lib/libutils/ext/snprintk.c:281
     ac4:	39400360 	ldrb	w0, [x27]
     ac8:	7100941f 	cmp	w0, #0x25
     acc:	7a401804 	ccmp	w0, #0x0, #0x4, ne  // ne = any
     ad0:	540003a1 	b.ne	b44 <kprintf.constprop.0+0xf0>  // b.any
/home/avees/Linux_for_Tegra/sources/tegra/optee-src/nv-optee/optee/optee_os/lib/libutils/ext/snprintk.c:285
     ad4:	34005260 	cbz	w0, 1520 <kprintf.constprop.0+0xacc>
/home/avees/Linux_for_Tegra/sources/tegra/optee-src/nv-optee/optee/optee_os/lib/libutils/ext/snprintk.c:293
     ad8:	12800005 	mov	w5, #0xffffffff            	// #-1
     adc:	b0000086 	adrp	x6, 11000 <__text_end+0x28e4>
/home/avees/Linux_for_Tegra/sources/tegra/optee-src/nv-optee/optee/optee_os/lib/libutils/ext/snprintk.c:288
     ae0:	9100077b 	add	x27, x27, #0x1
     ae4:	2a1403e4 	mov	w4, w20
     ae8:	aa1303e3 	mov	x3, x19
     aec:	911fb0c6 	add	x6, x6, #0x7ec
/home/avees/Linux_for_Tegra/sources/tegra/optee-src/nv-optee/optee/optee_os/lib/libutils/ext/snprintk.c:330
     af0:	2a0503ee 	mov	w14, w5
/home/avees/Linux_for_Tegra/sources/tegra/optee-src/nv-optee/optee/optee_os/lib/libutils/ext/snprintk.c:294
     af4:	52800001 	mov	w1, #0x0                   	// #0
/home/avees/Linux_for_Tegra/sources/tegra/optee-src/nv-optee/optee/optee_os/lib/libutils/ext/snprintk.c:292
     af8:	5280000a 	mov	w10, #0x0                   	// #0
/home/avees/Linux_for_Tegra/sources/tegra/optee-src/nv-optee/optee/optee_os/lib/libutils/ext/snprintk.c:290
     afc:	52800015 	mov	w21, #0x0                   	// #0
/home/avees/Linux_for_Tegra/sources/tegra/optee-src/nv-optee/optee/optee_os/lib/libutils/ext/snprintk.c:352
     b00:	5280014d 	mov	w13, #0xa                   	// #10
/home/avees/Linux_for_Tegra/sources/tegra/optee-src/nv-optee/optee/optee_os/lib/libutils/ext/snprintk.c:305
     b04:	5280040f 	mov	w15, #0x20                  	// #32
/home/avees/Linux_for_Tegra/sources/tegra/optee-src/nv-optee/optee/optee_os/lib/libutils/ext/snprintk.c:296
     b08:	3840177c 	ldrb	w28, [x27], #1
/home/avees/Linux_for_Tegra/sources/tegra/optee-src/nv-optee/optee/optee_os/lib/libutils/ext/snprintk.c:297
     b0c:	7100e79f 	cmp	w28, #0x39
     b10:	5400054c 	b.gt	bb8 <kprintf.constprop.0+0x164>
     b14:	71007f9f 	cmp	w28, #0x1f
     b18:	5400502d 	b.le	151c <kprintf.constprop.0+0xac8>
     b1c:	51008380 	sub	w0, w28, #0x20
     b20:	7100641f 	cmp	w0, #0x19
     b24:	54000508 	b.hi	bc4 <kprintf.constprop.0+0x170>  // b.pmore
     b28:	f9404be2 	ldr	x2, [sp, #144]
     b2c:	38604840 	ldrb	w0, [x2, w0, uxtw]
     b30:	10000062 	adr	x2, b3c <kprintf.constprop.0+0xe8>
     b34:	8b208840 	add	x0, x2, w0, sxtb #2
     b38:	d61f0000 	br	x0
/home/avees/Linux_for_Tegra/sources/tegra/optee-src/nv-optee/optee/optee_os/lib/libutils/ext/snprintk.c:267
     b3c:	d2800018 	mov	x24, #0x0                   	// #0
     b40:	17ffffdb 	b	aac <kprintf.constprop.0+0x58>
/home/avees/Linux_for_Tegra/sources/tegra/optee-src/nv-optee/optee/optee_os/lib/libutils/ext/snprintk.c:282
     b44:	11000739 	add	w25, w25, #0x1
/home/avees/Linux_for_Tegra/sources/tegra/optee-src/nv-optee/optee/optee_os/lib/libutils/ext/snprintk.c:283
     b48:	b40000b6 	cbz	x22, b5c <kprintf.constprop.0+0x108>
     b4c:	f100011f 	cmp	x8, #0x0
     b50:	fa5812c0 	ccmp	x22, x24, #0x0, ne  // ne = any
     b54:	54000042 	b.cs	b5c <kprintf.constprop.0+0x108>  // b.hs, b.nlast
     b58:	380016c0 	strb	w0, [x22], #1
/home/avees/Linux_for_Tegra/sources/tegra/optee-src/nv-optee/optee/optee_os/lib/libutils/ext/snprintk.c:281
     b5c:	9100077b 	add	x27, x27, #0x1
     b60:	17ffffd9 	b	ac4 <kprintf.constprop.0+0x70>
/home/avees/Linux_for_Tegra/sources/tegra/optee-src/nv-optee/optee/optee_os/lib/libutils/ext/snprintk.c:325
     b64:	52800561 	mov	w1, #0x2b                  	// #43
     b68:	17ffffe8 	b	b08 <kprintf.constprop.0+0xb4>
     b6c:	786058c0 	ldrh	w0, [x6, w0, uxtw #1]
     b70:	10000062 	adr	x2, b7c <kprintf.constprop.0+0x128>
     b74:	8b20a840 	add	x0, x2, w0, sxth #2
     b78:	d61f0000 	br	x0
/home/avees/Linux_for_Tegra/sources/tegra/optee-src/nv-optee/optee/optee_os/lib/libutils/ext/snprintk.c:480
     b7c:	b0000097 	adrp	x23, 11000 <__text_end+0x28e4>
     b80:	91216af7 	add	x23, x23, #0x85a
     b84:	910046f7 	add	x23, x23, #0x11
/home/avees/Linux_for_Tegra/sources/tegra/optee-src/nv-optee/optee/optee_os/lib/libutils/ext/snprintk.c:481
     b88:	36384515 	tbz	w21, #7, 1428 <kprintf.constprop.0+0x9d4>
     b8c:	37f84644 	tbnz	w4, #31, 1454 <kprintf.constprop.0+0xa00>
     b90:	91003c73 	add	x19, x3, #0xf
     b94:	2a0403f4 	mov	w20, w4
     b98:	927df273 	and	x19, x19, #0xfffffffffffffff8
     b9c:	f9400062 	ldr	x2, [x3]
/home/avees/Linux_for_Tegra/sources/tegra/optee-src/nv-optee/optee/optee_os/lib/libutils/ext/snprintk.c:484
     ba0:	36003475 	tbz	w21, #0, 122c <kprintf.constprop.0+0x7d8>
     ba4:	b4003442 	cbz	x2, 122c <kprintf.constprop.0+0x7d8>
/home/avees/Linux_for_Tegra/sources/tegra/optee-src/nv-optee/optee/optee_os/lib/libutils/ext/snprintk.c:485
     ba8:	321f02b5 	orr	w21, w21, #0x2
/home/avees/Linux_for_Tegra/sources/tegra/optee-src/nv-optee/optee/optee_os/lib/libutils/ext/snprintk.c:482
     bac:	52800040 	mov	w0, #0x2                   	// #2
/home/avees/Linux_for_Tegra/sources/tegra/optee-src/nv-optee/optee/optee_os/lib/libutils/ext/snprintk.c:488
     bb0:	52800001 	mov	w1, #0x0                   	// #0
     bb4:	14000078 	b	d94 <kprintf.constprop.0+0x340>
/home/avees/Linux_for_Tegra/sources/tegra/optee-src/nv-optee/optee/optee_os/lib/libutils/ext/snprintk.c:297
     bb8:	51011380 	sub	w0, w28, #0x44
     bbc:	7100d81f 	cmp	w0, #0x36
     bc0:	54fffd69 	b.ls	b6c <kprintf.constprop.0+0x118>  // b.plast
/home/avees/Linux_for_Tegra/sources/tegra/optee-src/nv-optee/optee/optee_os/lib/libutils/ext/snprintk.c:554
     bc4:	2a0403f4 	mov	w20, w4
     bc8:	aa0303f3 	mov	x19, x3
/home/avees/Linux_for_Tegra/sources/tegra/optee-src/nv-optee/optee/optee_os/lib/libutils/ext/snprintk.c:551
     bcc:	390303fc 	strb	w28, [sp, #192]
/home/avees/Linux_for_Tegra/sources/tegra/optee-src/nv-optee/optee/optee_os/lib/libutils/ext/snprintk.c:554
     bd0:	14000058 	b	d30 <kprintf.constprop.0+0x2dc>
/home/avees/Linux_for_Tegra/sources/tegra/optee-src/nv-optee/optee/optee_os/lib/libutils/ext/snprintk.c:305
     bd4:	7100003f 	cmp	w1, #0x0
     bd8:	1a8f1021 	csel	w1, w1, w15, ne  // ne = any
     bdc:	17ffffcb 	b	b08 <kprintf.constprop.0+0xb4>
/home/avees/Linux_for_Tegra/sources/tegra/optee-src/nv-optee/optee/optee_os/lib/libutils/ext/snprintk.c:308
     be0:	320002b5 	orr	w21, w21, #0x1
/home/avees/Linux_for_Tegra/sources/tegra/optee-src/nv-optee/optee/optee_os/lib/libutils/ext/snprintk.c:309
     be4:	17ffffc9 	b	b08 <kprintf.constprop.0+0xb4>
/home/avees/Linux_for_Tegra/sources/tegra/optee-src/nv-optee/optee/optee_os/lib/libutils/ext/snprintk.c:317
     be8:	37f80124 	tbnz	w4, #31, c0c <kprintf.constprop.0+0x1b8>
     bec:	91002c62 	add	x2, x3, #0xb
     bf0:	aa0303e0 	mov	x0, x3
     bf4:	927df043 	and	x3, x2, #0xfffffffffffffff8
     bf8:	b940000a 	ldr	w10, [x0]
     bfc:	36fff86a 	tbz	w10, #31, b08 <kprintf.constprop.0+0xb4>
/home/avees/Linux_for_Tegra/sources/tegra/optee-src/nv-optee/optee/optee_os/lib/libutils/ext/snprintk.c:319
     c00:	4b0a03ea 	neg	w10, w10
/home/avees/Linux_for_Tegra/sources/tegra/optee-src/nv-optee/optee/optee_os/lib/libutils/ext/snprintk.c:322
     c04:	321e02b5 	orr	w21, w21, #0x4
/home/avees/Linux_for_Tegra/sources/tegra/optee-src/nv-optee/optee/optee_os/lib/libutils/ext/snprintk.c:323
     c08:	17ffffc0 	b	b08 <kprintf.constprop.0+0xb4>
/home/avees/Linux_for_Tegra/sources/tegra/optee-src/nv-optee/optee/optee_os/lib/libutils/ext/snprintk.c:317
     c0c:	11002082 	add	w2, w4, #0x8
     c10:	7100005f 	cmp	w2, #0x0
     c14:	540000cd 	b.le	c2c <kprintf.constprop.0+0x1d8>
     c18:	91002c67 	add	x7, x3, #0xb
     c1c:	aa0303e0 	mov	x0, x3
     c20:	2a0203e4 	mov	w4, w2
     c24:	927df0e3 	and	x3, x7, #0xfffffffffffffff8
     c28:	17fffff4 	b	bf8 <kprintf.constprop.0+0x1a4>
     c2c:	8b24c340 	add	x0, x26, w4, sxtw
     c30:	2a0203e4 	mov	w4, w2
     c34:	17fffff1 	b	bf8 <kprintf.constprop.0+0x1a4>
/home/avees/Linux_for_Tegra/sources/tegra/optee-src/nv-optee/optee/optee_os/lib/libutils/ext/snprintk.c:328
     c38:	3840177c 	ldrb	w28, [x27], #1
     c3c:	7100ab9f 	cmp	w28, #0x2a
     c40:	54000341 	b.ne	ca8 <kprintf.constprop.0+0x254>  // b.any
/home/avees/Linux_for_Tegra/sources/tegra/optee-src/nv-optee/optee/optee_os/lib/libutils/ext/snprintk.c:329
     c44:	37f80144 	tbnz	w4, #31, c6c <kprintf.constprop.0+0x218>
     c48:	91002c62 	add	x2, x3, #0xb
     c4c:	2a0403e7 	mov	w7, w4
     c50:	927df042 	and	x2, x2, #0xfffffffffffffff8
/home/avees/Linux_for_Tegra/sources/tegra/optee-src/nv-optee/optee/optee_os/lib/libutils/ext/snprintk.c:330
     c54:	b9400065 	ldr	w5, [x3]
/home/avees/Linux_for_Tegra/sources/tegra/optee-src/nv-optee/optee/optee_os/lib/libutils/ext/snprintk.c:331
     c58:	2a0703e4 	mov	w4, w7
     c5c:	aa0203e3 	mov	x3, x2
/home/avees/Linux_for_Tegra/sources/tegra/optee-src/nv-optee/optee/optee_os/lib/libutils/ext/snprintk.c:330
     c60:	710000bf 	cmp	w5, #0x0
     c64:	1a8ea0a5 	csel	w5, w5, w14, ge  // ge = tcont
/home/avees/Linux_for_Tegra/sources/tegra/optee-src/nv-optee/optee/optee_os/lib/libutils/ext/snprintk.c:331
     c68:	17ffffa8 	b	b08 <kprintf.constprop.0+0xb4>
/home/avees/Linux_for_Tegra/sources/tegra/optee-src/nv-optee/optee/optee_os/lib/libutils/ext/snprintk.c:329
     c6c:	11002087 	add	w7, w4, #0x8
     c70:	710000ff 	cmp	w7, #0x0
     c74:	5400008d 	b.le	c84 <kprintf.constprop.0+0x230>
     c78:	91002c62 	add	x2, x3, #0xb
     c7c:	927df042 	and	x2, x2, #0xfffffffffffffff8
     c80:	17fffff5 	b	c54 <kprintf.constprop.0+0x200>
     c84:	aa0303e2 	mov	x2, x3
     c88:	8b24c343 	add	x3, x26, w4, sxtw
     c8c:	17fffff2 	b	c54 <kprintf.constprop.0+0x200>
/home/avees/Linux_for_Tegra/sources/tegra/optee-src/nv-optee/optee/optee_os/lib/libutils/ext/snprintk.c:335
     c90:	1b0d00a5 	madd	w5, w5, w13, w0
/home/avees/Linux_for_Tegra/sources/tegra/optee-src/nv-optee/optee/optee_os/lib/libutils/ext/snprintk.c:336
     c94:	3840177c 	ldrb	w28, [x27], #1
/home/avees/Linux_for_Tegra/sources/tegra/optee-src/nv-optee/optee/optee_os/lib/libutils/ext/snprintk.c:334
     c98:	5100c380 	sub	w0, w28, #0x30
     c9c:	7100241f 	cmp	w0, #0x9
     ca0:	54ffff89 	b.ls	c90 <kprintf.constprop.0+0x23c>  // b.plast
     ca4:	17ffff9a 	b	b0c <kprintf.constprop.0+0xb8>
/home/avees/Linux_for_Tegra/sources/tegra/optee-src/nv-optee/optee/optee_os/lib/libutils/ext/snprintk.c:333
     ca8:	52800005 	mov	w5, #0x0                   	// #0
     cac:	17fffffb 	b	c98 <kprintf.constprop.0+0x244>
/home/avees/Linux_for_Tegra/sources/tegra/optee-src/nv-optee/optee/optee_os/lib/libutils/ext/snprintk.c:346
     cb0:	321602b5 	orr	w21, w21, #0x400
/home/avees/Linux_for_Tegra/sources/tegra/optee-src/nv-optee/optee/optee_os/lib/libutils/ext/snprintk.c:347
     cb4:	17ffff95 	b	b08 <kprintf.constprop.0+0xb4>
/home/avees/Linux_for_Tegra/sources/tegra/optee-src/nv-optee/optee/optee_os/lib/libutils/ext/snprintk.c:297
     cb8:	5280000a 	mov	w10, #0x0                   	// #0
/home/avees/Linux_for_Tegra/sources/tegra/optee-src/nv-optee/optee/optee_os/lib/libutils/ext/snprintk.c:352
     cbc:	5100c39c 	sub	w28, w28, #0x30
     cc0:	1b0d714a 	madd	w10, w10, w13, w28
/home/avees/Linux_for_Tegra/sources/tegra/optee-src/nv-optee/optee/optee_os/lib/libutils/ext/snprintk.c:353
     cc4:	3840177c 	ldrb	w28, [x27], #1
/home/avees/Linux_for_Tegra/sources/tegra/optee-src/nv-optee/optee/optee_os/lib/libutils/ext/snprintk.c:354
     cc8:	5100c380 	sub	w0, w28, #0x30
     ccc:	7100241f 	cmp	w0, #0x9
     cd0:	54ffff69 	b.ls	cbc <kprintf.constprop.0+0x268>  // b.plast
     cd4:	17ffff8e 	b	b0c <kprintf.constprop.0+0xb8>
/home/avees/Linux_for_Tegra/sources/tegra/optee-src/nv-optee/optee/optee_os/lib/libutils/ext/snprintk.c:358
     cd8:	321a02b5 	orr	w21, w21, #0x40
/home/avees/Linux_for_Tegra/sources/tegra/optee-src/nv-optee/optee/optee_os/lib/libutils/ext/snprintk.c:359
     cdc:	17ffff8b 	b	b08 <kprintf.constprop.0+0xb4>
/home/avees/Linux_for_Tegra/sources/tegra/optee-src/nv-optee/optee/optee_os/lib/libutils/ext/snprintk.c:361
     ce0:	321902b5 	orr	w21, w21, #0x80
/home/avees/Linux_for_Tegra/sources/tegra/optee-src/nv-optee/optee/optee_os/lib/libutils/ext/snprintk.c:362
     ce4:	17ffff89 	b	b08 <kprintf.constprop.0+0xb4>
/home/avees/Linux_for_Tegra/sources/tegra/optee-src/nv-optee/optee/optee_os/lib/libutils/ext/snprintk.c:364
     ce8:	39400360 	ldrb	w0, [x27]
     cec:	7101b01f 	cmp	w0, #0x6c
     cf0:	54000081 	b.ne	d00 <kprintf.constprop.0+0x2ac>  // b.any
     cf4:	9100077b 	add	x27, x27, #0x1
/home/avees/Linux_for_Tegra/sources/tegra/optee-src/nv-optee/optee/optee_os/lib/libutils/ext/snprintk.c:372
     cf8:	321b02b5 	orr	w21, w21, #0x20
/home/avees/Linux_for_Tegra/sources/tegra/optee-src/nv-optee/optee/optee_os/lib/libutils/ext/snprintk.c:373
     cfc:	17ffff83 	b	b08 <kprintf.constprop.0+0xb4>
/home/avees/Linux_for_Tegra/sources/tegra/optee-src/nv-optee/optee/optee_os/lib/libutils/ext/snprintk.c:368
     d00:	321c02b5 	orr	w21, w21, #0x10
     d04:	17ffff81 	b	b08 <kprintf.constprop.0+0xb4>
/home/avees/Linux_for_Tegra/sources/tegra/optee-src/nv-optee/optee/optee_os/lib/libutils/ext/snprintk.c:375
     d08:	321802b5 	orr	w21, w21, #0x100
/home/avees/Linux_for_Tegra/sources/tegra/optee-src/nv-optee/optee/optee_os/lib/libutils/ext/snprintk.c:376
     d0c:	17ffff7f 	b	b08 <kprintf.constprop.0+0xb4>
/home/avees/Linux_for_Tegra/sources/tegra/optee-src/nv-optee/optee/optee_os/lib/libutils/ext/snprintk.c:378
     d10:	321702b5 	orr	w21, w21, #0x200
/home/avees/Linux_for_Tegra/sources/tegra/optee-src/nv-optee/optee/optee_os/lib/libutils/ext/snprintk.c:379
     d14:	17ffff7d 	b	b08 <kprintf.constprop.0+0xb4>
/home/avees/Linux_for_Tegra/sources/tegra/optee-src/nv-optee/optee/optee_os/lib/libutils/ext/snprintk.c:381
     d18:	37f80164 	tbnz	w4, #31, d44 <kprintf.constprop.0+0x2f0>
     d1c:	91002c73 	add	x19, x3, #0xb
     d20:	2a0403f4 	mov	w20, w4
     d24:	927df273 	and	x19, x19, #0xfffffffffffffff8
     d28:	b9400060 	ldr	w0, [x3]
     d2c:	390303e0 	strb	w0, [sp, #192]
/home/avees/Linux_for_Tegra/sources/tegra/optee-src/nv-optee/optee/optee_os/lib/libutils/ext/snprintk.c:550
     d30:	910303e3 	add	x3, sp, #0xc0
/home/avees/Linux_for_Tegra/sources/tegra/optee-src/nv-optee/optee/optee_os/lib/libutils/ext/snprintk.c:552
     d34:	52800025 	mov	w5, #0x1                   	// #1
/home/avees/Linux_for_Tegra/sources/tegra/optee-src/nv-optee/optee/optee_os/lib/libutils/ext/snprintk.c:291
     d38:	52800006 	mov	w6, #0x0                   	// #0
/home/avees/Linux_for_Tegra/sources/tegra/optee-src/nv-optee/optee/optee_os/lib/libutils/ext/snprintk.c:553
     d3c:	52800001 	mov	w1, #0x0                   	// #0
/home/avees/Linux_for_Tegra/sources/tegra/optee-src/nv-optee/optee/optee_os/lib/libutils/ext/snprintk.c:554
     d40:	140000fa 	b	1128 <kprintf.constprop.0+0x6d4>
/home/avees/Linux_for_Tegra/sources/tegra/optee-src/nv-optee/optee/optee_os/lib/libutils/ext/snprintk.c:381
     d44:	11002094 	add	w20, w4, #0x8
     d48:	7100029f 	cmp	w20, #0x0
     d4c:	5400008d 	b.le	d5c <kprintf.constprop.0+0x308>
     d50:	91002c73 	add	x19, x3, #0xb
     d54:	927df273 	and	x19, x19, #0xfffffffffffffff8
     d58:	17fffff4 	b	d28 <kprintf.constprop.0+0x2d4>
     d5c:	aa0303f3 	mov	x19, x3
     d60:	8b24c343 	add	x3, x26, w4, sxtw
     d64:	17fffff1 	b	d28 <kprintf.constprop.0+0x2d4>
/home/avees/Linux_for_Tegra/sources/tegra/optee-src/nv-optee/optee/optee_os/lib/libutils/ext/snprintk.c:386
     d68:	321c02b5 	orr	w21, w21, #0x10
/home/avees/Linux_for_Tegra/sources/tegra/optee-src/nv-optee/optee/optee_os/lib/libutils/ext/snprintk.c:390
     d6c:	363802f5 	tbz	w21, #7, dc8 <kprintf.constprop.0+0x374>
     d70:	37f80424 	tbnz	w4, #31, df4 <kprintf.constprop.0+0x3a0>
     d74:	91003c73 	add	x19, x3, #0xf
     d78:	2a0403f4 	mov	w20, w4
     d7c:	927df273 	and	x19, x19, #0xfffffffffffffff8
     d80:	f9400062 	ldr	x2, [x3]
/home/avees/Linux_for_Tegra/sources/tegra/optee-src/nv-optee/optee/optee_os/lib/libutils/ext/snprintk.c:391
     d84:	b6f82e02 	tbz	x2, #63, 1344 <kprintf.constprop.0+0x8f0>
/home/avees/Linux_for_Tegra/sources/tegra/optee-src/nv-optee/optee/optee_os/lib/libutils/ext/snprintk.c:392
     d88:	cb0203e2 	neg	x2, x2
/home/avees/Linux_for_Tegra/sources/tegra/optee-src/nv-optee/optee/optee_os/lib/libutils/ext/snprintk.c:395
     d8c:	52800020 	mov	w0, #0x1                   	// #1
/home/avees/Linux_for_Tegra/sources/tegra/optee-src/nv-optee/optee/optee_os/lib/libutils/ext/snprintk.c:393
     d90:	528005a1 	mov	w1, #0x2d                  	// #45
/home/avees/Linux_for_Tegra/sources/tegra/optee-src/nv-optee/optee/optee_os/lib/libutils/ext/snprintk.c:494
     d94:	310004bf 	cmn	w5, #0x1
     d98:	54003a21 	b.ne	14dc <kprintf.constprop.0+0xa88>  // b.any
/home/avees/Linux_for_Tegra/sources/tegra/optee-src/nv-optee/optee/optee_os/lib/libutils/ext/snprintk.c:509
     d9c:	7100041f 	cmp	w0, #0x1
     da0:	54002d60 	b.eq	134c <kprintf.constprop.0+0x8f8>  // b.none
     da4:	7100081f 	cmp	w0, #0x2
     da8:	54000ea1 	b.ne	f7c <kprintf.constprop.0+0x528>  // b.any
/home/avees/Linux_for_Tegra/sources/tegra/optee-src/nv-optee/optee/optee_os/lib/libutils/ext/snprintk.c:502
     dac:	91009583 	add	x3, x12, #0x25
/home/avees/Linux_for_Tegra/sources/tegra/optee-src/nv-optee/optee/optee_os/lib/libutils/ext/snprintk.c:531
     db0:	92400c40 	and	x0, x2, #0xf
/home/avees/Linux_for_Tegra/sources/tegra/optee-src/nv-optee/optee/optee_os/lib/libutils/ext/snprintk.c:532
     db4:	d344fc42 	lsr	x2, x2, #4
/home/avees/Linux_for_Tegra/sources/tegra/optee-src/nv-optee/optee/optee_os/lib/libutils/ext/snprintk.c:531
     db8:	38606ae0 	ldrb	w0, [x23, x0]
     dbc:	381ffc60 	strb	w0, [x3, #-1]!
/home/avees/Linux_for_Tegra/sources/tegra/optee-src/nv-optee/optee/optee_os/lib/libutils/ext/snprintk.c:533
     dc0:	b5ffff82 	cbnz	x2, db0 <kprintf.constprop.0+0x35c>
     dc4:	1400007b 	b	fb0 <kprintf.constprop.0+0x55c>
/home/avees/Linux_for_Tegra/sources/tegra/optee-src/nv-optee/optee/optee_os/lib/libutils/ext/snprintk.c:390
     dc8:	3747fd55 	tbnz	w21, #8, d70 <kprintf.constprop.0+0x31c>
     dcc:	374ffd35 	tbnz	w21, #9, d70 <kprintf.constprop.0+0x31c>
     dd0:	372ffd15 	tbnz	w21, #5, d70 <kprintf.constprop.0+0x31c>
     dd4:	3727fcf5 	tbnz	w21, #4, d70 <kprintf.constprop.0+0x31c>
     dd8:	36300335 	tbz	w21, #6, e3c <kprintf.constprop.0+0x3e8>
     ddc:	37f801e4 	tbnz	w4, #31, e18 <kprintf.constprop.0+0x3c4>
     de0:	91002c73 	add	x19, x3, #0xb
     de4:	2a0403f4 	mov	w20, w4
     de8:	927df273 	and	x19, x19, #0xfffffffffffffff8
     dec:	79800062 	ldrsh	x2, [x3]
     df0:	17ffffe5 	b	d84 <kprintf.constprop.0+0x330>
     df4:	11002094 	add	w20, w4, #0x8
     df8:	7100029f 	cmp	w20, #0x0
     dfc:	5400008d 	b.le	e0c <kprintf.constprop.0+0x3b8>
     e00:	91003c73 	add	x19, x3, #0xf
     e04:	927df273 	and	x19, x19, #0xfffffffffffffff8
     e08:	17ffffde 	b	d80 <kprintf.constprop.0+0x32c>
     e0c:	aa0303f3 	mov	x19, x3
     e10:	8b24c343 	add	x3, x26, w4, sxtw
     e14:	17ffffdb 	b	d80 <kprintf.constprop.0+0x32c>
     e18:	11002094 	add	w20, w4, #0x8
     e1c:	7100029f 	cmp	w20, #0x0
     e20:	5400008d 	b.le	e30 <kprintf.constprop.0+0x3dc>
     e24:	91002c73 	add	x19, x3, #0xb
     e28:	927df273 	and	x19, x19, #0xfffffffffffffff8
     e2c:	17fffff0 	b	dec <kprintf.constprop.0+0x398>
     e30:	aa0303f3 	mov	x19, x3
     e34:	8b24c343 	add	x3, x26, w4, sxtw
     e38:	17ffffed 	b	dec <kprintf.constprop.0+0x398>
     e3c:	37f800c4 	tbnz	w4, #31, e54 <kprintf.constprop.0+0x400>
     e40:	91002c73 	add	x19, x3, #0xb
     e44:	2a0403f4 	mov	w20, w4
     e48:	927df273 	and	x19, x19, #0xfffffffffffffff8
     e4c:	b9800062 	ldrsw	x2, [x3]
     e50:	17ffffcd 	b	d84 <kprintf.constprop.0+0x330>
     e54:	11002094 	add	w20, w4, #0x8
     e58:	7100029f 	cmp	w20, #0x0
     e5c:	5400008d 	b.le	e6c <kprintf.constprop.0+0x418>
     e60:	91002c73 	add	x19, x3, #0xb
     e64:	927df273 	and	x19, x19, #0xfffffffffffffff8
     e68:	17fffff9 	b	e4c <kprintf.constprop.0+0x3f8>
     e6c:	aa0303f3 	mov	x19, x3
     e70:	8b24c343 	add	x3, x26, w4, sxtw
     e74:	17fffff6 	b	e4c <kprintf.constprop.0+0x3f8>
/home/avees/Linux_for_Tegra/sources/tegra/optee-src/nv-optee/optee/optee_os/lib/libutils/ext/snprintk.c:398
     e78:	36380135 	tbz	w21, #7, e9c <kprintf.constprop.0+0x448>
/home/avees/Linux_for_Tegra/sources/tegra/optee-src/nv-optee/optee/optee_os/lib/libutils/ext/snprintk.c:407
     e7c:	37f80284 	tbnz	w4, #31, ecc <kprintf.constprop.0+0x478>
     e80:	91003c73 	add	x19, x3, #0xf
     e84:	2a0403f4 	mov	w20, w4
     e88:	927df273 	and	x19, x19, #0xfffffffffffffff8
     e8c:	f9400060 	ldr	x0, [x3]
     e90:	93407f21 	sxtw	x1, w25
     e94:	f9000001 	str	x1, [x0]
     e98:	17ffff0b 	b	ac4 <kprintf.constprop.0+0x70>
/home/avees/Linux_for_Tegra/sources/tegra/optee-src/nv-optee/optee/optee_os/lib/libutils/ext/snprintk.c:400
     e9c:	3747ff15 	tbnz	w21, #8, e7c <kprintf.constprop.0+0x428>
/home/avees/Linux_for_Tegra/sources/tegra/optee-src/nv-optee/optee/optee_os/lib/libutils/ext/snprintk.c:402
     ea0:	374ffef5 	tbnz	w21, #9, e7c <kprintf.constprop.0+0x428>
/home/avees/Linux_for_Tegra/sources/tegra/optee-src/nv-optee/optee/optee_os/lib/libutils/ext/snprintk.c:404
     ea4:	372ffed5 	tbnz	w21, #5, e7c <kprintf.constprop.0+0x428>
/home/avees/Linux_for_Tegra/sources/tegra/optee-src/nv-optee/optee/optee_os/lib/libutils/ext/snprintk.c:406
     ea8:	3727feb5 	tbnz	w21, #4, e7c <kprintf.constprop.0+0x428>
/home/avees/Linux_for_Tegra/sources/tegra/optee-src/nv-optee/optee/optee_os/lib/libutils/ext/snprintk.c:408
     eac:	36300355 	tbz	w21, #6, f14 <kprintf.constprop.0+0x4c0>
/home/avees/Linux_for_Tegra/sources/tegra/optee-src/nv-optee/optee/optee_os/lib/libutils/ext/snprintk.c:409
     eb0:	37f80204 	tbnz	w4, #31, ef0 <kprintf.constprop.0+0x49c>
     eb4:	91003c73 	add	x19, x3, #0xf
     eb8:	2a0403f4 	mov	w20, w4
     ebc:	927df273 	and	x19, x19, #0xfffffffffffffff8
     ec0:	f9400060 	ldr	x0, [x3]
     ec4:	79000019 	strh	w25, [x0]
     ec8:	17fffeff 	b	ac4 <kprintf.constprop.0+0x70>
/home/avees/Linux_for_Tegra/sources/tegra/optee-src/nv-optee/optee/optee_os/lib/libutils/ext/snprintk.c:407
     ecc:	11002094 	add	w20, w4, #0x8
     ed0:	7100029f 	cmp	w20, #0x0
     ed4:	5400008d 	b.le	ee4 <kprintf.constprop.0+0x490>
     ed8:	91003c73 	add	x19, x3, #0xf
     edc:	927df273 	and	x19, x19, #0xfffffffffffffff8
     ee0:	17ffffeb 	b	e8c <kprintf.constprop.0+0x438>
     ee4:	aa0303f3 	mov	x19, x3
     ee8:	8b24c343 	add	x3, x26, w4, sxtw
     eec:	17ffffe8 	b	e8c <kprintf.constprop.0+0x438>
/home/avees/Linux_for_Tegra/sources/tegra/optee-src/nv-optee/optee/optee_os/lib/libutils/ext/snprintk.c:409
     ef0:	11002094 	add	w20, w4, #0x8
     ef4:	7100029f 	cmp	w20, #0x0
     ef8:	5400008d 	b.le	f08 <kprintf.constprop.0+0x4b4>
     efc:	91003c73 	add	x19, x3, #0xf
     f00:	927df273 	and	x19, x19, #0xfffffffffffffff8
     f04:	17ffffef 	b	ec0 <kprintf.constprop.0+0x46c>
     f08:	aa0303f3 	mov	x19, x3
     f0c:	8b24c343 	add	x3, x26, w4, sxtw
     f10:	17ffffec 	b	ec0 <kprintf.constprop.0+0x46c>
/home/avees/Linux_for_Tegra/sources/tegra/optee-src/nv-optee/optee/optee_os/lib/libutils/ext/snprintk.c:411
     f14:	37f800e4 	tbnz	w4, #31, f30 <kprintf.constprop.0+0x4dc>
     f18:	91003c73 	add	x19, x3, #0xf
     f1c:	2a0403f4 	mov	w20, w4
     f20:	927df273 	and	x19, x19, #0xfffffffffffffff8
     f24:	f9400060 	ldr	x0, [x3]
     f28:	b9000019 	str	w25, [x0]
     f2c:	17fffee6 	b	ac4 <kprintf.constprop.0+0x70>
     f30:	11002094 	add	w20, w4, #0x8
     f34:	7100029f 	cmp	w20, #0x0
     f38:	5400008d 	b.le	f48 <kprintf.constprop.0+0x4f4>
     f3c:	91003c73 	add	x19, x3, #0xf
     f40:	927df273 	and	x19, x19, #0xfffffffffffffff8
     f44:	17fffff8 	b	f24 <kprintf.constprop.0+0x4d0>
     f48:	aa0303f3 	mov	x19, x3
     f4c:	8b24c343 	add	x3, x26, w4, sxtw
     f50:	17fffff5 	b	f24 <kprintf.constprop.0+0x4d0>
/home/avees/Linux_for_Tegra/sources/tegra/optee-src/nv-optee/optee/optee_os/lib/libutils/ext/snprintk.c:414
     f54:	321c02b5 	orr	w21, w21, #0x10
/home/avees/Linux_for_Tegra/sources/tegra/optee-src/nv-optee/optee/optee_os/lib/libutils/ext/snprintk.c:417
     f58:	36380355 	tbz	w21, #7, fc0 <kprintf.constprop.0+0x56c>
     f5c:	37f80484 	tbnz	w4, #31, fec <kprintf.constprop.0+0x598>
     f60:	91003c73 	add	x19, x3, #0xf
     f64:	2a0403f4 	mov	w20, w4
     f68:	927df273 	and	x19, x19, #0xfffffffffffffff8
     f6c:	f9400062 	ldr	x2, [x3]
/home/avees/Linux_for_Tegra/sources/tegra/optee-src/nv-optee/optee/optee_os/lib/libutils/ext/snprintk.c:494
     f70:	310004bf 	cmn	w5, #0x1
     f74:	52800001 	mov	w1, #0x0                   	// #0
     f78:	54002b01 	b.ne	14d8 <kprintf.constprop.0+0xa84>  // b.any
/home/avees/Linux_for_Tegra/sources/tegra/optee-src/nv-optee/optee/optee_os/lib/libutils/ext/snprintk.c:502
     f7c:	91009583 	add	x3, x12, #0x25
/home/avees/Linux_for_Tegra/sources/tegra/optee-src/nv-optee/optee/optee_os/lib/libutils/ext/snprintk.c:512
     f80:	12000840 	and	w0, w2, #0x7
     f84:	aa0303e4 	mov	x4, x3
     f88:	1100c000 	add	w0, w0, #0x30
     f8c:	381ffc60 	strb	w0, [x3, #-1]!
/home/avees/Linux_for_Tegra/sources/tegra/optee-src/nv-optee/optee/optee_os/lib/libutils/ext/snprintk.c:513
     f90:	d343fc42 	lsr	x2, x2, #3
/home/avees/Linux_for_Tegra/sources/tegra/optee-src/nv-optee/optee/optee_os/lib/libutils/ext/snprintk.c:514
     f94:	b5ffff62 	cbnz	x2, f80 <kprintf.constprop.0+0x52c>
/home/avees/Linux_for_Tegra/sources/tegra/optee-src/nv-optee/optee/optee_os/lib/libutils/ext/snprintk.c:516
     f98:	360000d5 	tbz	w21, #0, fb0 <kprintf.constprop.0+0x55c>
     f9c:	7100c01f 	cmp	w0, #0x30
     fa0:	54000080 	b.eq	fb0 <kprintf.constprop.0+0x55c>  // b.none
/home/avees/Linux_for_Tegra/sources/tegra/optee-src/nv-optee/optee/optee_os/lib/libutils/ext/snprintk.c:517
     fa4:	52800600 	mov	w0, #0x30                  	// #48
     fa8:	381ff060 	sturb	w0, [x3, #-1]
     fac:	d1000883 	sub	x3, x4, #0x2
/home/avees/Linux_for_Tegra/sources/tegra/optee-src/nv-optee/optee/optee_os/lib/libutils/ext/snprintk.c:543
     fb0:	91009580 	add	x0, x12, #0x25
     fb4:	2a0503e6 	mov	w6, w5
     fb8:	4b030005 	sub	w5, w0, w3
     fbc:	1400005b 	b	1128 <kprintf.constprop.0+0x6d4>
/home/avees/Linux_for_Tegra/sources/tegra/optee-src/nv-optee/optee/optee_os/lib/libutils/ext/snprintk.c:417
     fc0:	3747fcf5 	tbnz	w21, #8, f5c <kprintf.constprop.0+0x508>
     fc4:	374ffcd5 	tbnz	w21, #9, f5c <kprintf.constprop.0+0x508>
     fc8:	372ffcb5 	tbnz	w21, #5, f5c <kprintf.constprop.0+0x508>
     fcc:	3727fc95 	tbnz	w21, #4, f5c <kprintf.constprop.0+0x508>
     fd0:	36300335 	tbz	w21, #6, 1034 <kprintf.constprop.0+0x5e0>
     fd4:	37f801e4 	tbnz	w4, #31, 1010 <kprintf.constprop.0+0x5bc>
     fd8:	91002c73 	add	x19, x3, #0xb
     fdc:	2a0403f4 	mov	w20, w4
     fe0:	927df273 	and	x19, x19, #0xfffffffffffffff8
     fe4:	79400062 	ldrh	w2, [x3]
     fe8:	17ffffe2 	b	f70 <kprintf.constprop.0+0x51c>
     fec:	11002094 	add	w20, w4, #0x8
     ff0:	7100029f 	cmp	w20, #0x0
     ff4:	5400008d 	b.le	1004 <kprintf.constprop.0+0x5b0>
     ff8:	91003c73 	add	x19, x3, #0xf
     ffc:	927df273 	and	x19, x19, #0xfffffffffffffff8
    1000:	17ffffdb 	b	f6c <kprintf.constprop.0+0x518>
    1004:	aa0303f3 	mov	x19, x3
    1008:	8b24c343 	add	x3, x26, w4, sxtw
    100c:	17ffffd8 	b	f6c <kprintf.constprop.0+0x518>
    1010:	11002094 	add	w20, w4, #0x8
    1014:	7100029f 	cmp	w20, #0x0
    1018:	5400008d 	b.le	1028 <kprintf.constprop.0+0x5d4>
    101c:	91002c73 	add	x19, x3, #0xb
    1020:	927df273 	and	x19, x19, #0xfffffffffffffff8
    1024:	17fffff0 	b	fe4 <kprintf.constprop.0+0x590>
    1028:	aa0303f3 	mov	x19, x3
    102c:	8b24c343 	add	x3, x26, w4, sxtw
    1030:	17ffffed 	b	fe4 <kprintf.constprop.0+0x590>
    1034:	37f800c4 	tbnz	w4, #31, 104c <kprintf.constprop.0+0x5f8>
    1038:	91002c73 	add	x19, x3, #0xb
    103c:	2a0403f4 	mov	w20, w4
    1040:	927df273 	and	x19, x19, #0xfffffffffffffff8
    1044:	b9400062 	ldr	w2, [x3]
    1048:	17ffffca 	b	f70 <kprintf.constprop.0+0x51c>
    104c:	11002094 	add	w20, w4, #0x8
    1050:	7100029f 	cmp	w20, #0x0
    1054:	5400008d 	b.le	1064 <kprintf.constprop.0+0x610>
    1058:	91002c73 	add	x19, x3, #0xb
    105c:	927df273 	and	x19, x19, #0xfffffffffffffff8
    1060:	17fffff9 	b	1044 <kprintf.constprop.0+0x5f0>
    1064:	aa0303f3 	mov	x19, x3
    1068:	8b24c343 	add	x3, x26, w4, sxtw
    106c:	17fffff6 	b	1044 <kprintf.constprop.0+0x5f0>
/home/avees/Linux_for_Tegra/sources/tegra/optee-src/nv-optee/optee/optee_os/lib/libutils/ext/snprintk.c:421
    1070:	b940a3e0 	ldr	w0, [sp, #160]
    1074:	34000c80 	cbz	w0, 1204 <kprintf.constprop.0+0x7b0>
    1078:	39400360 	ldrb	w0, [x27]
    107c:	7101541f 	cmp	w0, #0x55
    1080:	54000c21 	b.ne	1204 <kprintf.constprop.0+0x7b0>  // b.any
    1084:	39400760 	ldrb	w0, [x27, #1]
    1088:	7101b01f 	cmp	w0, #0x6c
    108c:	54000bc1 	b.ne	1204 <kprintf.constprop.0+0x7b0>  // b.any
/home/avees/Linux_for_Tegra/sources/tegra/optee-src/nv-optee/optee/optee_os/lib/libutils/ext/snprintk.c:426
    1090:	91000b7b 	add	x27, x27, #0x2
/home/avees/Linux_for_Tegra/sources/tegra/optee-src/nv-optee/optee/optee_os/lib/libutils/ext/snprintk.c:427
    1094:	37f80a64 	tbnz	w4, #31, 11e0 <kprintf.constprop.0+0x78c>
    1098:	91003c73 	add	x19, x3, #0xf
    109c:	2a0403f4 	mov	w20, w4
    10a0:	927df273 	and	x19, x19, #0xfffffffffffffff8
    10a4:	f9400060 	ldr	x0, [x3]
uuid2str():
/home/avees/Linux_for_Tegra/sources/tegra/optee-src/nv-optee/optee/optee_os/lib/libutils/ext/snprintk.c:229
    10a8:	90000082 	adrp	x2, 11000 <__text_end+0x28e4>
    10ac:	91398842 	add	x2, x2, #0xe62
    10b0:	f9004fec 	str	x12, [sp, #152]
    10b4:	b900a7ea 	str	w10, [sp, #164]
    10b8:	39403c01 	ldrb	w1, [x0, #15]
    10bc:	39402006 	ldrb	w6, [x0, #8]
    10c0:	79400c05 	ldrh	w5, [x0, #6]
    10c4:	39402407 	ldrb	w7, [x0, #9]
    10c8:	79400804 	ldrh	w4, [x0, #4]
    10cc:	b9002be1 	str	w1, [sp, #40]
    10d0:	f90057e8 	str	x8, [sp, #168]
    10d4:	39403801 	ldrb	w1, [x0, #14]
    10d8:	b90023e1 	str	w1, [sp, #32]
    10dc:	39403401 	ldrb	w1, [x0, #13]
    10e0:	b9001be1 	str	w1, [sp, #24]
    10e4:	39403001 	ldrb	w1, [x0, #12]
    10e8:	b90013e1 	str	w1, [sp, #16]
    10ec:	39402c01 	ldrb	w1, [x0, #11]
    10f0:	b9000be1 	str	w1, [sp, #8]
    10f4:	39402801 	ldrb	w1, [x0, #10]
    10f8:	b90003e1 	str	w1, [sp]
    10fc:	d28004a1 	mov	x1, #0x25                  	// #37
    1100:	b9400003 	ldr	w3, [x0]
    1104:	aa0c03e0 	mov	x0, x12
    1108:	97fffe20 	bl	988 <snprintk>
    110c:	2a0003e5 	mov	w5, w0
kprintf():
/home/avees/Linux_for_Tegra/sources/tegra/optee-src/nv-optee/optee/optee_os/lib/libutils/ext/snprintk.c:429
    1110:	f9404fec 	ldr	x12, [sp, #152]
/home/avees/Linux_for_Tegra/sources/tegra/optee-src/nv-optee/optee/optee_os/lib/libutils/ext/snprintk.c:291
    1114:	52800006 	mov	w6, #0x0                   	// #0
/home/avees/Linux_for_Tegra/sources/tegra/optee-src/nv-optee/optee/optee_os/lib/libutils/ext/snprintk.c:431
    1118:	b940a7ea 	ldr	w10, [sp, #164]
/home/avees/Linux_for_Tegra/sources/tegra/optee-src/nv-optee/optee/optee_os/lib/libutils/ext/snprintk.c:430
    111c:	52800001 	mov	w1, #0x0                   	// #0
/home/avees/Linux_for_Tegra/sources/tegra/optee-src/nv-optee/optee/optee_os/lib/libutils/ext/snprintk.c:431
    1120:	f94057e8 	ldr	x8, [sp, #168]
/home/avees/Linux_for_Tegra/sources/tegra/optee-src/nv-optee/optee/optee_os/lib/libutils/ext/snprintk.c:429
    1124:	aa0c03e3 	mov	x3, x12
/home/avees/Linux_for_Tegra/sources/tegra/optee-src/nv-optee/optee/optee_os/lib/libutils/ext/snprintk.c:571
    1128:	6b0500df 	cmp	w6, w5
    112c:	1a85a0c4 	csel	w4, w6, w5, ge  // ge = tcont
/home/avees/Linux_for_Tegra/sources/tegra/optee-src/nv-optee/optee/optee_os/lib/libutils/ext/snprintk.c:572
    1130:	340020c1 	cbz	w1, 1548 <kprintf.constprop.0+0xaf4>
/home/avees/Linux_for_Tegra/sources/tegra/optee-src/nv-optee/optee/optee_os/lib/libutils/ext/snprintk.c:573
    1134:	11000484 	add	w4, w4, #0x1
/home/avees/Linux_for_Tegra/sources/tegra/optee-src/nv-optee/optee/optee_os/lib/libutils/ext/snprintk.c:578
    1138:	6b0a009f 	cmp	w4, w10
    113c:	1a8aa080 	csel	w0, w4, w10, ge  // ge = tcont
    1140:	0b000339 	add	w25, w25, w0
/home/avees/Linux_for_Tegra/sources/tegra/optee-src/nv-optee/optee/optee_os/lib/libutils/ext/snprintk.c:581
    1144:	52808080 	mov	w0, #0x404                 	// #1028
    1148:	6a0002a0 	ands	w0, w21, w0
    114c:	540000a1 	b.ne	1160 <kprintf.constprop.0+0x70c>  // b.any
/home/avees/Linux_for_Tegra/sources/tegra/optee-src/nv-optee/optee/optee_os/lib/libutils/ext/snprintk.c:582
    1150:	4b040147 	sub	w7, w10, w4
/home/avees/Linux_for_Tegra/sources/tegra/optee-src/nv-optee/optee/optee_os/lib/libutils/ext/snprintk.c:584
    1154:	52800402 	mov	w2, #0x20                  	// #32
/home/avees/Linux_for_Tegra/sources/tegra/optee-src/nv-optee/optee/optee_os/lib/libutils/ext/snprintk.c:583
    1158:	710000ff 	cmp	w7, #0x0
    115c:	54001fcc 	b.gt	1554 <kprintf.constprop.0+0xb00>
/home/avees/Linux_for_Tegra/sources/tegra/optee-src/nv-optee/optee/optee_os/lib/libutils/ext/snprintk.c:588
    1160:	34002081 	cbz	w1, 1570 <kprintf.constprop.0+0xb1c>
/home/avees/Linux_for_Tegra/sources/tegra/optee-src/nv-optee/optee/optee_os/lib/libutils/ext/snprintk.c:589
    1164:	b40000b6 	cbz	x22, 1178 <kprintf.constprop.0+0x724>
    1168:	f100011f 	cmp	x8, #0x0
    116c:	fa561302 	ccmp	x24, x22, #0x2, ne  // ne = any
    1170:	54000049 	b.ls	1178 <kprintf.constprop.0+0x724>  // b.plast
    1174:	380016c1 	strb	w1, [x22], #1
/home/avees/Linux_for_Tegra/sources/tegra/optee-src/nv-optee/optee/optee_os/lib/libutils/ext/snprintk.c:596
    1178:	7110001f 	cmp	w0, #0x400
    117c:	540000a1 	b.ne	1190 <kprintf.constprop.0+0x73c>  // b.any
/home/avees/Linux_for_Tegra/sources/tegra/optee-src/nv-optee/optee/optee_os/lib/libutils/ext/snprintk.c:597
    1180:	4b040140 	sub	w0, w10, w4
/home/avees/Linux_for_Tegra/sources/tegra/optee-src/nv-optee/optee/optee_os/lib/libutils/ext/snprintk.c:599
    1184:	52800601 	mov	w1, #0x30                  	// #48
/home/avees/Linux_for_Tegra/sources/tegra/optee-src/nv-optee/optee/optee_os/lib/libutils/ext/snprintk.c:598
    1188:	7100001f 	cmp	w0, #0x0
    118c:	5400216c 	b.gt	15b8 <kprintf.constprop.0+0xb64>
/home/avees/Linux_for_Tegra/sources/tegra/optee-src/nv-optee/optee/optee_os/lib/libutils/ext/snprintk.c:603
    1190:	4b0500c6 	sub	w6, w6, w5
/home/avees/Linux_for_Tegra/sources/tegra/optee-src/nv-optee/optee/optee_os/lib/libutils/ext/snprintk.c:605
    1194:	52800600 	mov	w0, #0x30                  	// #48
/home/avees/Linux_for_Tegra/sources/tegra/optee-src/nv-optee/optee/optee_os/lib/libutils/ext/snprintk.c:604
    1198:	710000df 	cmp	w6, #0x0
    119c:	540021cc 	b.gt	15d4 <kprintf.constprop.0+0xb80>
    11a0:	2a0503e5 	mov	w5, w5
    11a4:	d2800001 	mov	x1, #0x0                   	// #0
/home/avees/Linux_for_Tegra/sources/tegra/optee-src/nv-optee/optee/optee_os/lib/libutils/ext/snprintk.c:608
    11a8:	eb05003f 	cmp	x1, x5
    11ac:	54002221 	b.ne	15f0 <kprintf.constprop.0+0xb9c>  // b.any
/home/avees/Linux_for_Tegra/sources/tegra/optee-src/nv-optee/optee/optee_os/lib/libutils/ext/snprintk.c:611
    11b0:	3617c8b5 	tbz	w21, #2, ac4 <kprintf.constprop.0+0x70>
/home/avees/Linux_for_Tegra/sources/tegra/optee-src/nv-optee/optee/optee_os/lib/libutils/ext/snprintk.c:612
    11b4:	4b04014a 	sub	w10, w10, w4
/home/avees/Linux_for_Tegra/sources/tegra/optee-src/nv-optee/optee/optee_os/lib/libutils/ext/snprintk.c:614
    11b8:	52800400 	mov	w0, #0x20                  	// #32
/home/avees/Linux_for_Tegra/sources/tegra/optee-src/nv-optee/optee/optee_os/lib/libutils/ext/snprintk.c:613
    11bc:	7100015f 	cmp	w10, #0x0
    11c0:	54ffc82d 	b.le	ac4 <kprintf.constprop.0+0x70>
/home/avees/Linux_for_Tegra/sources/tegra/optee-src/nv-optee/optee/optee_os/lib/libutils/ext/snprintk.c:614
    11c4:	b40000b6 	cbz	x22, 11d8 <kprintf.constprop.0+0x784>
    11c8:	f100011f 	cmp	x8, #0x0
    11cc:	fa561302 	ccmp	x24, x22, #0x2, ne  // ne = any
    11d0:	54000049 	b.ls	11d8 <kprintf.constprop.0+0x784>  // b.plast
    11d4:	380016c0 	strb	w0, [x22], #1
    11d8:	5100054a 	sub	w10, w10, #0x1
    11dc:	17fffff8 	b	11bc <kprintf.constprop.0+0x768>
/home/avees/Linux_for_Tegra/sources/tegra/optee-src/nv-optee/optee/optee_os/lib/libutils/ext/snprintk.c:427
    11e0:	11002094 	add	w20, w4, #0x8
    11e4:	7100029f 	cmp	w20, #0x0
    11e8:	5400008d 	b.le	11f8 <kprintf.constprop.0+0x7a4>
    11ec:	91003c73 	add	x19, x3, #0xf
    11f0:	927df273 	and	x19, x19, #0xfffffffffffffff8
    11f4:	17ffffac 	b	10a4 <kprintf.constprop.0+0x650>
    11f8:	aa0303f3 	mov	x19, x3
    11fc:	8b24c343 	add	x3, x26, w4, sxtw
    1200:	17ffffa9 	b	10a4 <kprintf.constprop.0+0x650>
/home/avees/Linux_for_Tegra/sources/tegra/optee-src/nv-optee/optee/optee_os/lib/libutils/ext/snprintk.c:441
    1204:	37f801e4 	tbnz	w4, #31, 1240 <kprintf.constprop.0+0x7ec>
    1208:	91003c73 	add	x19, x3, #0xf
    120c:	2a0403f4 	mov	w20, w4
    1210:	927df273 	and	x19, x19, #0xfffffffffffffff8
/home/avees/Linux_for_Tegra/sources/tegra/optee-src/nv-optee/optee/optee_os/lib/libutils/ext/snprintk.c:443
    1214:	90000097 	adrp	x23, 11000 <__text_end+0x28e4>
    1218:	91216af7 	add	x23, x23, #0x85a
/home/avees/Linux_for_Tegra/sources/tegra/optee-src/nv-optee/optee/optee_os/lib/libutils/ext/snprintk.c:441
    121c:	f9400062 	ldr	x2, [x3]
/home/avees/Linux_for_Tegra/sources/tegra/optee-src/nv-optee/optee/optee_os/lib/libutils/ext/snprintk.c:444
    1220:	321f02b5 	orr	w21, w21, #0x2
/home/avees/Linux_for_Tegra/sources/tegra/optee-src/nv-optee/optee/optee_os/lib/libutils/ext/snprintk.c:443
    1224:	910046f7 	add	x23, x23, #0x11
/home/avees/Linux_for_Tegra/sources/tegra/optee-src/nv-optee/optee/optee_os/lib/libutils/ext/snprintk.c:445
    1228:	52800f1c 	mov	w28, #0x78                  	// #120
/home/avees/Linux_for_Tegra/sources/tegra/optee-src/nv-optee/optee/optee_os/lib/libutils/ext/snprintk.c:494
    122c:	310004bf 	cmn	w5, #0x1
    1230:	52800001 	mov	w1, #0x0                   	// #0
    1234:	54ffdbc0 	b.eq	dac <kprintf.constprop.0+0x358>  // b.none
    1238:	52800040 	mov	w0, #0x2                   	// #2
    123c:	140000a8 	b	14dc <kprintf.constprop.0+0xa88>
/home/avees/Linux_for_Tegra/sources/tegra/optee-src/nv-optee/optee/optee_os/lib/libutils/ext/snprintk.c:441
    1240:	11002094 	add	w20, w4, #0x8
    1244:	7100029f 	cmp	w20, #0x0
    1248:	5400008d 	b.le	1258 <kprintf.constprop.0+0x804>
    124c:	91003c73 	add	x19, x3, #0xf
    1250:	927df273 	and	x19, x19, #0xfffffffffffffff8
    1254:	17fffff0 	b	1214 <kprintf.constprop.0+0x7c0>
    1258:	aa0303f3 	mov	x19, x3
    125c:	8b24c343 	add	x3, x26, w4, sxtw
    1260:	17ffffed 	b	1214 <kprintf.constprop.0+0x7c0>
/home/avees/Linux_for_Tegra/sources/tegra/optee-src/nv-optee/optee/optee_os/lib/libutils/ext/snprintk.c:448
    1264:	37f80364 	tbnz	w4, #31, 12d0 <kprintf.constprop.0+0x87c>
    1268:	91003c73 	add	x19, x3, #0xf
    126c:	2a0403f4 	mov	w20, w4
    1270:	927df273 	and	x19, x19, #0xfffffffffffffff8
    1274:	f9400063 	ldr	x3, [x3]
    1278:	b5000063 	cbnz	x3, 1284 <kprintf.constprop.0+0x830>
/home/avees/Linux_for_Tegra/sources/tegra/optee-src/nv-optee/optee/optee_os/lib/libutils/ext/snprintk.c:450
    127c:	90000083 	adrp	x3, 11000 <__text_end+0x28e4>
    1280:	91396c63 	add	x3, x3, #0xe5b
/home/avees/Linux_for_Tegra/sources/tegra/optee-src/nv-optee/optee/optee_os/lib/libutils/ext/snprintk.c:451
    1284:	310004bf 	cmn	w5, #0x1
    1288:	54000360 	b.eq	12f4 <kprintf.constprop.0+0x8a0>  // b.none
/home/avees/Linux_for_Tegra/sources/tegra/optee-src/nv-optee/optee/optee_os/lib/libutils/ext/snprintk.c:457
    128c:	93407ca2 	sxtw	x2, w5
    1290:	aa0303e0 	mov	x0, x3
    1294:	52800001 	mov	w1, #0x0                   	// #0
    1298:	f9004fe3 	str	x3, [sp, #152]
    129c:	2914abe5 	stp	w5, w10, [sp, #164]
    12a0:	a90b33e8 	stp	x8, x12, [sp, #176]
    12a4:	940000f7 	bl	1680 <memchr>
/home/avees/Linux_for_Tegra/sources/tegra/optee-src/nv-optee/optee/optee_os/lib/libutils/ext/snprintk.c:459
    12a8:	2954abe5 	ldp	w5, w10, [sp, #164]
    12ac:	f9404fe3 	ldr	x3, [sp, #152]
    12b0:	a94b33e8 	ldp	x8, x12, [sp, #176]
    12b4:	b4000080 	cbz	x0, 12c4 <kprintf.constprop.0+0x870>
/home/avees/Linux_for_Tegra/sources/tegra/optee-src/nv-optee/optee/optee_os/lib/libutils/ext/snprintk.c:460
    12b8:	cb030000 	sub	x0, x0, x3
    12bc:	6b0000bf 	cmp	w5, w0
    12c0:	1a80d0a5 	csel	w5, w5, w0, le
/home/avees/Linux_for_Tegra/sources/tegra/optee-src/nv-optee/optee/optee_os/lib/libutils/ext/snprintk.c:291
    12c4:	52800006 	mov	w6, #0x0                   	// #0
/home/avees/Linux_for_Tegra/sources/tegra/optee-src/nv-optee/optee/optee_os/lib/libutils/ext/snprintk.c:467
    12c8:	52800001 	mov	w1, #0x0                   	// #0
    12cc:	17ffff97 	b	1128 <kprintf.constprop.0+0x6d4>
/home/avees/Linux_for_Tegra/sources/tegra/optee-src/nv-optee/optee/optee_os/lib/libutils/ext/snprintk.c:448
    12d0:	11002094 	add	w20, w4, #0x8
    12d4:	7100029f 	cmp	w20, #0x0
    12d8:	5400008d 	b.le	12e8 <kprintf.constprop.0+0x894>
    12dc:	91003c73 	add	x19, x3, #0xf
    12e0:	927df273 	and	x19, x19, #0xfffffffffffffff8
    12e4:	17ffffe4 	b	1274 <kprintf.constprop.0+0x820>
    12e8:	aa0303f3 	mov	x19, x3
    12ec:	8b24c343 	add	x3, x26, w4, sxtw
    12f0:	17ffffe1 	b	1274 <kprintf.constprop.0+0x820>
/home/avees/Linux_for_Tegra/sources/tegra/optee-src/nv-optee/optee/optee_os/lib/libutils/ext/snprintk.c:466
    12f4:	aa0303e0 	mov	x0, x3
    12f8:	f9004fe3 	str	x3, [sp, #152]
    12fc:	b900a7ea 	str	w10, [sp, #164]
    1300:	a90ab3e8 	stp	x8, x12, [sp, #168]
    1304:	940000ea 	bl	16ac <strlen>
    1308:	b940a7ea 	ldr	w10, [sp, #164]
    130c:	2a0003e5 	mov	w5, w0
/home/avees/Linux_for_Tegra/sources/tegra/optee-src/nv-optee/optee/optee_os/lib/libutils/ext/snprintk.c:291
    1310:	52800006 	mov	w6, #0x0                   	// #0
/home/avees/Linux_for_Tegra/sources/tegra/optee-src/nv-optee/optee/optee_os/lib/libutils/ext/snprintk.c:467
    1314:	52800001 	mov	w1, #0x0                   	// #0
    1318:	f9404fe3 	ldr	x3, [sp, #152]
    131c:	a94ab3e8 	ldp	x8, x12, [sp, #168]
    1320:	17ffff82 	b	1128 <kprintf.constprop.0+0x6d4>
/home/avees/Linux_for_Tegra/sources/tegra/optee-src/nv-optee/optee/optee_os/lib/libutils/ext/snprintk.c:470
    1324:	321c02b5 	orr	w21, w21, #0x10
/home/avees/Linux_for_Tegra/sources/tegra/optee-src/nv-optee/optee/optee_os/lib/libutils/ext/snprintk.c:473
    1328:	36380235 	tbz	w21, #7, 136c <kprintf.constprop.0+0x918>
    132c:	37f80364 	tbnz	w4, #31, 1398 <kprintf.constprop.0+0x944>
    1330:	91003c73 	add	x19, x3, #0xf
    1334:	2a0403f4 	mov	w20, w4
    1338:	927df273 	and	x19, x19, #0xfffffffffffffff8
    133c:	f9400062 	ldr	x2, [x3]
/home/avees/Linux_for_Tegra/sources/tegra/optee-src/nv-optee/optee/optee_os/lib/libutils/ext/snprintk.c:488
    1340:	52800001 	mov	w1, #0x0                   	// #0
/home/avees/Linux_for_Tegra/sources/tegra/optee-src/nv-optee/optee/optee_os/lib/libutils/ext/snprintk.c:494
    1344:	310004bf 	cmn	w5, #0x1
    1348:	54000d81 	b.ne	14f8 <kprintf.constprop.0+0xaa4>  // b.any
/home/avees/Linux_for_Tegra/sources/tegra/optee-src/nv-optee/optee/optee_os/lib/libutils/ext/snprintk.c:502
    134c:	91009580 	add	x0, x12, #0x25
/home/avees/Linux_for_Tegra/sources/tegra/optee-src/nv-optee/optee/optee_os/lib/libutils/ext/snprintk.c:523
    1350:	d2800144 	mov	x4, #0xa                   	// #10
/home/avees/Linux_for_Tegra/sources/tegra/optee-src/nv-optee/optee/optee_os/lib/libutils/ext/snprintk.c:522
    1354:	d1000403 	sub	x3, x0, #0x1
    1358:	f100245f 	cmp	x2, #0x9
    135c:	54000d28 	b.hi	1500 <kprintf.constprop.0+0xaac>  // b.pmore
/home/avees/Linux_for_Tegra/sources/tegra/optee-src/nv-optee/optee/optee_os/lib/libutils/ext/snprintk.c:526
    1360:	1100c042 	add	w2, w2, #0x30
    1364:	381ff002 	sturb	w2, [x0, #-1]
/home/avees/Linux_for_Tegra/sources/tegra/optee-src/nv-optee/optee/optee_os/lib/libutils/ext/snprintk.c:527
    1368:	17ffff12 	b	fb0 <kprintf.constprop.0+0x55c>
/home/avees/Linux_for_Tegra/sources/tegra/optee-src/nv-optee/optee/optee_os/lib/libutils/ext/snprintk.c:473
    136c:	3747fe15 	tbnz	w21, #8, 132c <kprintf.constprop.0+0x8d8>
    1370:	374ffdf5 	tbnz	w21, #9, 132c <kprintf.constprop.0+0x8d8>
    1374:	372ffdd5 	tbnz	w21, #5, 132c <kprintf.constprop.0+0x8d8>
    1378:	3727fdb5 	tbnz	w21, #4, 132c <kprintf.constprop.0+0x8d8>
    137c:	36300335 	tbz	w21, #6, 13e0 <kprintf.constprop.0+0x98c>
    1380:	37f801e4 	tbnz	w4, #31, 13bc <kprintf.constprop.0+0x968>
    1384:	91002c73 	add	x19, x3, #0xb
    1388:	2a0403f4 	mov	w20, w4
    138c:	927df273 	and	x19, x19, #0xfffffffffffffff8
    1390:	79400062 	ldrh	w2, [x3]
    1394:	17ffffeb 	b	1340 <kprintf.constprop.0+0x8ec>
    1398:	11002094 	add	w20, w4, #0x8
    139c:	7100029f 	cmp	w20, #0x0
    13a0:	5400008d 	b.le	13b0 <kprintf.constprop.0+0x95c>
    13a4:	91003c73 	add	x19, x3, #0xf
    13a8:	927df273 	and	x19, x19, #0xfffffffffffffff8
    13ac:	17ffffe4 	b	133c <kprintf.constprop.0+0x8e8>
    13b0:	aa0303f3 	mov	x19, x3
    13b4:	8b24c343 	add	x3, x26, w4, sxtw
    13b8:	17ffffe1 	b	133c <kprintf.constprop.0+0x8e8>
    13bc:	11002094 	add	w20, w4, #0x8
    13c0:	7100029f 	cmp	w20, #0x0
    13c4:	5400008d 	b.le	13d4 <kprintf.constprop.0+0x980>
    13c8:	91002c73 	add	x19, x3, #0xb
    13cc:	927df273 	and	x19, x19, #0xfffffffffffffff8
    13d0:	17fffff0 	b	1390 <kprintf.constprop.0+0x93c>
    13d4:	aa0303f3 	mov	x19, x3
    13d8:	8b24c343 	add	x3, x26, w4, sxtw
    13dc:	17ffffed 	b	1390 <kprintf.constprop.0+0x93c>
    13e0:	37f800c4 	tbnz	w4, #31, 13f8 <kprintf.constprop.0+0x9a4>
    13e4:	91002c73 	add	x19, x3, #0xb
    13e8:	2a0403f4 	mov	w20, w4
    13ec:	927df273 	and	x19, x19, #0xfffffffffffffff8
    13f0:	b9400062 	ldr	w2, [x3]
    13f4:	17ffffd3 	b	1340 <kprintf.constprop.0+0x8ec>
    13f8:	11002094 	add	w20, w4, #0x8
    13fc:	7100029f 	cmp	w20, #0x0
    1400:	5400008d 	b.le	1410 <kprintf.constprop.0+0x9bc>
    1404:	91002c73 	add	x19, x3, #0xb
    1408:	927df273 	and	x19, x19, #0xfffffffffffffff8
    140c:	17fffff9 	b	13f0 <kprintf.constprop.0+0x99c>
    1410:	aa0303f3 	mov	x19, x3
    1414:	8b24c343 	add	x3, x26, w4, sxtw
    1418:	17fffff6 	b	13f0 <kprintf.constprop.0+0x99c>
/home/avees/Linux_for_Tegra/sources/tegra/optee-src/nv-optee/optee/optee_os/lib/libutils/ext/snprintk.c:477
    141c:	90000097 	adrp	x23, 11000 <__text_end+0x28e4>
    1420:	91216af7 	add	x23, x23, #0x85a
    1424:	17fffdd9 	b	b88 <kprintf.constprop.0+0x134>
/home/avees/Linux_for_Tegra/sources/tegra/optee-src/nv-optee/optee/optee_os/lib/libutils/ext/snprintk.c:481
    1428:	3747bb35 	tbnz	w21, #8, b8c <kprintf.constprop.0+0x138>
    142c:	374fbb15 	tbnz	w21, #9, b8c <kprintf.constprop.0+0x138>
    1430:	372fbaf5 	tbnz	w21, #5, b8c <kprintf.constprop.0+0x138>
    1434:	3727bad5 	tbnz	w21, #4, b8c <kprintf.constprop.0+0x138>
    1438:	36300335 	tbz	w21, #6, 149c <kprintf.constprop.0+0xa48>
    143c:	37f801e4 	tbnz	w4, #31, 1478 <kprintf.constprop.0+0xa24>
    1440:	91002c73 	add	x19, x3, #0xb
    1444:	2a0403f4 	mov	w20, w4
    1448:	927df273 	and	x19, x19, #0xfffffffffffffff8
    144c:	79400062 	ldrh	w2, [x3]
    1450:	17fffdd4 	b	ba0 <kprintf.constprop.0+0x14c>
    1454:	11002094 	add	w20, w4, #0x8
    1458:	7100029f 	cmp	w20, #0x0
    145c:	5400008d 	b.le	146c <kprintf.constprop.0+0xa18>
    1460:	91003c73 	add	x19, x3, #0xf
    1464:	927df273 	and	x19, x19, #0xfffffffffffffff8
    1468:	17fffdcd 	b	b9c <kprintf.constprop.0+0x148>
    146c:	aa0303f3 	mov	x19, x3
    1470:	8b24c343 	add	x3, x26, w4, sxtw
    1474:	17fffdca 	b	b9c <kprintf.constprop.0+0x148>
    1478:	11002094 	add	w20, w4, #0x8
    147c:	7100029f 	cmp	w20, #0x0
    1480:	5400008d 	b.le	1490 <kprintf.constprop.0+0xa3c>
    1484:	91002c73 	add	x19, x3, #0xb
    1488:	927df273 	and	x19, x19, #0xfffffffffffffff8
    148c:	17fffff0 	b	144c <kprintf.constprop.0+0x9f8>
    1490:	aa0303f3 	mov	x19, x3
    1494:	8b24c343 	add	x3, x26, w4, sxtw
    1498:	17ffffed 	b	144c <kprintf.constprop.0+0x9f8>
    149c:	37f800c4 	tbnz	w4, #31, 14b4 <kprintf.constprop.0+0xa60>
    14a0:	91002c73 	add	x19, x3, #0xb
    14a4:	2a0403f4 	mov	w20, w4
    14a8:	927df273 	and	x19, x19, #0xfffffffffffffff8
    14ac:	b9400062 	ldr	w2, [x3]
    14b0:	17fffdbc 	b	ba0 <kprintf.constprop.0+0x14c>
    14b4:	11002094 	add	w20, w4, #0x8
    14b8:	7100029f 	cmp	w20, #0x0
    14bc:	5400008d 	b.le	14cc <kprintf.constprop.0+0xa78>
    14c0:	91002c73 	add	x19, x3, #0xb
    14c4:	927df273 	and	x19, x19, #0xfffffffffffffff8
    14c8:	17fffff9 	b	14ac <kprintf.constprop.0+0xa58>
    14cc:	aa0303f3 	mov	x19, x3
    14d0:	8b24c343 	add	x3, x26, w4, sxtw
    14d4:	17fffff6 	b	14ac <kprintf.constprop.0+0xa58>
/home/avees/Linux_for_Tegra/sources/tegra/optee-src/nv-optee/optee/optee_os/lib/libutils/ext/snprintk.c:494
    14d8:	52800000 	mov	w0, #0x0                   	// #0
/home/avees/Linux_for_Tegra/sources/tegra/optee-src/nv-optee/optee/optee_os/lib/libutils/ext/snprintk.c:503
    14dc:	f100005f 	cmp	x2, #0x0
/home/avees/Linux_for_Tegra/sources/tegra/optee-src/nv-optee/optee/optee_os/lib/libutils/ext/snprintk.c:495
    14e0:	12157ab5 	and	w21, w21, #0xfffffbff
/home/avees/Linux_for_Tegra/sources/tegra/optee-src/nv-optee/optee/optee_os/lib/libutils/ext/snprintk.c:503
    14e4:	7a4008a0 	ccmp	w5, #0x0, #0x0, eq  // eq = none
    14e8:	54ffc5a1 	b.ne	d9c <kprintf.constprop.0+0x348>  // b.any
/home/avees/Linux_for_Tegra/sources/tegra/optee-src/nv-optee/optee/optee_os/lib/libutils/ext/snprintk.c:502
    14ec:	91009583 	add	x3, x12, #0x25
/home/avees/Linux_for_Tegra/sources/tegra/optee-src/nv-optee/optee/optee_os/lib/libutils/ext/snprintk.c:542
    14f0:	52800005 	mov	w5, #0x0                   	// #0
    14f4:	17fffeaf 	b	fb0 <kprintf.constprop.0+0x55c>
/home/avees/Linux_for_Tegra/sources/tegra/optee-src/nv-optee/optee/optee_os/lib/libutils/ext/snprintk.c:494
    14f8:	52800020 	mov	w0, #0x1                   	// #1
    14fc:	17fffff8 	b	14dc <kprintf.constprop.0+0xa88>
/home/avees/Linux_for_Tegra/sources/tegra/optee-src/nv-optee/optee/optee_os/lib/libutils/ext/snprintk.c:523
    1500:	9ac40846 	udiv	x6, x2, x4
    1504:	9b0488c2 	msub	x2, x6, x4, x2
    1508:	1100c042 	add	w2, w2, #0x30
    150c:	381ff002 	sturb	w2, [x0, #-1]
/home/avees/Linux_for_Tegra/sources/tegra/optee-src/nv-optee/optee/optee_os/lib/libutils/ext/snprintk.c:524
    1510:	aa0603e2 	mov	x2, x6
    1514:	aa0303e0 	mov	x0, x3
    1518:	17ffff8f 	b	1354 <kprintf.constprop.0+0x900>
/home/avees/Linux_for_Tegra/sources/tegra/optee-src/nv-optee/optee/optee_os/lib/libutils/ext/snprintk.c:547
    151c:	35ffb55c 	cbnz	w28, bc4 <kprintf.constprop.0+0x170>
/home/avees/Linux_for_Tegra/sources/tegra/optee-src/nv-optee/optee/optee_os/lib/libutils/ext/snprintk.c:619
    1520:	b4000048 	cbz	x8, 1528 <kprintf.constprop.0+0xad4>
/home/avees/Linux_for_Tegra/sources/tegra/optee-src/nv-optee/optee/optee_os/lib/libutils/ext/snprintk.c:620
    1524:	f9000116 	str	x22, [x8]
/home/avees/Linux_for_Tegra/sources/tegra/optee-src/nv-optee/optee/optee_os/lib/libutils/ext/snprintk.c:622
    1528:	d0000080 	adrp	x0, 13000 <_DYNAMIC>
    152c:	f9409800 	ldr	x0, [x0, #304]
    1530:	f94077e1 	ldr	x1, [sp, #232]
    1534:	f9400002 	ldr	x2, [x0]
    1538:	eb020021 	subs	x1, x1, x2
    153c:	d2800002 	mov	x2, #0x0                   	// #0
    1540:	54000680 	b.eq	1610 <kprintf.constprop.0+0xbbc>  // b.none
    1544:	97fffbf4 	bl	514 <__stack_chk_fail>
/home/avees/Linux_for_Tegra/sources/tegra/optee-src/nv-optee/optee/optee_os/lib/libutils/ext/snprintk.c:574
    1548:	360fdf95 	tbz	w21, #1, 1138 <kprintf.constprop.0+0x6e4>
/home/avees/Linux_for_Tegra/sources/tegra/optee-src/nv-optee/optee/optee_os/lib/libutils/ext/snprintk.c:575
    154c:	11000884 	add	w4, w4, #0x2
    1550:	17fffefa 	b	1138 <kprintf.constprop.0+0x6e4>
/home/avees/Linux_for_Tegra/sources/tegra/optee-src/nv-optee/optee/optee_os/lib/libutils/ext/snprintk.c:584
    1554:	b40000b6 	cbz	x22, 1568 <kprintf.constprop.0+0xb14>
    1558:	f100011f 	cmp	x8, #0x0
    155c:	fa561302 	ccmp	x24, x22, #0x2, ne  // ne = any
    1560:	54000049 	b.ls	1568 <kprintf.constprop.0+0xb14>  // b.plast
    1564:	380016c2 	strb	w2, [x22], #1
    1568:	510004e7 	sub	w7, w7, #0x1
    156c:	17fffefb 	b	1158 <kprintf.constprop.0+0x704>
/home/avees/Linux_for_Tegra/sources/tegra/optee-src/nv-optee/optee/optee_os/lib/libutils/ext/snprintk.c:590
    1570:	360fe055 	tbz	w21, #1, 1178 <kprintf.constprop.0+0x724>
/home/avees/Linux_for_Tegra/sources/tegra/optee-src/nv-optee/optee/optee_os/lib/libutils/ext/snprintk.c:591
    1574:	b4ffe036 	cbz	x22, 1178 <kprintf.constprop.0+0x724>
    1578:	f100011f 	cmp	x8, #0x0
    157c:	1a9f17e2 	cset	w2, eq  // eq = none
    1580:	7100005f 	cmp	w2, #0x0
    1584:	fa560302 	ccmp	x24, x22, #0x2, eq  // eq = none
    1588:	54ffdf89 	b.ls	1178 <kprintf.constprop.0+0x724>  // b.plast
    158c:	aa1603e1 	mov	x1, x22
    1590:	52800607 	mov	w7, #0x30                  	// #48
/home/avees/Linux_for_Tegra/sources/tegra/optee-src/nv-optee/optee/optee_os/lib/libutils/ext/snprintk.c:592
    1594:	7100005f 	cmp	w2, #0x0
/home/avees/Linux_for_Tegra/sources/tegra/optee-src/nv-optee/optee/optee_os/lib/libutils/ext/snprintk.c:591
    1598:	38001427 	strb	w7, [x1], #1
/home/avees/Linux_for_Tegra/sources/tegra/optee-src/nv-optee/optee/optee_os/lib/libutils/ext/snprintk.c:592
    159c:	fa410302 	ccmp	x24, x1, #0x2, eq  // eq = none
    15a0:	54000089 	b.ls	15b0 <kprintf.constprop.0+0xb5c>  // b.plast
    15a4:	91000ad6 	add	x22, x22, #0x2
    15a8:	381ff2dc 	sturb	w28, [x22, #-1]
    15ac:	17fffef3 	b	1178 <kprintf.constprop.0+0x724>
    15b0:	aa0103f6 	mov	x22, x1
    15b4:	17fffef1 	b	1178 <kprintf.constprop.0+0x724>
/home/avees/Linux_for_Tegra/sources/tegra/optee-src/nv-optee/optee/optee_os/lib/libutils/ext/snprintk.c:599
    15b8:	b40000b6 	cbz	x22, 15cc <kprintf.constprop.0+0xb78>
    15bc:	f100011f 	cmp	x8, #0x0
    15c0:	fa561302 	ccmp	x24, x22, #0x2, ne  // ne = any
    15c4:	54000049 	b.ls	15cc <kprintf.constprop.0+0xb78>  // b.plast
    15c8:	380016c1 	strb	w1, [x22], #1
    15cc:	51000400 	sub	w0, w0, #0x1
    15d0:	17fffeee 	b	1188 <kprintf.constprop.0+0x734>
/home/avees/Linux_for_Tegra/sources/tegra/optee-src/nv-optee/optee/optee_os/lib/libutils/ext/snprintk.c:605
    15d4:	b40000b6 	cbz	x22, 15e8 <kprintf.constprop.0+0xb94>
    15d8:	f100011f 	cmp	x8, #0x0
    15dc:	fa561302 	ccmp	x24, x22, #0x2, ne  // ne = any
    15e0:	54000049 	b.ls	15e8 <kprintf.constprop.0+0xb94>  // b.plast
    15e4:	380016c0 	strb	w0, [x22], #1
    15e8:	510004c6 	sub	w6, w6, #0x1
    15ec:	17fffeeb 	b	1198 <kprintf.constprop.0+0x744>
/home/avees/Linux_for_Tegra/sources/tegra/optee-src/nv-optee/optee/optee_os/lib/libutils/ext/snprintk.c:609
    15f0:	b40000d6 	cbz	x22, 1608 <kprintf.constprop.0+0xbb4>
    15f4:	f100011f 	cmp	x8, #0x0
    15f8:	fa561302 	ccmp	x24, x22, #0x2, ne  // ne = any
    15fc:	54000069 	b.ls	1608 <kprintf.constprop.0+0xbb4>  // b.plast
    1600:	38616860 	ldrb	w0, [x3, x1]
    1604:	380016c0 	strb	w0, [x22], #1
/home/avees/Linux_for_Tegra/sources/tegra/optee-src/nv-optee/optee/optee_os/lib/libutils/ext/snprintk.c:608
    1608:	91000421 	add	x1, x1, #0x1
    160c:	17fffee7 	b	11a8 <kprintf.constprop.0+0x754>
/home/avees/Linux_for_Tegra/sources/tegra/optee-src/nv-optee/optee/optee_os/lib/libutils/ext/snprintk.c:622
    1610:	2a1903e0 	mov	w0, w25
    1614:	a9437bfd 	ldp	x29, x30, [sp, #48]
    1618:	a94453f3 	ldp	x19, x20, [sp, #64]
    161c:	a9455bf5 	ldp	x21, x22, [sp, #80]
    1620:	a94663f7 	ldp	x23, x24, [sp, #96]
    1624:	a9476bf9 	ldp	x25, x26, [sp, #112]
    1628:	a94873fb 	ldp	x27, x28, [sp, #128]
    162c:	9103c3ff 	add	sp, sp, #0xf0
    1630:	d65f03c0 	ret

0000000000001634 <__vsprintf>:
__vsprintf():
/home/avees/Linux_for_Tegra/sources/tegra/optee-src/nv-optee/optee/optee_os/lib/libutils/ext/snprintk.c:155
    1634:	a9bc7bfd 	stp	x29, x30, [sp, #-64]!
/home/avees/Linux_for_Tegra/sources/tegra/optee-src/nv-optee/optee/optee_os/lib/libutils/ext/snprintk.c:156
    1638:	910083e3 	add	x3, sp, #0x20
/home/avees/Linux_for_Tegra/sources/tegra/optee-src/nv-optee/optee/optee_os/lib/libutils/ext/snprintk.c:155
    163c:	910003fd 	mov	x29, sp
    1640:	a90153f3 	stp	x19, x20, [sp, #16]
    1644:	aa0003f4 	mov	x20, x0
    1648:	aa0103f3 	mov	x19, x1
/home/avees/Linux_for_Tegra/sources/tegra/optee-src/nv-optee/optee/optee_os/lib/libutils/ext/snprintk.c:156
    164c:	aa0303e0 	mov	x0, x3
/home/avees/Linux_for_Tegra/sources/tegra/optee-src/nv-optee/optee/optee_os/lib/libutils/ext/snprintk.c:155
    1650:	aa0203e1 	mov	x1, x2
/home/avees/Linux_for_Tegra/sources/tegra/optee-src/nv-optee/optee/optee_os/lib/libutils/ext/snprintk.c:156
    1654:	d2800402 	mov	x2, #0x20                  	// #32
    1658:	97fffa72 	bl	20 <memcpy>
    165c:	aa1403e2 	mov	x2, x20
    1660:	aa0003e3 	mov	x3, x0
    1664:	52800004 	mov	w4, #0x0                   	// #0
    1668:	aa1303e0 	mov	x0, x19
    166c:	d2800001 	mov	x1, #0x0                   	// #0
    1670:	97fffcf9 	bl	a54 <kprintf.constprop.0>
/home/avees/Linux_for_Tegra/sources/tegra/optee-src/nv-optee/optee/optee_os/lib/libutils/ext/snprintk.c:157
    1674:	a94153f3 	ldp	x19, x20, [sp, #16]
    1678:	a8c47bfd 	ldp	x29, x30, [sp], #64
    167c:	d65f03c0 	ret

0000000000001680 <memchr>:
memchr():
/home/avees/Linux_for_Tegra/sources/tegra/optee-src/nv-optee/optee/optee_os/lib/libutils/isoc/newlib/memchr.c:109
    1680:	12001c21 	and	w1, w1, #0xff
/home/avees/Linux_for_Tegra/sources/tegra/optee-src/nv-optee/optee/optee_os/lib/libutils/isoc/newlib/memchr.c:153
    1684:	8b020002 	add	x2, x0, x2
    1688:	eb02001f 	cmp	x0, x2
    168c:	54000061 	b.ne	1698 <memchr+0x18>  // b.any
/home/avees/Linux_for_Tegra/sources/tegra/optee-src/nv-optee/optee/optee_os/lib/libutils/isoc/newlib/memchr.c:159
    1690:	d2800000 	mov	x0, #0x0                   	// #0
/home/avees/Linux_for_Tegra/sources/tegra/optee-src/nv-optee/optee/optee_os/lib/libutils/isoc/newlib/memchr.c:160
    1694:	d65f03c0 	ret
/home/avees/Linux_for_Tegra/sources/tegra/optee-src/nv-optee/optee/optee_os/lib/libutils/isoc/newlib/memchr.c:154
    1698:	39400003 	ldrb	w3, [x0]
    169c:	6b01007f 	cmp	w3, w1
    16a0:	54ffffa0 	b.eq	1694 <memchr+0x14>  // b.none
/home/avees/Linux_for_Tegra/sources/tegra/optee-src/nv-optee/optee/optee_os/lib/libutils/isoc/newlib/memchr.c:156
    16a4:	91000400 	add	x0, x0, #0x1
    16a8:	17fffff8 	b	1688 <memchr+0x8>

00000000000016ac <strlen>:
strlen():
/home/avees/Linux_for_Tegra/sources/tegra/optee-src/nv-optee/optee/optee_os/lib/libutils/isoc/newlib/strlen.c:117
    16ac:	aa0003e1 	mov	x1, x0
    16b0:	39400022 	ldrb	w2, [x1]
    16b4:	35000062 	cbnz	w2, 16c0 <strlen+0x14>
/home/avees/Linux_for_Tegra/sources/tegra/optee-src/nv-optee/optee/optee_os/lib/libutils/isoc/newlib/strlen.c:120
    16b8:	cb000020 	sub	x0, x1, x0
    16bc:	d65f03c0 	ret
/home/avees/Linux_for_Tegra/sources/tegra/optee-src/nv-optee/optee/optee_os/lib/libutils/isoc/newlib/strlen.c:118
    16c0:	91000421 	add	x1, x1, #0x1
    16c4:	17fffffb 	b	16b0 <strlen+0x4>

00000000000016c8 <trace_ext_puts>:
trace_ext_puts():
/home/avees/Linux_for_Tegra/sources/tegra/optee-src/nv-optee/optee/optee_os/lib/libutee/trace_ext.c:22
    16c8:	a9be7bfd 	stp	x29, x30, [sp, #-32]!
    16cc:	910003fd 	mov	x29, sp
    16d0:	f9000bf3 	str	x19, [sp, #16]
    16d4:	aa0003f3 	mov	x19, x0
/home/avees/Linux_for_Tegra/sources/tegra/optee-src/nv-optee/optee/optee_os/lib/libutee/trace_ext.c:26
    16d8:	97fffff5 	bl	16ac <strlen>
    16dc:	aa0003e1 	mov	x1, x0
    16e0:	aa1303e0 	mov	x0, x19
/home/avees/Linux_for_Tegra/sources/tegra/optee-src/nv-optee/optee/optee_os/lib/libutee/trace_ext.c:28
    16e4:	f9400bf3 	ldr	x19, [sp, #16]
    16e8:	a8c27bfd 	ldp	x29, x30, [sp], #32
/home/avees/Linux_for_Tegra/sources/tegra/optee-src/nv-optee/optee/optee_os/lib/libutee/trace_ext.c:26
    16ec:	14000f14 	b	533c <_utee_log>

00000000000016f0 <trace_ext_get_thread_id>:
trace_ext_get_thread_id():
/home/avees/Linux_for_Tegra/sources/tegra/optee-src/nv-optee/optee/optee_os/lib/libutee/trace_ext.c:33
    16f0:	12800000 	mov	w0, #0xffffffff            	// #-1
    16f4:	d65f03c0 	ret

00000000000016f8 <printf>:
printf():
/home/avees/Linux_for_Tegra/sources/tegra/optee-src/nv-optee/optee/optee_os/lib/libutee/trace_ext.c:41
    16f8:	d108c3ff 	sub	sp, sp, #0x230
    16fc:	a9007bfd 	stp	x29, x30, [sp]
    1700:	910003fd 	mov	x29, sp
    1704:	a90153f3 	stp	x19, x20, [sp, #16]
    1708:	aa0003f3 	mov	x19, x0
    170c:	910823e0 	add	x0, sp, #0x208
    1710:	a91f8be1 	stp	x1, x2, [sp, #504]
    1714:	d0000081 	adrp	x1, 13000 <_DYNAMIC>
    1718:	3d805fe0 	str	q0, [sp, #368]
    171c:	3d8063e1 	str	q1, [sp, #384]
    1720:	3d8067e2 	str	q2, [sp, #400]
    1724:	3d806be3 	str	q3, [sp, #416]
    1728:	3d806fe4 	str	q4, [sp, #432]
    172c:	3d8073e5 	str	q5, [sp, #448]
    1730:	3d8077e6 	str	q6, [sp, #464]
    1734:	3d807be7 	str	q7, [sp, #480]
    1738:	f9409821 	ldr	x1, [x1, #304]
    173c:	a9001003 	stp	x3, x4, [x0]
    1740:	a9011805 	stp	x5, x6, [x0, #16]
    1744:	f90117e7 	str	x7, [sp, #552]
    1748:	f9400020 	ldr	x0, [x1]
    174c:	f900b7e0 	str	x0, [sp, #360]
    1750:	d2800000 	mov	x0, #0x0                   	// #0
/home/avees/Linux_for_Tegra/sources/tegra/optee-src/nv-optee/optee/optee_os/lib/libutee/trace_ext.c:46
    1754:	97fffb83 	bl	560 <trace_get_level>
    1758:	7100001f 	cmp	w0, #0x0
    175c:	5400040d 	b.le	17dc <printf+0xe4>
/home/avees/Linux_for_Tegra/sources/tegra/optee-src/nv-optee/optee/optee_os/lib/libutee/trace_ext.c:49
    1760:	9108c3e0 	add	x0, sp, #0x230
/home/avees/Linux_for_Tegra/sources/tegra/optee-src/nv-optee/optee/optee_os/lib/libutee/trace_ext.c:50
    1764:	910083e3 	add	x3, sp, #0x20
/home/avees/Linux_for_Tegra/sources/tegra/optee-src/nv-optee/optee/optee_os/lib/libutee/trace_ext.c:49
    1768:	a90483e0 	stp	x0, x0, [sp, #72]
    176c:	9107c3e0 	add	x0, sp, #0x1f0
/home/avees/Linux_for_Tegra/sources/tegra/optee-src/nv-optee/optee/optee_os/lib/libutee/trace_ext.c:50
    1770:	910123e1 	add	x1, sp, #0x48
/home/avees/Linux_for_Tegra/sources/tegra/optee-src/nv-optee/optee/optee_os/lib/libutee/trace_ext.c:49
    1774:	f9002fe0 	str	x0, [sp, #88]
    1778:	128006e0 	mov	w0, #0xffffffc8            	// #-56
    177c:	b90063e0 	str	w0, [sp, #96]
    1780:	12800fe0 	mov	w0, #0xffffff80            	// #-128
/home/avees/Linux_for_Tegra/sources/tegra/optee-src/nv-optee/optee/optee_os/lib/libutee/trace_ext.c:50
    1784:	d2800402 	mov	x2, #0x20                  	// #32
    1788:	9101a3f4 	add	x20, sp, #0x68
/home/avees/Linux_for_Tegra/sources/tegra/optee-src/nv-optee/optee/optee_os/lib/libutee/trace_ext.c:49
    178c:	b90067e0 	str	w0, [sp, #100]
/home/avees/Linux_for_Tegra/sources/tegra/optee-src/nv-optee/optee/optee_os/lib/libutee/trace_ext.c:50
    1790:	aa0303e0 	mov	x0, x3
    1794:	97fffa23 	bl	20 <memcpy>
    1798:	aa0003e3 	mov	x3, x0
    179c:	aa1303e2 	mov	x2, x19
    17a0:	aa1403e0 	mov	x0, x20
    17a4:	d2802001 	mov	x1, #0x100                 	// #256
    17a8:	9400330a 	bl	e3d0 <vsnprintf>
    17ac:	2a0003f3 	mov	w19, w0
/home/avees/Linux_for_Tegra/sources/tegra/optee-src/nv-optee/optee/optee_os/lib/libutee/trace_ext.c:53
    17b0:	37f80060 	tbnz	w0, #31, 17bc <printf+0xc4>
/home/avees/Linux_for_Tegra/sources/tegra/optee-src/nv-optee/optee/optee_os/lib/libutee/trace_ext.c:56
    17b4:	aa1403e0 	mov	x0, x20
    17b8:	97ffffc4 	bl	16c8 <trace_ext_puts>
/home/avees/Linux_for_Tegra/sources/tegra/optee-src/nv-optee/optee/optee_os/lib/libutee/trace_ext.c:59
    17bc:	d0000081 	adrp	x1, 13000 <_DYNAMIC>
    17c0:	f9409821 	ldr	x1, [x1, #304]
    17c4:	f940b7e0 	ldr	x0, [sp, #360]
    17c8:	f9400022 	ldr	x2, [x1]
    17cc:	eb020000 	subs	x0, x0, x2
    17d0:	d2800002 	mov	x2, #0x0                   	// #0
    17d4:	54000080 	b.eq	17e4 <printf+0xec>  // b.none
    17d8:	97fffb4f 	bl	514 <__stack_chk_fail>
/home/avees/Linux_for_Tegra/sources/tegra/optee-src/nv-optee/optee/optee_os/lib/libutee/trace_ext.c:47
    17dc:	52800013 	mov	w19, #0x0                   	// #0
    17e0:	17fffff7 	b	17bc <printf+0xc4>
/home/avees/Linux_for_Tegra/sources/tegra/optee-src/nv-optee/optee/optee_os/lib/libutee/trace_ext.c:59
    17e4:	2a1303e0 	mov	w0, w19
    17e8:	a9407bfd 	ldp	x29, x30, [sp]
    17ec:	a94153f3 	ldp	x19, x20, [sp, #16]
    17f0:	9108c3ff 	add	sp, sp, #0x230
    17f4:	d65f03c0 	ret

00000000000017f8 <puts>:
puts():
/home/avees/Linux_for_Tegra/sources/tegra/optee-src/nv-optee/optee/optee_os/lib/libutee/trace_ext.c:62
    17f8:	a9be7bfd 	stp	x29, x30, [sp, #-32]!
    17fc:	910003fd 	mov	x29, sp
    1800:	f9000bf3 	str	x19, [sp, #16]
    1804:	aa0003f3 	mov	x19, x0
/home/avees/Linux_for_Tegra/sources/tegra/optee-src/nv-optee/optee/optee_os/lib/libutee/trace_ext.c:63
    1808:	97fffb56 	bl	560 <trace_get_level>
    180c:	7100001f 	cmp	w0, #0x0
    1810:	540000cd 	b.le	1828 <puts+0x30>
/home/avees/Linux_for_Tegra/sources/tegra/optee-src/nv-optee/optee/optee_os/lib/libutee/trace_ext.c:64
    1814:	aa1303e0 	mov	x0, x19
    1818:	97ffffac 	bl	16c8 <trace_ext_puts>
/home/avees/Linux_for_Tegra/sources/tegra/optee-src/nv-optee/optee/optee_os/lib/libutee/trace_ext.c:65
    181c:	b0000080 	adrp	x0, 12000 <__func__.5424+0xb8>
    1820:	911c9000 	add	x0, x0, #0x724
    1824:	97ffffa9 	bl	16c8 <trace_ext_puts>
/home/avees/Linux_for_Tegra/sources/tegra/optee-src/nv-optee/optee/optee_os/lib/libutee/trace_ext.c:68
    1828:	52800020 	mov	w0, #0x1                   	// #1
    182c:	f9400bf3 	ldr	x19, [sp, #16]
    1830:	a8c27bfd 	ldp	x29, x30, [sp], #32
    1834:	d65f03c0 	ret

0000000000001838 <putchar>:
putchar():
/home/avees/Linux_for_Tegra/sources/tegra/optee-src/nv-optee/optee/optee_os/lib/libutee/trace_ext.c:71
    1838:	a9bd7bfd 	stp	x29, x30, [sp, #-48]!
    183c:	d0000081 	adrp	x1, 13000 <_DYNAMIC>
    1840:	910003fd 	mov	x29, sp
    1844:	f9409821 	ldr	x1, [x1, #304]
    1848:	f9000bf3 	str	x19, [sp, #16]
    184c:	2a0003f3 	mov	w19, w0
/home/avees/Linux_for_Tegra/sources/tegra/optee-src/nv-optee/optee/optee_os/lib/libutee/trace_ext.c:72
    1850:	390083f3 	strb	w19, [sp, #32]
/home/avees/Linux_for_Tegra/sources/tegra/optee-src/nv-optee/optee/optee_os/lib/libutee/trace_ext.c:71
    1854:	f9400020 	ldr	x0, [x1]
    1858:	f90017e0 	str	x0, [sp, #40]
    185c:	d2800000 	mov	x0, #0x0                   	// #0
/home/avees/Linux_for_Tegra/sources/tegra/optee-src/nv-optee/optee/optee_os/lib/libutee/trace_ext.c:72
    1860:	390087ff 	strb	wzr, [sp, #33]
/home/avees/Linux_for_Tegra/sources/tegra/optee-src/nv-optee/optee/optee_os/lib/libutee/trace_ext.c:74
    1864:	97fffb3f 	bl	560 <trace_get_level>
    1868:	7100001f 	cmp	w0, #0x0
    186c:	5400006d 	b.le	1878 <putchar+0x40>
/home/avees/Linux_for_Tegra/sources/tegra/optee-src/nv-optee/optee/optee_os/lib/libutee/trace_ext.c:75
    1870:	910083e0 	add	x0, sp, #0x20
    1874:	97ffff95 	bl	16c8 <trace_ext_puts>
/home/avees/Linux_for_Tegra/sources/tegra/optee-src/nv-optee/optee/optee_os/lib/libutee/trace_ext.c:82
    1878:	d0000081 	adrp	x1, 13000 <_DYNAMIC>
/home/avees/Linux_for_Tegra/sources/tegra/optee-src/nv-optee/optee/optee_os/lib/libutee/trace_ext.c:81
    187c:	12001e60 	and	w0, w19, #0xff
/home/avees/Linux_for_Tegra/sources/tegra/optee-src/nv-optee/optee/optee_os/lib/libutee/trace_ext.c:82
    1880:	f9409821 	ldr	x1, [x1, #304]
    1884:	f94017e2 	ldr	x2, [sp, #40]
    1888:	f9400023 	ldr	x3, [x1]
    188c:	eb030042 	subs	x2, x2, x3
    1890:	d2800003 	mov	x3, #0x0                   	// #0
    1894:	54000040 	b.eq	189c <putchar+0x64>  // b.none
    1898:	97fffb1f 	bl	514 <__stack_chk_fail>
    189c:	f9400bf3 	ldr	x19, [sp, #16]
    18a0:	a8c37bfd 	ldp	x29, x30, [sp], #48
    18a4:	d65f03c0 	ret

00000000000018a8 <copy_param>:
copy_param():
/home/avees/Linux_for_Tegra/sources/tegra/optee-src/nv-optee/optee/optee_os/lib/libutee/tee_api.c:43
    18a8:	2a0103e3 	mov	w3, w1
    18ac:	52800004 	mov	w4, #0x0                   	// #0
    18b0:	f8008403 	str	x3, [x0], #8
/home/avees/Linux_for_Tegra/sources/tegra/optee-src/nv-optee/optee/optee_os/lib/libutee/tee_api.c:45
    18b4:	1ac42425 	lsr	w5, w1, w4
    18b8:	12000ca3 	and	w3, w5, #0xf
    18bc:	71000c7f 	cmp	w3, #0x3
    18c0:	540001a0 	b.eq	18f4 <copy_param+0x4c>  // b.none
    18c4:	721e04bf 	tst	w5, #0xc
    18c8:	540000c1 	b.ne	18e0 <copy_param+0x38>  // b.any
    18cc:	7100047f 	cmp	w3, #0x1
    18d0:	54000120 	b.eq	18f4 <copy_param+0x4c>  // b.none
    18d4:	d2800003 	mov	x3, #0x0                   	// #0
    18d8:	d2800005 	mov	x5, #0x0                   	// #0
    18dc:	14000007 	b	18f8 <copy_param+0x50>
    18e0:	51001463 	sub	w3, w3, #0x5
    18e4:	7100087f 	cmp	w3, #0x2
    18e8:	54ffff68 	b.hi	18d4 <copy_param+0x2c>  // b.pmore
/home/avees/Linux_for_Tegra/sources/tegra/optee-src/nv-optee/optee/optee_os/lib/libutee/tee_api.c:55
    18ec:	a9400c45 	ldp	x5, x3, [x2]
/home/avees/Linux_for_Tegra/sources/tegra/optee-src/nv-optee/optee/optee_os/lib/libutee/tee_api.c:56
    18f0:	14000002 	b	18f8 <copy_param+0x50>
/home/avees/Linux_for_Tegra/sources/tegra/optee-src/nv-optee/optee/optee_os/lib/libutee/tee_api.c:49
    18f4:	29400c45 	ldp	w5, w3, [x2]
/home/avees/Linux_for_Tegra/sources/tegra/optee-src/nv-optee/optee/optee_os/lib/libutee/tee_api.c:62 (discriminator 2)
    18f8:	a9000c05 	stp	x5, x3, [x0]
/home/avees/Linux_for_Tegra/sources/tegra/optee-src/nv-optee/optee/optee_os/lib/libutee/tee_api.c:44 (discriminator 2)
    18fc:	11001084 	add	w4, w4, #0x4
    1900:	91004042 	add	x2, x2, #0x10
    1904:	7100409f 	cmp	w4, #0x10
    1908:	91004000 	add	x0, x0, #0x10
    190c:	54fffd41 	b.ne	18b4 <copy_param+0xc>  // b.any
/home/avees/Linux_for_Tegra/sources/tegra/optee-src/nv-optee/optee/optee_os/lib/libutee/tee_api.c:64
    1910:	d65f03c0 	ret

0000000000001914 <copy_gp11_param>:
copy_gp11_param():
/home/avees/Linux_for_Tegra/sources/tegra/optee-src/nv-optee/optee/optee_os/lib/libutee/tee_api.c:73
    1914:	2a0103e3 	mov	w3, w1
    1918:	52800004 	mov	w4, #0x0                   	// #0
    191c:	f8008403 	str	x3, [x0], #8
/home/avees/Linux_for_Tegra/sources/tegra/optee-src/nv-optee/optee/optee_os/lib/libutee/tee_api.c:75
    1920:	1ac42425 	lsr	w5, w1, w4
    1924:	12000ca3 	and	w3, w5, #0xf
    1928:	71000c7f 	cmp	w3, #0x3
    192c:	540001c0 	b.eq	1964 <copy_gp11_param+0x50>  // b.none
    1930:	721e04bf 	tst	w5, #0xc
    1934:	540000c1 	b.ne	194c <copy_gp11_param+0x38>  // b.any
    1938:	7100047f 	cmp	w3, #0x1
    193c:	54000140 	b.eq	1964 <copy_gp11_param+0x50>  // b.none
    1940:	d2800003 	mov	x3, #0x0                   	// #0
    1944:	d2800005 	mov	x5, #0x0                   	// #0
    1948:	14000008 	b	1968 <copy_gp11_param+0x54>
    194c:	51001463 	sub	w3, w3, #0x5
    1950:	7100087f 	cmp	w3, #0x2
    1954:	54ffff68 	b.hi	1940 <copy_gp11_param+0x2c>  // b.pmore
/home/avees/Linux_for_Tegra/sources/tegra/optee-src/nv-optee/optee/optee_os/lib/libutee/tee_api.c:85
    1958:	b9400843 	ldr	w3, [x2, #8]
/home/avees/Linux_for_Tegra/sources/tegra/optee-src/nv-optee/optee/optee_os/lib/libutee/tee_api.c:84
    195c:	f9400045 	ldr	x5, [x2]
/home/avees/Linux_for_Tegra/sources/tegra/optee-src/nv-optee/optee/optee_os/lib/libutee/tee_api.c:86
    1960:	14000002 	b	1968 <copy_gp11_param+0x54>
/home/avees/Linux_for_Tegra/sources/tegra/optee-src/nv-optee/optee/optee_os/lib/libutee/tee_api.c:79
    1964:	29400c45 	ldp	w5, w3, [x2]
/home/avees/Linux_for_Tegra/sources/tegra/optee-src/nv-optee/optee/optee_os/lib/libutee/tee_api.c:92 (discriminator 2)
    1968:	a9000c05 	stp	x5, x3, [x0]
/home/avees/Linux_for_Tegra/sources/tegra/optee-src/nv-optee/optee/optee_os/lib/libutee/tee_api.c:74 (discriminator 2)
    196c:	11001084 	add	w4, w4, #0x4
    1970:	91004042 	add	x2, x2, #0x10
    1974:	7100409f 	cmp	w4, #0x10
    1978:	91004000 	add	x0, x0, #0x10
    197c:	54fffd21 	b.ne	1920 <copy_gp11_param+0xc>  // b.any
/home/avees/Linux_for_Tegra/sources/tegra/optee-src/nv-optee/optee/optee_os/lib/libutee/tee_api.c:94
    1980:	d65f03c0 	ret

0000000000001984 <check_mem_access_rights_params>:
check_mem_access_rights_params():
/home/avees/Linux_for_Tegra/sources/tegra/optee-src/nv-optee/optee/optee_os/lib/libutee/tee_api.c:261
    1984:	d0000083 	adrp	x3, 13000 <_DYNAMIC>
bufs_intersect():
/home/avees/Linux_for_Tegra/sources/tegra/optee-src/nv-optee/optee/optee_os/lib/libutee/tee_api.c:241
    1988:	d1000447 	sub	x7, x2, #0x1
    198c:	8b0100e7 	add	x7, x7, x1
check_mem_access_rights_params():
/home/avees/Linux_for_Tegra/sources/tegra/optee-src/nv-optee/optee/optee_os/lib/libutee/tee_api.c:261
    1990:	52800005 	mov	w5, #0x0                   	// #0
    1994:	f940d064 	ldr	x4, [x3, #416]
    1998:	f940e063 	ldr	x3, [x3, #448]
    199c:	b9400089 	ldr	w9, [x4]
    19a0:	1ac52524 	lsr	w4, w9, w5
    19a4:	12000c84 	and	w4, w4, #0xf
    19a8:	7100149f 	cmp	w4, #0x5
    19ac:	540002e0 	b.eq	1a08 <check_mem_access_rights_params+0x84>  // b.none
    19b0:	51001884 	sub	w4, w4, #0x6
    19b4:	7100049f 	cmp	w4, #0x1
    19b8:	540001c8 	b.hi	19f0 <check_mem_access_rights_params+0x6c>  // b.pmore
    19bc:	528000c6 	mov	w6, #0x6                   	// #6
/home/avees/Linux_for_Tegra/sources/tegra/optee-src/nv-optee/optee/optee_os/lib/libutee/tee_api.c:268
    19c0:	a9401068 	ldp	x8, x4, [x3]
bufs_intersect():
/home/avees/Linux_for_Tegra/sources/tegra/optee-src/nv-optee/optee/optee_os/lib/libutee/tee_api.c:244
    19c4:	f100005f 	cmp	x2, #0x0
    19c8:	fa401884 	ccmp	x4, #0x0, #0x4, ne  // ne = any
    19cc:	54000120 	b.eq	19f0 <check_mem_access_rights_params+0x6c>  // b.none
/home/avees/Linux_for_Tegra/sources/tegra/optee-src/nv-optee/optee/optee_os/lib/libutee/tee_api.c:242
    19d0:	d1000484 	sub	x4, x4, #0x1
/home/avees/Linux_for_Tegra/sources/tegra/optee-src/nv-optee/optee/optee_os/lib/libutee/tee_api.c:247
    19d4:	eb07011f 	cmp	x8, x7
/home/avees/Linux_for_Tegra/sources/tegra/optee-src/nv-optee/optee/optee_os/lib/libutee/tee_api.c:242
    19d8:	8b080084 	add	x4, x4, x8
/home/avees/Linux_for_Tegra/sources/tegra/optee-src/nv-optee/optee/optee_os/lib/libutee/tee_api.c:247
    19dc:	fa449022 	ccmp	x1, x4, #0x2, ls  // ls = plast
    19e0:	54000088 	b.hi	19f0 <check_mem_access_rights_params+0x6c>  // b.pmore
check_mem_access_rights_params():
/home/avees/Linux_for_Tegra/sources/tegra/optee-src/nv-optee/optee/optee_os/lib/libutee/tee_api.c:267
    19e4:	320000c6 	orr	w6, w6, #0x1
/home/avees/Linux_for_Tegra/sources/tegra/optee-src/nv-optee/optee/optee_os/lib/libutee/tee_api.c:271
    19e8:	6a26001f 	bics	wzr, w0, w6
    19ec:	54000121 	b.ne	1a10 <check_mem_access_rights_params+0x8c>  // b.any
/home/avees/Linux_for_Tegra/sources/tegra/optee-src/nv-optee/optee/optee_os/lib/libutee/tee_api.c:258 (discriminator 2)
    19f0:	110010a5 	add	w5, w5, #0x4
    19f4:	91004063 	add	x3, x3, #0x10
    19f8:	710040bf 	cmp	w5, #0x10
    19fc:	54fffd21 	b.ne	19a0 <check_mem_access_rights_params+0x1c>  // b.any
/home/avees/Linux_for_Tegra/sources/tegra/optee-src/nv-optee/optee/optee_os/lib/libutee/tee_api.c:280
    1a00:	52800000 	mov	w0, #0x0                   	// #0
/home/avees/Linux_for_Tegra/sources/tegra/optee-src/nv-optee/optee/optee_os/lib/libutee/tee_api.c:281
    1a04:	d65f03c0 	ret
/home/avees/Linux_for_Tegra/sources/tegra/optee-src/nv-optee/optee/optee_os/lib/libutee/tee_api.c:259
    1a08:	52800086 	mov	w6, #0x4                   	// #4
    1a0c:	17ffffed 	b	19c0 <check_mem_access_rights_params+0x3c>
/home/avees/Linux_for_Tegra/sources/tegra/optee-src/nv-optee/optee/optee_os/lib/libutee/tee_api.c:272
    1a10:	129fffc0 	mov	w0, #0xffff0001            	// #-65535
    1a14:	17fffffc 	b	1a04 <check_mem_access_rights_params+0x80>

0000000000001a18 <buf_overlaps_no_share_heap>:
buf_overlaps_no_share_heap():
/home/avees/Linux_for_Tegra/sources/tegra/optee-src/nv-optee/optee/optee_os/lib/libutee/tee_api.c:284
    1a18:	aa0003e3 	mov	x3, x0
/home/avees/Linux_for_Tegra/sources/tegra/optee-src/nv-optee/optee/optee_os/lib/libutee/tee_api.c:285
    1a1c:	d0000080 	adrp	x0, 13000 <_DYNAMIC>
    1a20:	f940d800 	ldr	x0, [x0, #432]
    1a24:	f9400000 	ldr	x0, [x0]
/home/avees/Linux_for_Tegra/sources/tegra/optee-src/nv-optee/optee/optee_os/lib/libutee/tee_api.c:287
    1a28:	b4000140 	cbz	x0, 1a50 <buf_overlaps_no_share_heap+0x38>
/home/avees/Linux_for_Tegra/sources/tegra/optee-src/nv-optee/optee/optee_os/lib/libutee/tee_api.c:284 (discriminator 1)
    1a2c:	a9bf7bfd 	stp	x29, x30, [sp, #-16]!
    1a30:	aa0103e2 	mov	x2, x1
/home/avees/Linux_for_Tegra/sources/tegra/optee-src/nv-optee/optee/optee_os/lib/libutee/tee_api.c:287 (discriminator 1)
    1a34:	aa0303e1 	mov	x1, x3
/home/avees/Linux_for_Tegra/sources/tegra/optee-src/nv-optee/optee/optee_os/lib/libutee/tee_api.c:284 (discriminator 1)
    1a38:	910003fd 	mov	x29, sp
/home/avees/Linux_for_Tegra/sources/tegra/optee-src/nv-optee/optee/optee_os/lib/libutee/tee_api.c:287 (discriminator 1)
    1a3c:	940031ae 	bl	e0f4 <raw_malloc_buffer_overlaps_heap>
    1a40:	12001c00 	and	w0, w0, #0xff
/home/avees/Linux_for_Tegra/sources/tegra/optee-src/nv-optee/optee/optee_os/lib/libutee/tee_api.c:288 (discriminator 1)
    1a44:	12000000 	and	w0, w0, #0x1
    1a48:	a8c17bfd 	ldp	x29, x30, [sp], #16
    1a4c:	d65f03c0 	ret
/home/avees/Linux_for_Tegra/sources/tegra/optee-src/nv-optee/optee/optee_os/lib/libutee/tee_api.c:287
    1a50:	52800000 	mov	w0, #0x0                   	// #0
/home/avees/Linux_for_Tegra/sources/tegra/optee-src/nv-optee/optee/optee_os/lib/libutee/tee_api.c:288
    1a54:	12000000 	and	w0, w0, #0x1
    1a58:	d65f03c0 	ret

0000000000001a5c <check_invoke_param>:
check_invoke_param():
/home/avees/Linux_for_Tegra/sources/tegra/optee-src/nv-optee/optee/optee_os/lib/libutee/tee_api.c:291
    1a5c:	a9bc7bfd 	stp	x29, x30, [sp, #-64]!
    1a60:	910003fd 	mov	x29, sp
    1a64:	a90153f3 	stp	x19, x20, [sp, #16]
    1a68:	91002033 	add	x19, x1, #0x8
    1a6c:	52800014 	mov	w20, #0x0                   	// #0
    1a70:	a9025bf5 	stp	x21, x22, [sp, #32]
    1a74:	2a0003f5 	mov	w21, w0
    1a78:	f9001bf7 	str	x23, [sp, #48]
/home/avees/Linux_for_Tegra/sources/tegra/optee-src/nv-optee/optee/optee_os/lib/libutee/tee_api.c:299
    1a7c:	1ad426a1 	lsr	w1, w21, w20
    1a80:	12000c21 	and	w1, w1, #0xf
    1a84:	7100143f 	cmp	w1, #0x5
    1a88:	540003a0 	b.eq	1afc <check_invoke_param+0xa0>  // b.none
    1a8c:	51001821 	sub	w1, w1, #0x6
    1a90:	7100043f 	cmp	w1, #0x1
    1a94:	54000228 	b.hi	1ad8 <check_invoke_param+0x7c>  // b.pmore
    1a98:	528000c0 	mov	w0, #0x6                   	// #6
/home/avees/Linux_for_Tegra/sources/tegra/optee-src/nv-optee/optee/optee_os/lib/libutee/tee_api.c:297
    1a9c:	a97fde76 	ldp	x22, x23, [x19, #-8]
/home/avees/Linux_for_Tegra/sources/tegra/optee-src/nv-optee/optee/optee_os/lib/libutee/tee_api.c:306
    1aa0:	32000000 	orr	w0, w0, #0x1
    1aa4:	aa1703e2 	mov	x2, x23
    1aa8:	aa1603e1 	mov	x1, x22
    1aac:	97ffffb6 	bl	1984 <check_mem_access_rights_params>
    1ab0:	34000060 	cbz	w0, 1abc <check_invoke_param+0x60>
/home/avees/Linux_for_Tegra/sources/tegra/optee-src/nv-optee/optee/optee_os/lib/libutee/tee_api.c:307
    1ab4:	52800000 	mov	w0, #0x0                   	// #0
    1ab8:	94000a77 	bl	4494 <TEE_Panic>
/home/avees/Linux_for_Tegra/sources/tegra/optee-src/nv-optee/optee/optee_os/lib/libutee/tee_api.c:308
    1abc:	aa1703e1 	mov	x1, x23
    1ac0:	aa1603e0 	mov	x0, x22
    1ac4:	97ffffd5 	bl	1a18 <buf_overlaps_no_share_heap>
    1ac8:	72001c1f 	tst	w0, #0xff
    1acc:	54000060 	b.eq	1ad8 <check_invoke_param+0x7c>  // b.none
/home/avees/Linux_for_Tegra/sources/tegra/optee-src/nv-optee/optee/optee_os/lib/libutee/tee_api.c:309
    1ad0:	52800000 	mov	w0, #0x0                   	// #0
    1ad4:	94000a70 	bl	4494 <TEE_Panic>
/home/avees/Linux_for_Tegra/sources/tegra/optee-src/nv-optee/optee/optee_os/lib/libutee/tee_api.c:294 (discriminator 2)
    1ad8:	11001294 	add	w20, w20, #0x4
    1adc:	91004273 	add	x19, x19, #0x10
    1ae0:	7100429f 	cmp	w20, #0x10
    1ae4:	54fffcc1 	b.ne	1a7c <check_invoke_param+0x20>  // b.any
/home/avees/Linux_for_Tegra/sources/tegra/optee-src/nv-optee/optee/optee_os/lib/libutee/tee_api.c:315
    1ae8:	a94153f3 	ldp	x19, x20, [sp, #16]
    1aec:	a9425bf5 	ldp	x21, x22, [sp, #32]
    1af0:	f9401bf7 	ldr	x23, [sp, #48]
    1af4:	a8c47bfd 	ldp	x29, x30, [sp], #64
    1af8:	d65f03c0 	ret
/home/avees/Linux_for_Tegra/sources/tegra/optee-src/nv-optee/optee/optee_os/lib/libutee/tee_api.c:295
    1afc:	52800080 	mov	w0, #0x4                   	// #4
    1b00:	17ffffe7 	b	1a9c <check_invoke_param+0x40>

0000000000001b04 <update_out_param>:
update_out_param():
/home/avees/Linux_for_Tegra/sources/tegra/optee-src/nv-optee/optee/optee_os/lib/libutee/tee_api.c:180
    1b04:	a9bc7bfd 	stp	x29, x30, [sp, #-64]!
    1b08:	910003fd 	mov	x29, sp
    1b0c:	a90153f3 	stp	x19, x20, [sp, #16]
/home/avees/Linux_for_Tegra/sources/tegra/optee-src/nv-optee/optee/optee_os/lib/libutee/tee_api.c:182
    1b10:	aa0203f4 	mov	x20, x2
    1b14:	aa0003f3 	mov	x19, x0
/home/avees/Linux_for_Tegra/sources/tegra/optee-src/nv-optee/optee/optee_os/lib/libutee/tee_api.c:180
    1b18:	a90363f7 	stp	x23, x24, [sp, #48]
    1b1c:	aa0103f8 	mov	x24, x1
/home/avees/Linux_for_Tegra/sources/tegra/optee-src/nv-optee/optee/optee_os/lib/libutee/tee_api.c:182
    1b20:	f8408697 	ldr	x23, [x20], #8
/home/avees/Linux_for_Tegra/sources/tegra/optee-src/nv-optee/optee/optee_os/lib/libutee/tee_api.c:180
    1b24:	a9025bf5 	stp	x21, x22, [sp, #32]
/home/avees/Linux_for_Tegra/sources/tegra/optee-src/nv-optee/optee/optee_os/lib/libutee/tee_api.c:184
    1b28:	d2800015 	mov	x21, #0x0                   	// #0
/home/avees/Linux_for_Tegra/sources/tegra/optee-src/nv-optee/optee/optee_os/lib/libutee/tee_api.c:188
    1b2c:	531e76a0 	lsl	w0, w21, #2
/home/avees/Linux_for_Tegra/sources/tegra/optee-src/nv-optee/optee/optee_os/lib/libutee/tee_api.c:186
    1b30:	f9400696 	ldr	x22, [x20, #8]
/home/avees/Linux_for_Tegra/sources/tegra/optee-src/nv-optee/optee/optee_os/lib/libutee/tee_api.c:188
    1b34:	1ac026e0 	lsr	w0, w23, w0
    1b38:	12000c01 	and	w1, w0, #0xf
    1b3c:	721e041f 	tst	w0, #0xc
    1b40:	540000c1 	b.ne	1b58 <update_out_param+0x54>  // b.any
    1b44:	721f081f 	tst	w0, #0xe
    1b48:	540000e0 	b.eq	1b64 <update_out_param+0x60>  // b.none
/home/avees/Linux_for_Tegra/sources/tegra/optee-src/nv-optee/optee/optee_os/lib/libutee/tee_api.c:191
    1b4c:	f9400280 	ldr	x0, [x20]
/home/avees/Linux_for_Tegra/sources/tegra/optee-src/nv-optee/optee/optee_os/lib/libutee/tee_api.c:192
    1b50:	29005a60 	stp	w0, w22, [x19]
/home/avees/Linux_for_Tegra/sources/tegra/optee-src/nv-optee/optee/optee_os/lib/libutee/tee_api.c:193
    1b54:	14000004 	b	1b64 <update_out_param+0x60>
/home/avees/Linux_for_Tegra/sources/tegra/optee-src/nv-optee/optee/optee_os/lib/libutee/tee_api.c:188
    1b58:	51001820 	sub	w0, w1, #0x6
    1b5c:	7100041f 	cmp	w0, #0x1
    1b60:	54000169 	b.ls	1b8c <update_out_param+0x88>  // b.plast
/home/avees/Linux_for_Tegra/sources/tegra/optee-src/nv-optee/optee/optee_os/lib/libutee/tee_api.c:184 (discriminator 2)
    1b64:	910006b5 	add	x21, x21, #0x1
    1b68:	91004294 	add	x20, x20, #0x10
    1b6c:	91004273 	add	x19, x19, #0x10
    1b70:	f10012bf 	cmp	x21, #0x4
    1b74:	54fffdc1 	b.ne	1b2c <update_out_param+0x28>  // b.any
/home/avees/Linux_for_Tegra/sources/tegra/optee-src/nv-optee/optee/optee_os/lib/libutee/tee_api.c:205
    1b78:	a94153f3 	ldp	x19, x20, [sp, #16]
    1b7c:	a9425bf5 	ldp	x21, x22, [sp, #32]
    1b80:	a94363f7 	ldp	x23, x24, [sp, #48]
    1b84:	a8c47bfd 	ldp	x29, x30, [sp], #64
    1b88:	d65f03c0 	ret
/home/avees/Linux_for_Tegra/sources/tegra/optee-src/nv-optee/optee/optee_os/lib/libutee/tee_api.c:196
    1b8c:	f8757b01 	ldr	x1, [x24, x21, lsl #3]
    1b90:	b40000a1 	cbz	x1, 1ba4 <update_out_param+0xa0>
/home/avees/Linux_for_Tegra/sources/tegra/optee-src/nv-optee/optee/optee_os/lib/libutee/tee_api.c:198
    1b94:	a9400a60 	ldp	x0, x2, [x19]
    1b98:	eb16005f 	cmp	x2, x22
/home/avees/Linux_for_Tegra/sources/tegra/optee-src/nv-optee/optee/optee_os/lib/libutee/tee_api.c:197
    1b9c:	9a969042 	csel	x2, x2, x22, ls  // ls = plast
    1ba0:	97fff920 	bl	20 <memcpy>
/home/avees/Linux_for_Tegra/sources/tegra/optee-src/nv-optee/optee/optee_os/lib/libutee/tee_api.c:199
    1ba4:	f9000676 	str	x22, [x19, #8]
/home/avees/Linux_for_Tegra/sources/tegra/optee-src/nv-optee/optee/optee_os/lib/libutee/tee_api.c:200
    1ba8:	17ffffef 	b	1b64 <update_out_param+0x60>

0000000000001bac <update_out_gp11_param>:
update_out_gp11_param():
/home/avees/Linux_for_Tegra/sources/tegra/optee-src/nv-optee/optee/optee_os/lib/libutee/tee_api.c:210
    1bac:	a9bc7bfd 	stp	x29, x30, [sp, #-64]!
    1bb0:	910003fd 	mov	x29, sp
    1bb4:	a90153f3 	stp	x19, x20, [sp, #16]
/home/avees/Linux_for_Tegra/sources/tegra/optee-src/nv-optee/optee/optee_os/lib/libutee/tee_api.c:212
    1bb8:	aa0203f4 	mov	x20, x2
    1bbc:	aa0003f3 	mov	x19, x0
/home/avees/Linux_for_Tegra/sources/tegra/optee-src/nv-optee/optee/optee_os/lib/libutee/tee_api.c:210
    1bc0:	a90363f7 	stp	x23, x24, [sp, #48]
    1bc4:	aa0103f8 	mov	x24, x1
/home/avees/Linux_for_Tegra/sources/tegra/optee-src/nv-optee/optee/optee_os/lib/libutee/tee_api.c:212
    1bc8:	f8408697 	ldr	x23, [x20], #8
/home/avees/Linux_for_Tegra/sources/tegra/optee-src/nv-optee/optee/optee_os/lib/libutee/tee_api.c:210
    1bcc:	a9025bf5 	stp	x21, x22, [sp, #32]
/home/avees/Linux_for_Tegra/sources/tegra/optee-src/nv-optee/optee/optee_os/lib/libutee/tee_api.c:214
    1bd0:	d2800015 	mov	x21, #0x0                   	// #0
/home/avees/Linux_for_Tegra/sources/tegra/optee-src/nv-optee/optee/optee_os/lib/libutee/tee_api.c:218
    1bd4:	531e76a0 	lsl	w0, w21, #2
/home/avees/Linux_for_Tegra/sources/tegra/optee-src/nv-optee/optee/optee_os/lib/libutee/tee_api.c:216
    1bd8:	f9400696 	ldr	x22, [x20, #8]
/home/avees/Linux_for_Tegra/sources/tegra/optee-src/nv-optee/optee/optee_os/lib/libutee/tee_api.c:218
    1bdc:	1ac026e0 	lsr	w0, w23, w0
    1be0:	12000c01 	and	w1, w0, #0xf
    1be4:	721e041f 	tst	w0, #0xc
    1be8:	540000c1 	b.ne	1c00 <update_out_gp11_param+0x54>  // b.any
    1bec:	721f081f 	tst	w0, #0xe
    1bf0:	540000e0 	b.eq	1c0c <update_out_gp11_param+0x60>  // b.none
/home/avees/Linux_for_Tegra/sources/tegra/optee-src/nv-optee/optee/optee_os/lib/libutee/tee_api.c:221
    1bf4:	f9400280 	ldr	x0, [x20]
/home/avees/Linux_for_Tegra/sources/tegra/optee-src/nv-optee/optee/optee_os/lib/libutee/tee_api.c:222
    1bf8:	29005a60 	stp	w0, w22, [x19]
/home/avees/Linux_for_Tegra/sources/tegra/optee-src/nv-optee/optee/optee_os/lib/libutee/tee_api.c:223
    1bfc:	14000004 	b	1c0c <update_out_gp11_param+0x60>
/home/avees/Linux_for_Tegra/sources/tegra/optee-src/nv-optee/optee/optee_os/lib/libutee/tee_api.c:218
    1c00:	51001820 	sub	w0, w1, #0x6
    1c04:	7100041f 	cmp	w0, #0x1
    1c08:	54000169 	b.ls	1c34 <update_out_gp11_param+0x88>  // b.plast
/home/avees/Linux_for_Tegra/sources/tegra/optee-src/nv-optee/optee/optee_os/lib/libutee/tee_api.c:214 (discriminator 2)
    1c0c:	910006b5 	add	x21, x21, #0x1
    1c10:	91004294 	add	x20, x20, #0x10
    1c14:	91004273 	add	x19, x19, #0x10
    1c18:	f10012bf 	cmp	x21, #0x4
    1c1c:	54fffdc1 	b.ne	1bd4 <update_out_gp11_param+0x28>  // b.any
/home/avees/Linux_for_Tegra/sources/tegra/optee-src/nv-optee/optee/optee_os/lib/libutee/tee_api.c:235
    1c20:	a94153f3 	ldp	x19, x20, [sp, #16]
    1c24:	a9425bf5 	ldp	x21, x22, [sp, #32]
    1c28:	a94363f7 	ldp	x23, x24, [sp, #48]
    1c2c:	a8c47bfd 	ldp	x29, x30, [sp], #64
    1c30:	d65f03c0 	ret
/home/avees/Linux_for_Tegra/sources/tegra/optee-src/nv-optee/optee/optee_os/lib/libutee/tee_api.c:226
    1c34:	f8757b01 	ldr	x1, [x24, x21, lsl #3]
    1c38:	b40000c1 	cbz	x1, 1c50 <update_out_gp11_param+0xa4>
/home/avees/Linux_for_Tegra/sources/tegra/optee-src/nv-optee/optee/optee_os/lib/libutee/tee_api.c:228
    1c3c:	b9400a62 	ldr	w2, [x19, #8]
/home/avees/Linux_for_Tegra/sources/tegra/optee-src/nv-optee/optee/optee_os/lib/libutee/tee_api.c:227
    1c40:	f9400260 	ldr	x0, [x19]
/home/avees/Linux_for_Tegra/sources/tegra/optee-src/nv-optee/optee/optee_os/lib/libutee/tee_api.c:228
    1c44:	eb16005f 	cmp	x2, x22
/home/avees/Linux_for_Tegra/sources/tegra/optee-src/nv-optee/optee/optee_os/lib/libutee/tee_api.c:227
    1c48:	9a969042 	csel	x2, x2, x22, ls  // ls = plast
    1c4c:	97fff8f5 	bl	20 <memcpy>
/home/avees/Linux_for_Tegra/sources/tegra/optee-src/nv-optee/optee/optee_os/lib/libutee/tee_api.c:229
    1c50:	b9000a76 	str	w22, [x19, #8]
/home/avees/Linux_for_Tegra/sources/tegra/optee-src/nv-optee/optee/optee_os/lib/libutee/tee_api.c:230
    1c54:	17ffffee 	b	1c0c <update_out_gp11_param+0x60>

0000000000001c58 <TEE_CloseTASession>:
TEE_CloseTASession():
/home/avees/Linux_for_Tegra/sources/tegra/optee-src/nv-optee/optee/optee_os/lib/libutee/tee_api.c:415
    1c58:	b4000120 	cbz	x0, 1c7c <TEE_CloseTASession+0x24>
/home/avees/Linux_for_Tegra/sources/tegra/optee-src/nv-optee/optee/optee_os/lib/libutee/tee_api.c:414
    1c5c:	a9bf7bfd 	stp	x29, x30, [sp, #-16]!
    1c60:	910003fd 	mov	x29, sp
/home/avees/Linux_for_Tegra/sources/tegra/optee-src/nv-optee/optee/optee_os/lib/libutee/tee_api.c:416
    1c64:	94000dc5 	bl	5378 <_utee_close_ta_session>
/home/avees/Linux_for_Tegra/sources/tegra/optee-src/nv-optee/optee/optee_os/lib/libutee/tee_api.c:418
    1c68:	34000060 	cbz	w0, 1c74 <TEE_CloseTASession+0x1c>
/home/avees/Linux_for_Tegra/sources/tegra/optee-src/nv-optee/optee/optee_os/lib/libutee/tee_api.c:421
    1c6c:	a8c17bfd 	ldp	x29, x30, [sp], #16
/home/avees/Linux_for_Tegra/sources/tegra/optee-src/nv-optee/optee/optee_os/lib/libutee/tee_api.c:419
    1c70:	14000a09 	b	4494 <TEE_Panic>
/home/avees/Linux_for_Tegra/sources/tegra/optee-src/nv-optee/optee/optee_os/lib/libutee/tee_api.c:421
    1c74:	a8c17bfd 	ldp	x29, x30, [sp], #16
    1c78:	d65f03c0 	ret
    1c7c:	d65f03c0 	ret

0000000000001c80 <TEE_GetCancellationFlag>:
TEE_GetCancellationFlag():
/home/avees/Linux_for_Tegra/sources/tegra/optee-src/nv-optee/optee/optee_os/lib/libutee/tee_api.c:530
    1c80:	a9be7bfd 	stp	x29, x30, [sp, #-32]!
    1c84:	d0000081 	adrp	x1, 13000 <_DYNAMIC>
    1c88:	910003fd 	mov	x29, sp
    1c8c:	f9409821 	ldr	x1, [x1, #304]
    1c90:	f9400020 	ldr	x0, [x1]
    1c94:	f9000fe0 	str	x0, [sp, #24]
    1c98:	d2800000 	mov	x0, #0x0                   	// #0
/home/avees/Linux_for_Tegra/sources/tegra/optee-src/nv-optee/optee/optee_os/lib/libutee/tee_api.c:532
    1c9c:	910053e0 	add	x0, sp, #0x14
    1ca0:	94000dbc 	bl	5390 <_utee_get_cancellation_flag>
/home/avees/Linux_for_Tegra/sources/tegra/optee-src/nv-optee/optee/optee_os/lib/libutee/tee_api.c:534
    1ca4:	34000040 	cbz	w0, 1cac <TEE_GetCancellationFlag+0x2c>
/home/avees/Linux_for_Tegra/sources/tegra/optee-src/nv-optee/optee/optee_os/lib/libutee/tee_api.c:535
    1ca8:	b90017ff 	str	wzr, [sp, #20]
/home/avees/Linux_for_Tegra/sources/tegra/optee-src/nv-optee/optee/optee_os/lib/libutee/tee_api.c:537
    1cac:	d0000081 	adrp	x1, 13000 <_DYNAMIC>
/home/avees/Linux_for_Tegra/sources/tegra/optee-src/nv-optee/optee/optee_os/lib/libutee/tee_api.c:536
    1cb0:	b94017e0 	ldr	w0, [sp, #20]
/home/avees/Linux_for_Tegra/sources/tegra/optee-src/nv-optee/optee/optee_os/lib/libutee/tee_api.c:537
    1cb4:	f9409821 	ldr	x1, [x1, #304]
/home/avees/Linux_for_Tegra/sources/tegra/optee-src/nv-optee/optee/optee_os/lib/libutee/tee_api.c:536
    1cb8:	7100001f 	cmp	w0, #0x0
    1cbc:	1a9f07e0 	cset	w0, ne  // ne = any
/home/avees/Linux_for_Tegra/sources/tegra/optee-src/nv-optee/optee/optee_os/lib/libutee/tee_api.c:537
    1cc0:	f9400fe2 	ldr	x2, [sp, #24]
    1cc4:	f9400023 	ldr	x3, [x1]
    1cc8:	eb030042 	subs	x2, x2, x3
    1ccc:	d2800003 	mov	x3, #0x0                   	// #0
    1cd0:	54000040 	b.eq	1cd8 <TEE_GetCancellationFlag+0x58>  // b.none
    1cd4:	97fffa10 	bl	514 <__stack_chk_fail>
    1cd8:	a8c27bfd 	ldp	x29, x30, [sp], #32
    1cdc:	d65f03c0 	ret

0000000000001ce0 <TEE_UnmaskCancellation>:
TEE_UnmaskCancellation():
/home/avees/Linux_for_Tegra/sources/tegra/optee-src/nv-optee/optee/optee_os/lib/libutee/tee_api.c:540
    1ce0:	a9be7bfd 	stp	x29, x30, [sp, #-32]!
    1ce4:	d0000081 	adrp	x1, 13000 <_DYNAMIC>
    1ce8:	910003fd 	mov	x29, sp
    1cec:	f9409821 	ldr	x1, [x1, #304]
    1cf0:	f9400020 	ldr	x0, [x1]
    1cf4:	f9000fe0 	str	x0, [sp, #24]
    1cf8:	d2800000 	mov	x0, #0x0                   	// #0
/home/avees/Linux_for_Tegra/sources/tegra/optee-src/nv-optee/optee/optee_os/lib/libutee/tee_api.c:542
    1cfc:	910053e0 	add	x0, sp, #0x14
    1d00:	94000daa 	bl	53a8 <_utee_unmask_cancellation>
/home/avees/Linux_for_Tegra/sources/tegra/optee-src/nv-optee/optee/optee_os/lib/libutee/tee_api.c:544
    1d04:	34000040 	cbz	w0, 1d0c <TEE_UnmaskCancellation+0x2c>
/home/avees/Linux_for_Tegra/sources/tegra/optee-src/nv-optee/optee/optee_os/lib/libutee/tee_api.c:545
    1d08:	940009e3 	bl	4494 <TEE_Panic>
/home/avees/Linux_for_Tegra/sources/tegra/optee-src/nv-optee/optee/optee_os/lib/libutee/tee_api.c:547
    1d0c:	d0000081 	adrp	x1, 13000 <_DYNAMIC>
/home/avees/Linux_for_Tegra/sources/tegra/optee-src/nv-optee/optee/optee_os/lib/libutee/tee_api.c:546
    1d10:	b94017e0 	ldr	w0, [sp, #20]
/home/avees/Linux_for_Tegra/sources/tegra/optee-src/nv-optee/optee/optee_os/lib/libutee/tee_api.c:547
    1d14:	f9409821 	ldr	x1, [x1, #304]
/home/avees/Linux_for_Tegra/sources/tegra/optee-src/nv-optee/optee/optee_os/lib/libutee/tee_api.c:546
    1d18:	7100001f 	cmp	w0, #0x0
    1d1c:	1a9f07e0 	cset	w0, ne  // ne = any
/home/avees/Linux_for_Tegra/sources/tegra/optee-src/nv-optee/optee/optee_os/lib/libutee/tee_api.c:547
    1d20:	f9400fe2 	ldr	x2, [sp, #24]
    1d24:	f9400023 	ldr	x3, [x1]
    1d28:	eb030042 	subs	x2, x2, x3
    1d2c:	d2800003 	mov	x3, #0x0                   	// #0
    1d30:	54000040 	b.eq	1d38 <TEE_UnmaskCancellation+0x58>  // b.none
    1d34:	97fff9f8 	bl	514 <__stack_chk_fail>
    1d38:	a8c27bfd 	ldp	x29, x30, [sp], #32
    1d3c:	d65f03c0 	ret

0000000000001d40 <TEE_MaskCancellation>:
TEE_MaskCancellation():
/home/avees/Linux_for_Tegra/sources/tegra/optee-src/nv-optee/optee/optee_os/lib/libutee/tee_api.c:550
    1d40:	a9be7bfd 	stp	x29, x30, [sp, #-32]!
    1d44:	d0000081 	adrp	x1, 13000 <_DYNAMIC>
    1d48:	910003fd 	mov	x29, sp
    1d4c:	f9409821 	ldr	x1, [x1, #304]
    1d50:	f9400020 	ldr	x0, [x1]
    1d54:	f9000fe0 	str	x0, [sp, #24]
    1d58:	d2800000 	mov	x0, #0x0                   	// #0
/home/avees/Linux_for_Tegra/sources/tegra/optee-src/nv-optee/optee/optee_os/lib/libutee/tee_api.c:552
    1d5c:	910053e0 	add	x0, sp, #0x14
    1d60:	94000d95 	bl	53b4 <_utee_mask_cancellation>
/home/avees/Linux_for_Tegra/sources/tegra/optee-src/nv-optee/optee/optee_os/lib/libutee/tee_api.c:554
    1d64:	34000040 	cbz	w0, 1d6c <TEE_MaskCancellation+0x2c>
/home/avees/Linux_for_Tegra/sources/tegra/optee-src/nv-optee/optee/optee_os/lib/libutee/tee_api.c:555
    1d68:	940009cb 	bl	4494 <TEE_Panic>
/home/avees/Linux_for_Tegra/sources/tegra/optee-src/nv-optee/optee/optee_os/lib/libutee/tee_api.c:557
    1d6c:	d0000081 	adrp	x1, 13000 <_DYNAMIC>
/home/avees/Linux_for_Tegra/sources/tegra/optee-src/nv-optee/optee/optee_os/lib/libutee/tee_api.c:556
    1d70:	b94017e0 	ldr	w0, [sp, #20]
/home/avees/Linux_for_Tegra/sources/tegra/optee-src/nv-optee/optee/optee_os/lib/libutee/tee_api.c:557
    1d74:	f9409821 	ldr	x1, [x1, #304]
/home/avees/Linux_for_Tegra/sources/tegra/optee-src/nv-optee/optee/optee_os/lib/libutee/tee_api.c:556
    1d78:	7100001f 	cmp	w0, #0x0
    1d7c:	1a9f07e0 	cset	w0, ne  // ne = any
/home/avees/Linux_for_Tegra/sources/tegra/optee-src/nv-optee/optee/optee_os/lib/libutee/tee_api.c:557
    1d80:	f9400fe2 	ldr	x2, [sp, #24]
    1d84:	f9400023 	ldr	x3, [x1]
    1d88:	eb030042 	subs	x2, x2, x3
    1d8c:	d2800003 	mov	x3, #0x0                   	// #0
    1d90:	54000040 	b.eq	1d98 <TEE_MaskCancellation+0x58>  // b.none
    1d94:	97fff9e0 	bl	514 <__stack_chk_fail>
    1d98:	a8c27bfd 	ldp	x29, x30, [sp], #32
    1d9c:	d65f03c0 	ret

0000000000001da0 <TEE_CheckMemoryAccessRights>:
TEE_CheckMemoryAccessRights():
/home/avees/Linux_for_Tegra/sources/tegra/optee-src/nv-optee/optee/optee_os/lib/libutee/tee_api.c:566
    1da0:	b5000102 	cbnz	x2, 1dc0 <TEE_CheckMemoryAccessRights+0x20>
/home/avees/Linux_for_Tegra/sources/tegra/optee-src/nv-optee/optee/optee_os/lib/libutee/tee_api.c:567
    1da4:	52800000 	mov	w0, #0x0                   	// #0
/home/avees/Linux_for_Tegra/sources/tegra/optee-src/nv-optee/optee/optee_os/lib/libutee/tee_api.c:592
    1da8:	d65f03c0 	ret
/home/avees/Linux_for_Tegra/sources/tegra/optee-src/nv-optee/optee/optee_os/lib/libutee/tee_api.c:567
    1dac:	52800000 	mov	w0, #0x0                   	// #0
/home/avees/Linux_for_Tegra/sources/tegra/optee-src/nv-optee/optee/optee_os/lib/libutee/tee_api.c:592
    1db0:	a94153f3 	ldp	x19, x20, [sp, #16]
    1db4:	f94013f5 	ldr	x21, [sp, #32]
    1db8:	a8c37bfd 	ldp	x29, x30, [sp], #48
    1dbc:	d65f03c0 	ret
/home/avees/Linux_for_Tegra/sources/tegra/optee-src/nv-optee/optee/optee_os/lib/libutee/tee_api.c:563
    1dc0:	a9bd7bfd 	stp	x29, x30, [sp, #-48]!
    1dc4:	910003fd 	mov	x29, sp
    1dc8:	a90153f3 	stp	x19, x20, [sp, #16]
    1dcc:	aa0103f4 	mov	x20, x1
    1dd0:	aa0203f3 	mov	x19, x2
    1dd4:	f90013f5 	str	x21, [sp, #32]
    1dd8:	2a0003f5 	mov	w21, w0
/home/avees/Linux_for_Tegra/sources/tegra/optee-src/nv-optee/optee/optee_os/lib/libutee/tee_api.c:573
    1ddc:	94000d70 	bl	539c <_utee_check_access_rights>
    1de0:	35000200 	cbnz	w0, 1e20 <TEE_CheckMemoryAccessRights+0x80>
/home/avees/Linux_for_Tegra/sources/tegra/optee-src/nv-optee/optee/optee_os/lib/libutee/tee_api.c:584
    1de4:	aa1303e2 	mov	x2, x19
    1de8:	aa1403e1 	mov	x1, x20
    1dec:	12000aa0 	and	w0, w21, #0x7
    1df0:	97fffee5 	bl	1984 <check_mem_access_rights_params>
    1df4:	35000160 	cbnz	w0, 1e20 <TEE_CheckMemoryAccessRights+0x80>
/home/avees/Linux_for_Tegra/sources/tegra/optee-src/nv-optee/optee/optee_os/lib/libutee/tee_api.c:587
    1df8:	aa1303e1 	mov	x1, x19
    1dfc:	aa1403e0 	mov	x0, x20
    1e00:	9400313b 	bl	e2ec <malloc_buffer_overlaps_heap>
    1e04:	72001c1f 	tst	w0, #0xff
    1e08:	54fffd20 	b.eq	1dac <TEE_CheckMemoryAccessRights+0xc>  // b.none
/home/avees/Linux_for_Tegra/sources/tegra/optee-src/nv-optee/optee/optee_os/lib/libutee/tee_api.c:588
    1e0c:	aa1303e1 	mov	x1, x19
    1e10:	aa1403e0 	mov	x0, x20
    1e14:	94003131 	bl	e2d8 <malloc_buffer_is_within_alloced>
/home/avees/Linux_for_Tegra/sources/tegra/optee-src/nv-optee/optee/optee_os/lib/libutee/tee_api.c:587
    1e18:	72001c1f 	tst	w0, #0xff
    1e1c:	54fffc81 	b.ne	1dac <TEE_CheckMemoryAccessRights+0xc>  // b.any
/home/avees/Linux_for_Tegra/sources/tegra/optee-src/nv-optee/optee/optee_os/lib/libutee/tee_api.c:589
    1e20:	129fffc0 	mov	w0, #0xffff0001            	// #-65535
    1e24:	17ffffe3 	b	1db0 <TEE_CheckMemoryAccessRights+0x10>

0000000000001e28 <map_tmp_param>:
map_tmp_param():
/home/avees/Linux_for_Tegra/sources/tegra/optee-src/nv-optee/optee/optee_os/lib/libutee/tee_api.c:98
    1e28:	a9b87bfd 	stp	x29, x30, [sp, #-128]!
    1e2c:	d0000084 	adrp	x4, 13000 <_DYNAMIC>
    1e30:	910003fd 	mov	x29, sp
    1e34:	f9409884 	ldr	x4, [x4, #304]
    1e38:	a9046bf9 	stp	x25, x26, [sp, #64]
    1e3c:	aa0003f9 	mov	x25, x0
    1e40:	a90153f3 	stp	x19, x20, [sp, #16]
    1e44:	f9400080 	ldr	x0, [x4]
    1e48:	f9003fe0 	str	x0, [sp, #120]
    1e4c:	d2800000 	mov	x0, #0x0                   	// #0
/home/avees/Linux_for_Tegra/sources/tegra/optee-src/nv-optee/optee/optee_os/lib/libutee/tee_api.c:101
    1e50:	d280001a 	mov	x26, #0x0                   	// #0
/home/avees/Linux_for_Tegra/sources/tegra/optee-src/nv-optee/optee/optee_os/lib/libutee/tee_api.c:98
    1e54:	a9025bf5 	stp	x21, x22, [sp, #32]
    1e58:	aa0203f6 	mov	x22, x2
    1e5c:	aa0303f5 	mov	x21, x3
    1e60:	a90363f7 	stp	x23, x24, [sp, #48]
    1e64:	91002338 	add	x24, x25, #0x8
    1e68:	aa0103f7 	mov	x23, x1
    1e6c:	a90573fb 	stp	x27, x28, [sp, #80]
/home/avees/Linux_for_Tegra/sources/tegra/optee-src/nv-optee/optee/optee_os/lib/libutee/tee_api.c:115
    1e70:	aa1803fb 	mov	x27, x24
/home/avees/Linux_for_Tegra/sources/tegra/optee-src/nv-optee/optee/optee_os/lib/libutee/tee_api.c:135
    1e74:	9101c3fc 	add	x28, sp, #0x70
/home/avees/Linux_for_Tegra/sources/tegra/optee-src/nv-optee/optee/optee_os/lib/libutee/tee_api.c:114
    1e78:	f900003f 	str	xzr, [x1]
/home/avees/Linux_for_Tegra/sources/tegra/optee-src/nv-optee/optee/optee_os/lib/libutee/tee_api.c:116
    1e7c:	d2800013 	mov	x19, #0x0                   	// #0
/home/avees/Linux_for_Tegra/sources/tegra/optee-src/nv-optee/optee/optee_os/lib/libutee/tee_api.c:135
    1e80:	52800023 	mov	w3, #0x1                   	// #1
/home/avees/Linux_for_Tegra/sources/tegra/optee-src/nv-optee/optee/optee_os/lib/libutee/tee_api.c:115
    1e84:	f900005f 	str	xzr, [x2]
/home/avees/Linux_for_Tegra/sources/tegra/optee-src/nv-optee/optee/optee_os/lib/libutee/tee_api.c:103
    1e88:	b90073ff 	str	wzr, [sp, #112]
/home/avees/Linux_for_Tegra/sources/tegra/optee-src/nv-optee/optee/optee_os/lib/libutee/tee_api.c:118
    1e8c:	f9400321 	ldr	x1, [x25]
    1e90:	531e7660 	lsl	w0, w19, #2
/home/avees/Linux_for_Tegra/sources/tegra/optee-src/nv-optee/optee/optee_os/lib/libutee/tee_api.c:117
    1e94:	f8337abf 	str	xzr, [x21, x19, lsl #3]
/home/avees/Linux_for_Tegra/sources/tegra/optee-src/nv-optee/optee/optee_os/lib/libutee/tee_api.c:118
    1e98:	1ac02421 	lsr	w1, w1, w0
    1e9c:	12000c21 	and	w1, w1, #0xf
    1ea0:	51001421 	sub	w1, w1, #0x5
    1ea4:	7100083f 	cmp	w1, #0x2
    1ea8:	540001e8 	b.hi	1ee4 <map_tmp_param+0xbc>  // b.pmore
/home/avees/Linux_for_Tegra/sources/tegra/optee-src/nv-optee/optee/optee_os/lib/libutee/tee_api.c:123
    1eac:	a9405361 	ldp	x1, x20, [x27]
/home/avees/Linux_for_Tegra/sources/tegra/optee-src/nv-optee/optee/optee_os/lib/libutee/tee_api.c:133
    1eb0:	f100003f 	cmp	x1, #0x0
    1eb4:	fa401a84 	ccmp	x20, #0x0, #0x4, ne  // ne = any
    1eb8:	54000160 	b.eq	1ee4 <map_tmp_param+0xbc>  // b.none
/home/avees/Linux_for_Tegra/sources/tegra/optee-src/nv-optee/optee/optee_os/lib/libutee/tee_api.c:134 (discriminator 1)
    1ebc:	aa1403e2 	mov	x2, x20
    1ec0:	52800020 	mov	w0, #0x1                   	// #1
    1ec4:	b9006fe3 	str	w3, [sp, #108]
    1ec8:	97ffffb6 	bl	1da0 <TEE_CheckMemoryAccessRights>
/home/avees/Linux_for_Tegra/sources/tegra/optee-src/nv-optee/optee/optee_os/lib/libutee/tee_api.c:133 (discriminator 1)
    1ecc:	b9406fe3 	ldr	w3, [sp, #108]
    1ed0:	350000a0 	cbnz	w0, 1ee4 <map_tmp_param+0xbc>
/home/avees/Linux_for_Tegra/sources/tegra/optee-src/nv-optee/optee/optee_os/lib/libutee/tee_api.c:136
    1ed4:	91003e94 	add	x20, x20, #0xf
/home/avees/Linux_for_Tegra/sources/tegra/optee-src/nv-optee/optee/optee_os/lib/libutee/tee_api.c:135
    1ed8:	383c6a63 	strb	w3, [x19, x28]
/home/avees/Linux_for_Tegra/sources/tegra/optee-src/nv-optee/optee/optee_os/lib/libutee/tee_api.c:136
    1edc:	927cee94 	and	x20, x20, #0xfffffffffffffff0
    1ee0:	8b14035a 	add	x26, x26, x20
/home/avees/Linux_for_Tegra/sources/tegra/optee-src/nv-optee/optee/optee_os/lib/libutee/tee_api.c:116 (discriminator 2)
    1ee4:	91000673 	add	x19, x19, #0x1
    1ee8:	9100437b 	add	x27, x27, #0x10
    1eec:	f100127f 	cmp	x19, #0x4
    1ef0:	54fffce1 	b.ne	1e8c <map_tmp_param+0x64>  // b.any
/home/avees/Linux_for_Tegra/sources/tegra/optee-src/nv-optee/optee/optee_os/lib/libutee/tee_api.c:144
    1ef4:	b400053a 	cbz	x26, 1f98 <map_tmp_param+0x170>
/home/avees/Linux_for_Tegra/sources/tegra/optee-src/nv-optee/optee/optee_os/lib/libutee/tee_api.c:145
    1ef8:	2a1303e1 	mov	w1, w19
    1efc:	aa1a03e0 	mov	x0, x26
    1f00:	94000a07 	bl	471c <tee_map_zi>
/home/avees/Linux_for_Tegra/sources/tegra/optee-src/nv-optee/optee/optee_os/lib/libutee/tee_api.c:146
    1f04:	b40004e0 	cbz	x0, 1fa0 <map_tmp_param+0x178>
/home/avees/Linux_for_Tegra/sources/tegra/optee-src/nv-optee/optee/optee_os/lib/libutee/tee_api.c:148
    1f08:	f90002e0 	str	x0, [x23]
/home/avees/Linux_for_Tegra/sources/tegra/optee-src/nv-optee/optee/optee_os/lib/libutee/tee_api.c:149
    1f0c:	f90002da 	str	x26, [x22]
/home/avees/Linux_for_Tegra/sources/tegra/optee-src/nv-optee/optee/optee_os/lib/libutee/tee_api.c:157
    1f10:	9101c3f6 	add	x22, sp, #0x70
/home/avees/Linux_for_Tegra/sources/tegra/optee-src/nv-optee/optee/optee_os/lib/libutee/tee_api.c:100
    1f14:	d2800013 	mov	x19, #0x0                   	// #0
/home/avees/Linux_for_Tegra/sources/tegra/optee-src/nv-optee/optee/optee_os/lib/libutee/tee_api.c:153
    1f18:	f9400323 	ldr	x3, [x25]
    1f1c:	531e7661 	lsl	w1, w19, #2
    1f20:	1ac12463 	lsr	w3, w3, w1
    1f24:	12000c63 	and	w3, w3, #0xf
    1f28:	51001461 	sub	w1, w3, #0x5
    1f2c:	7100083f 	cmp	w1, #0x2
    1f30:	540001a8 	b.hi	1f64 <map_tmp_param+0x13c>  // b.pmore
/home/avees/Linux_for_Tegra/sources/tegra/optee-src/nv-optee/optee/optee_os/lib/libutee/tee_api.c:157
    1f34:	38766a61 	ldrb	w1, [x19, x22]
    1f38:	34000161 	cbz	w1, 1f64 <map_tmp_param+0x13c>
/home/avees/Linux_for_Tegra/sources/tegra/optee-src/nv-optee/optee/optee_os/lib/libutee/tee_api.c:159
    1f3c:	a9400b01 	ldp	x1, x2, [x24]
/home/avees/Linux_for_Tegra/sources/tegra/optee-src/nv-optee/optee/optee_os/lib/libutee/tee_api.c:161
    1f40:	f8337aa0 	str	x0, [x21, x19, lsl #3]
/home/avees/Linux_for_Tegra/sources/tegra/optee-src/nv-optee/optee/optee_os/lib/libutee/tee_api.c:163
    1f44:	f9000300 	str	x0, [x24]
/home/avees/Linux_for_Tegra/sources/tegra/optee-src/nv-optee/optee/optee_os/lib/libutee/tee_api.c:164
    1f48:	7100187f 	cmp	w3, #0x6
/home/avees/Linux_for_Tegra/sources/tegra/optee-src/nv-optee/optee/optee_os/lib/libutee/tee_api.c:162
    1f4c:	91003c54 	add	x20, x2, #0xf
    1f50:	927cee94 	and	x20, x20, #0xfffffffffffffff0
    1f54:	8b140014 	add	x20, x0, x20
/home/avees/Linux_for_Tegra/sources/tegra/optee-src/nv-optee/optee/optee_os/lib/libutee/tee_api.c:164
    1f58:	54000040 	b.eq	1f60 <map_tmp_param+0x138>  // b.none
/home/avees/Linux_for_Tegra/sources/tegra/optee-src/nv-optee/optee/optee_os/lib/libutee/tee_api.c:166
    1f5c:	97fff831 	bl	20 <memcpy>
/home/avees/Linux_for_Tegra/sources/tegra/optee-src/nv-optee/optee/optee_os/lib/libutee/tee_api.c:162
    1f60:	aa1403e0 	mov	x0, x20
/home/avees/Linux_for_Tegra/sources/tegra/optee-src/nv-optee/optee/optee_os/lib/libutee/tee_api.c:152 (discriminator 2)
    1f64:	91000673 	add	x19, x19, #0x1
    1f68:	91004318 	add	x24, x24, #0x10
    1f6c:	f100127f 	cmp	x19, #0x4
    1f70:	54fffd41 	b.ne	1f18 <map_tmp_param+0xf0>  // b.any
/home/avees/Linux_for_Tegra/sources/tegra/optee-src/nv-optee/optee/optee_os/lib/libutee/tee_api.c:173
    1f74:	52800000 	mov	w0, #0x0                   	// #0
/home/avees/Linux_for_Tegra/sources/tegra/optee-src/nv-optee/optee/optee_os/lib/libutee/tee_api.c:175
    1f78:	d0000084 	adrp	x4, 13000 <_DYNAMIC>
    1f7c:	f9409884 	ldr	x4, [x4, #304]
    1f80:	f9403fe1 	ldr	x1, [sp, #120]
    1f84:	f9400082 	ldr	x2, [x4]
    1f88:	eb020021 	subs	x1, x1, x2
    1f8c:	d2800002 	mov	x2, #0x0                   	// #0
    1f90:	540000c0 	b.eq	1fa8 <map_tmp_param+0x180>  // b.none
    1f94:	97fff960 	bl	514 <__stack_chk_fail>
/home/avees/Linux_for_Tegra/sources/tegra/optee-src/nv-optee/optee/optee_os/lib/libutee/tee_api.c:100
    1f98:	d2800000 	mov	x0, #0x0                   	// #0
    1f9c:	17ffffdd 	b	1f10 <map_tmp_param+0xe8>
/home/avees/Linux_for_Tegra/sources/tegra/optee-src/nv-optee/optee/optee_os/lib/libutee/tee_api.c:147
    1fa0:	129ffe60 	mov	w0, #0xffff000c            	// #-65524
    1fa4:	17fffff5 	b	1f78 <map_tmp_param+0x150>
/home/avees/Linux_for_Tegra/sources/tegra/optee-src/nv-optee/optee/optee_os/lib/libutee/tee_api.c:175
    1fa8:	a94153f3 	ldp	x19, x20, [sp, #16]
    1fac:	a9425bf5 	ldp	x21, x22, [sp, #32]
    1fb0:	a94363f7 	ldp	x23, x24, [sp, #48]
    1fb4:	a9446bf9 	ldp	x25, x26, [sp, #64]
    1fb8:	a94573fb 	ldp	x27, x28, [sp, #80]
    1fbc:	a8c87bfd 	ldp	x29, x30, [sp], #128
    1fc0:	d65f03c0 	ret

0000000000001fc4 <TEE_OpenTASession>:
TEE_OpenTASession():
/home/avees/Linux_for_Tegra/sources/tegra/optee-src/nv-optee/optee/optee_os/lib/libutee/tee_api.c:323
    1fc4:	a9b27bfd 	stp	x29, x30, [sp, #-224]!
    1fc8:	d0000086 	adrp	x6, 13000 <_DYNAMIC>
    1fcc:	910003fd 	mov	x29, sp
    1fd0:	f94098c6 	ldr	x6, [x6, #304]
    1fd4:	a90363f7 	stp	x23, x24, [sp, #48]
    1fd8:	aa0003f7 	mov	x23, x0
    1fdc:	f94000c0 	ldr	x0, [x6]
    1fe0:	f9006fe0 	str	x0, [sp, #216]
    1fe4:	d2800000 	mov	x0, #0x0                   	// #0
    1fe8:	a90153f3 	stp	x19, x20, [sp, #16]
    1fec:	2a0103f8 	mov	w24, w1
    1ff0:	a9025bf5 	stp	x21, x22, [sp, #32]
    1ff4:	2a0203f3 	mov	w19, w2
    1ff8:	aa0303f4 	mov	x20, x3
    1ffc:	a9046bf9 	stp	x25, x26, [sp, #64]
    2000:	aa0403f5 	mov	x21, x4
    2004:	aa0503f9 	mov	x25, x5
/home/avees/Linux_for_Tegra/sources/tegra/optee-src/nv-optee/optee/optee_os/lib/libutee/tee_api.c:326
    2008:	b9005fff 	str	wzr, [sp, #92]
/home/avees/Linux_for_Tegra/sources/tegra/optee-src/nv-optee/optee/optee_os/lib/libutee/tee_api.c:328
    200c:	a9067fff 	stp	xzr, xzr, [sp, #96]
/home/avees/Linux_for_Tegra/sources/tegra/optee-src/nv-optee/optee/optee_os/lib/libutee/tee_api.c:329
    2010:	a9077fff 	stp	xzr, xzr, [sp, #112]
    2014:	a9087fff 	stp	xzr, xzr, [sp, #128]
/home/avees/Linux_for_Tegra/sources/tegra/optee-src/nv-optee/optee/optee_os/lib/libutee/tee_api.c:325
    2018:	a9097fff 	stp	xzr, xzr, [sp, #144]
    201c:	a90a7fff 	stp	xzr, xzr, [sp, #160]
    2020:	a90b7fff 	stp	xzr, xzr, [sp, #176]
    2024:	a90c7fff 	stp	xzr, xzr, [sp, #192]
    2028:	f9006bff 	str	xzr, [sp, #208]
/home/avees/Linux_for_Tegra/sources/tegra/optee-src/nv-optee/optee/optee_os/lib/libutee/tee_api.c:331
    202c:	340000e2 	cbz	w2, 2048 <TEE_OpenTASession+0x84>
/home/avees/Linux_for_Tegra/sources/tegra/optee-src/nv-optee/optee/optee_os/lib/libutee/tee_api.c:332
    2030:	aa0303e0 	mov	x0, x3
    2034:	d2800801 	mov	x1, #0x40                  	// #64
    2038:	9400098f 	bl	4674 <__utee_check_inout_annotation>
/home/avees/Linux_for_Tegra/sources/tegra/optee-src/nv-optee/optee/optee_os/lib/libutee/tee_api.c:335
    203c:	aa1403e1 	mov	x1, x20
    2040:	2a1303e0 	mov	w0, w19
    2044:	97fffe86 	bl	1a5c <check_invoke_param>
/home/avees/Linux_for_Tegra/sources/tegra/optee-src/nv-optee/optee/optee_os/lib/libutee/tee_api.c:337
    2048:	aa1503e0 	mov	x0, x21
/home/avees/Linux_for_Tegra/sources/tegra/optee-src/nv-optee/optee/optee_os/lib/libutee/tee_api.c:339
    204c:	910243f6 	add	x22, sp, #0x90
/home/avees/Linux_for_Tegra/sources/tegra/optee-src/nv-optee/optee/optee_os/lib/libutee/tee_api.c:337
    2050:	d2800101 	mov	x1, #0x8                   	// #8
    2054:	9400096e 	bl	460c <__utee_check_out_annotation>
/home/avees/Linux_for_Tegra/sources/tegra/optee-src/nv-optee/optee/optee_os/lib/libutee/tee_api.c:339
    2058:	2a1303e1 	mov	w1, w19
    205c:	aa1403e2 	mov	x2, x20
    2060:	aa1603e0 	mov	x0, x22
/home/avees/Linux_for_Tegra/sources/tegra/optee-src/nv-optee/optee/optee_os/lib/libutee/tee_api.c:340
    2064:	9101c3fa 	add	x26, sp, #0x70
/home/avees/Linux_for_Tegra/sources/tegra/optee-src/nv-optee/optee/optee_os/lib/libutee/tee_api.c:339
    2068:	97fffe10 	bl	18a8 <copy_param>
/home/avees/Linux_for_Tegra/sources/tegra/optee-src/nv-optee/optee/optee_os/lib/libutee/tee_api.c:340
    206c:	aa1a03e3 	mov	x3, x26
    2070:	9101a3e2 	add	x2, sp, #0x68
    2074:	910183e1 	add	x1, sp, #0x60
    2078:	aa1603e0 	mov	x0, x22
    207c:	97ffff6b 	bl	1e28 <map_tmp_param>
    2080:	2a0003f3 	mov	w19, w0
/home/avees/Linux_for_Tegra/sources/tegra/optee-src/nv-optee/optee/optee_os/lib/libutee/tee_api.c:341
    2084:	35000260 	cbnz	w0, 20d0 <TEE_OpenTASession+0x10c>
/home/avees/Linux_for_Tegra/sources/tegra/optee-src/nv-optee/optee/optee_os/lib/libutee/tee_api.c:343
    2088:	aa1903e4 	mov	x4, x25
    208c:	910173e3 	add	x3, sp, #0x5c
    2090:	aa1603e2 	mov	x2, x22
    2094:	2a1803e1 	mov	w1, w24
    2098:	aa1703e0 	mov	x0, x23
    209c:	94000cb4 	bl	536c <_utee_open_ta_session>
/home/avees/Linux_for_Tegra/sources/tegra/optee-src/nv-optee/optee/optee_os/lib/libutee/tee_api.c:345
    20a0:	aa1603e2 	mov	x2, x22
/home/avees/Linux_for_Tegra/sources/tegra/optee-src/nv-optee/optee/optee_os/lib/libutee/tee_api.c:343
    20a4:	2a0003f3 	mov	w19, w0
/home/avees/Linux_for_Tegra/sources/tegra/optee-src/nv-optee/optee/optee_os/lib/libutee/tee_api.c:345
    20a8:	aa1a03e1 	mov	x1, x26
    20ac:	aa1403e0 	mov	x0, x20
    20b0:	97fffe95 	bl	1b04 <update_out_param>
/home/avees/Linux_for_Tegra/sources/tegra/optee-src/nv-optee/optee/optee_os/lib/libutee/tee_api.c:346
    20b4:	f94033e0 	ldr	x0, [sp, #96]
    20b8:	b40000a0 	cbz	x0, 20cc <TEE_OpenTASession+0x108>
/home/avees/Linux_for_Tegra/sources/tegra/optee-src/nv-optee/optee/optee_os/lib/libutee/tee_api.c:347
    20bc:	f94037e1 	ldr	x1, [sp, #104]
    20c0:	940009c3 	bl	47cc <tee_unmap>
/home/avees/Linux_for_Tegra/sources/tegra/optee-src/nv-optee/optee/optee_os/lib/libutee/tee_api.c:349
    20c4:	34000040 	cbz	w0, 20cc <TEE_OpenTASession+0x108>
/home/avees/Linux_for_Tegra/sources/tegra/optee-src/nv-optee/optee/optee_os/lib/libutee/tee_api.c:350
    20c8:	940008f3 	bl	4494 <TEE_Panic>
/home/avees/Linux_for_Tegra/sources/tegra/optee-src/nv-optee/optee/optee_os/lib/libutee/tee_api.c:359
    20cc:	34000053 	cbz	w19, 20d4 <TEE_OpenTASession+0x110>
/home/avees/Linux_for_Tegra/sources/tegra/optee-src/nv-optee/optee/optee_os/lib/libutee/tee_api.c:360
    20d0:	b9005fff 	str	wzr, [sp, #92]
/home/avees/Linux_for_Tegra/sources/tegra/optee-src/nv-optee/optee/optee_os/lib/libutee/tee_api.c:364
    20d4:	b0000086 	adrp	x6, 13000 <_DYNAMIC>
/home/avees/Linux_for_Tegra/sources/tegra/optee-src/nv-optee/optee/optee_os/lib/libutee/tee_api.c:362
    20d8:	b9405fe0 	ldr	w0, [sp, #92]
    20dc:	f90002a0 	str	x0, [x21]
/home/avees/Linux_for_Tegra/sources/tegra/optee-src/nv-optee/optee/optee_os/lib/libutee/tee_api.c:364
    20e0:	f94098c6 	ldr	x6, [x6, #304]
    20e4:	f9406fe0 	ldr	x0, [sp, #216]
    20e8:	f94000c1 	ldr	x1, [x6]
    20ec:	eb010000 	subs	x0, x0, x1
    20f0:	d2800001 	mov	x1, #0x0                   	// #0
    20f4:	54000040 	b.eq	20fc <TEE_OpenTASession+0x138>  // b.none
    20f8:	97fff907 	bl	514 <__stack_chk_fail>
    20fc:	2a1303e0 	mov	w0, w19
    2100:	a94153f3 	ldp	x19, x20, [sp, #16]
    2104:	a9425bf5 	ldp	x21, x22, [sp, #32]
    2108:	a94363f7 	ldp	x23, x24, [sp, #48]
    210c:	a9446bf9 	ldp	x25, x26, [sp, #64]
    2110:	a8ce7bfd 	ldp	x29, x30, [sp], #224
    2114:	d65f03c0 	ret

0000000000002118 <__GP11_TEE_OpenTASession>:
__GP11_TEE_OpenTASession():
/home/avees/Linux_for_Tegra/sources/tegra/optee-src/nv-optee/optee/optee_os/lib/libutee/tee_api.c:372
    2118:	a9b27bfd 	stp	x29, x30, [sp, #-224]!
    211c:	b0000086 	adrp	x6, 13000 <_DYNAMIC>
    2120:	910003fd 	mov	x29, sp
    2124:	f94098c6 	ldr	x6, [x6, #304]
    2128:	a90363f7 	stp	x23, x24, [sp, #48]
    212c:	aa0003f7 	mov	x23, x0
    2130:	f94000c0 	ldr	x0, [x6]
    2134:	f9006fe0 	str	x0, [sp, #216]
    2138:	d2800000 	mov	x0, #0x0                   	// #0
    213c:	a90153f3 	stp	x19, x20, [sp, #16]
    2140:	2a0103f8 	mov	w24, w1
    2144:	a9025bf5 	stp	x21, x22, [sp, #32]
    2148:	2a0203f3 	mov	w19, w2
    214c:	aa0303f4 	mov	x20, x3
    2150:	a9046bf9 	stp	x25, x26, [sp, #64]
    2154:	aa0403f5 	mov	x21, x4
    2158:	aa0503f9 	mov	x25, x5
/home/avees/Linux_for_Tegra/sources/tegra/optee-src/nv-optee/optee/optee_os/lib/libutee/tee_api.c:375
    215c:	b9005fff 	str	wzr, [sp, #92]
/home/avees/Linux_for_Tegra/sources/tegra/optee-src/nv-optee/optee/optee_os/lib/libutee/tee_api.c:377
    2160:	a9067fff 	stp	xzr, xzr, [sp, #96]
/home/avees/Linux_for_Tegra/sources/tegra/optee-src/nv-optee/optee/optee_os/lib/libutee/tee_api.c:378
    2164:	a9077fff 	stp	xzr, xzr, [sp, #112]
    2168:	a9087fff 	stp	xzr, xzr, [sp, #128]
/home/avees/Linux_for_Tegra/sources/tegra/optee-src/nv-optee/optee/optee_os/lib/libutee/tee_api.c:374
    216c:	a9097fff 	stp	xzr, xzr, [sp, #144]
    2170:	a90a7fff 	stp	xzr, xzr, [sp, #160]
    2174:	a90b7fff 	stp	xzr, xzr, [sp, #176]
    2178:	a90c7fff 	stp	xzr, xzr, [sp, #192]
    217c:	f9006bff 	str	xzr, [sp, #208]
/home/avees/Linux_for_Tegra/sources/tegra/optee-src/nv-optee/optee/optee_os/lib/libutee/tee_api.c:380
    2180:	34000082 	cbz	w2, 2190 <__GP11_TEE_OpenTASession+0x78>
/home/avees/Linux_for_Tegra/sources/tegra/optee-src/nv-optee/optee/optee_os/lib/libutee/tee_api.c:381
    2184:	aa0303e0 	mov	x0, x3
    2188:	d2800801 	mov	x1, #0x40                  	// #64
    218c:	9400093a 	bl	4674 <__utee_check_inout_annotation>
/home/avees/Linux_for_Tegra/sources/tegra/optee-src/nv-optee/optee/optee_os/lib/libutee/tee_api.c:384
    2190:	aa1503e0 	mov	x0, x21
/home/avees/Linux_for_Tegra/sources/tegra/optee-src/nv-optee/optee/optee_os/lib/libutee/tee_api.c:386
    2194:	910243f6 	add	x22, sp, #0x90
/home/avees/Linux_for_Tegra/sources/tegra/optee-src/nv-optee/optee/optee_os/lib/libutee/tee_api.c:384
    2198:	d2800101 	mov	x1, #0x8                   	// #8
    219c:	9400091c 	bl	460c <__utee_check_out_annotation>
/home/avees/Linux_for_Tegra/sources/tegra/optee-src/nv-optee/optee/optee_os/lib/libutee/tee_api.c:386
    21a0:	2a1303e1 	mov	w1, w19
    21a4:	aa1403e2 	mov	x2, x20
    21a8:	aa1603e0 	mov	x0, x22
/home/avees/Linux_for_Tegra/sources/tegra/optee-src/nv-optee/optee/optee_os/lib/libutee/tee_api.c:387
    21ac:	9101c3fa 	add	x26, sp, #0x70
/home/avees/Linux_for_Tegra/sources/tegra/optee-src/nv-optee/optee/optee_os/lib/libutee/tee_api.c:386
    21b0:	97fffdd9 	bl	1914 <copy_gp11_param>
/home/avees/Linux_for_Tegra/sources/tegra/optee-src/nv-optee/optee/optee_os/lib/libutee/tee_api.c:387
    21b4:	aa1a03e3 	mov	x3, x26
    21b8:	9101a3e2 	add	x2, sp, #0x68
    21bc:	910183e1 	add	x1, sp, #0x60
    21c0:	aa1603e0 	mov	x0, x22
    21c4:	97ffff19 	bl	1e28 <map_tmp_param>
    21c8:	2a0003f3 	mov	w19, w0
/home/avees/Linux_for_Tegra/sources/tegra/optee-src/nv-optee/optee/optee_os/lib/libutee/tee_api.c:388
    21cc:	35000260 	cbnz	w0, 2218 <__GP11_TEE_OpenTASession+0x100>
/home/avees/Linux_for_Tegra/sources/tegra/optee-src/nv-optee/optee/optee_os/lib/libutee/tee_api.c:390
    21d0:	aa1903e4 	mov	x4, x25
    21d4:	910173e3 	add	x3, sp, #0x5c
    21d8:	aa1603e2 	mov	x2, x22
    21dc:	2a1803e1 	mov	w1, w24
    21e0:	aa1703e0 	mov	x0, x23
    21e4:	94000c62 	bl	536c <_utee_open_ta_session>
/home/avees/Linux_for_Tegra/sources/tegra/optee-src/nv-optee/optee/optee_os/lib/libutee/tee_api.c:392
    21e8:	aa1603e2 	mov	x2, x22
/home/avees/Linux_for_Tegra/sources/tegra/optee-src/nv-optee/optee/optee_os/lib/libutee/tee_api.c:390
    21ec:	2a0003f3 	mov	w19, w0
/home/avees/Linux_for_Tegra/sources/tegra/optee-src/nv-optee/optee/optee_os/lib/libutee/tee_api.c:392
    21f0:	aa1a03e1 	mov	x1, x26
    21f4:	aa1403e0 	mov	x0, x20
    21f8:	97fffe6d 	bl	1bac <update_out_gp11_param>
/home/avees/Linux_for_Tegra/sources/tegra/optee-src/nv-optee/optee/optee_os/lib/libutee/tee_api.c:393
    21fc:	f94033e0 	ldr	x0, [sp, #96]
    2200:	b40000a0 	cbz	x0, 2214 <__GP11_TEE_OpenTASession+0xfc>
/home/avees/Linux_for_Tegra/sources/tegra/optee-src/nv-optee/optee/optee_os/lib/libutee/tee_api.c:394
    2204:	f94037e1 	ldr	x1, [sp, #104]
    2208:	94000971 	bl	47cc <tee_unmap>
/home/avees/Linux_for_Tegra/sources/tegra/optee-src/nv-optee/optee/optee_os/lib/libutee/tee_api.c:396
    220c:	34000040 	cbz	w0, 2214 <__GP11_TEE_OpenTASession+0xfc>
/home/avees/Linux_for_Tegra/sources/tegra/optee-src/nv-optee/optee/optee_os/lib/libutee/tee_api.c:397
    2210:	940008a1 	bl	4494 <TEE_Panic>
/home/avees/Linux_for_Tegra/sources/tegra/optee-src/nv-optee/optee/optee_os/lib/libutee/tee_api.c:406
    2214:	34000053 	cbz	w19, 221c <__GP11_TEE_OpenTASession+0x104>
/home/avees/Linux_for_Tegra/sources/tegra/optee-src/nv-optee/optee/optee_os/lib/libutee/tee_api.c:407
    2218:	b9005fff 	str	wzr, [sp, #92]
/home/avees/Linux_for_Tegra/sources/tegra/optee-src/nv-optee/optee/optee_os/lib/libutee/tee_api.c:411
    221c:	b0000086 	adrp	x6, 13000 <_DYNAMIC>
/home/avees/Linux_for_Tegra/sources/tegra/optee-src/nv-optee/optee/optee_os/lib/libutee/tee_api.c:409
    2220:	b9405fe0 	ldr	w0, [sp, #92]
    2224:	f90002a0 	str	x0, [x21]
/home/avees/Linux_for_Tegra/sources/tegra/optee-src/nv-optee/optee/optee_os/lib/libutee/tee_api.c:411
    2228:	f94098c6 	ldr	x6, [x6, #304]
    222c:	f9406fe0 	ldr	x0, [sp, #216]
    2230:	f94000c1 	ldr	x1, [x6]
    2234:	eb010000 	subs	x0, x0, x1
    2238:	d2800001 	mov	x1, #0x0                   	// #0
    223c:	54000040 	b.eq	2244 <__GP11_TEE_OpenTASession+0x12c>  // b.none
    2240:	97fff8b5 	bl	514 <__stack_chk_fail>
    2244:	2a1303e0 	mov	w0, w19
    2248:	a94153f3 	ldp	x19, x20, [sp, #16]
    224c:	a9425bf5 	ldp	x21, x22, [sp, #32]
    2250:	a94363f7 	ldp	x23, x24, [sp, #48]
    2254:	a9446bf9 	ldp	x25, x26, [sp, #64]
    2258:	a8ce7bfd 	ldp	x29, x30, [sp], #224
    225c:	d65f03c0 	ret

0000000000002260 <TEE_InvokeTACommand>:
TEE_InvokeTACommand():
/home/avees/Linux_for_Tegra/sources/tegra/optee-src/nv-optee/optee/optee_os/lib/libutee/tee_api.c:428
    2260:	a9b27bfd 	stp	x29, x30, [sp, #-224]!
    2264:	b0000086 	adrp	x6, 13000 <_DYNAMIC>
    2268:	910003fd 	mov	x29, sp
    226c:	f94098c6 	ldr	x6, [x6, #304]
    2270:	a9025bf5 	stp	x21, x22, [sp, #32]
    2274:	aa0003f6 	mov	x22, x0
    2278:	f94000c0 	ldr	x0, [x6]
    227c:	f9006fe0 	str	x0, [sp, #216]
    2280:	d2800000 	mov	x0, #0x0                   	// #0
    2284:	a90153f3 	stp	x19, x20, [sp, #16]
/home/avees/Linux_for_Tegra/sources/tegra/optee-src/nv-optee/optee/optee_os/lib/libutee/tee_api.c:430
    2288:	52800060 	mov	w0, #0x3                   	// #3
/home/avees/Linux_for_Tegra/sources/tegra/optee-src/nv-optee/optee/optee_os/lib/libutee/tee_api.c:428
    228c:	a90363f7 	stp	x23, x24, [sp, #48]
    2290:	2a0303f3 	mov	w19, w3
    2294:	2a0103f7 	mov	w23, w1
    2298:	a9046bf9 	stp	x25, x26, [sp, #64]
    229c:	2a0203f8 	mov	w24, w2
    22a0:	aa0403f5 	mov	x21, x4
/home/avees/Linux_for_Tegra/sources/tegra/optee-src/nv-optee/optee/optee_os/lib/libutee/tee_api.c:430
    22a4:	b9005fe0 	str	w0, [sp, #92]
/home/avees/Linux_for_Tegra/sources/tegra/optee-src/nv-optee/optee/optee_os/lib/libutee/tee_api.c:428
    22a8:	aa0503f4 	mov	x20, x5
/home/avees/Linux_for_Tegra/sources/tegra/optee-src/nv-optee/optee/optee_os/lib/libutee/tee_api.c:433
    22ac:	a9067fff 	stp	xzr, xzr, [sp, #96]
/home/avees/Linux_for_Tegra/sources/tegra/optee-src/nv-optee/optee/optee_os/lib/libutee/tee_api.c:434
    22b0:	a9077fff 	stp	xzr, xzr, [sp, #112]
    22b4:	a9087fff 	stp	xzr, xzr, [sp, #128]
/home/avees/Linux_for_Tegra/sources/tegra/optee-src/nv-optee/optee/optee_os/lib/libutee/tee_api.c:431
    22b8:	a9097fff 	stp	xzr, xzr, [sp, #144]
    22bc:	a90a7fff 	stp	xzr, xzr, [sp, #160]
    22c0:	a90b7fff 	stp	xzr, xzr, [sp, #176]
    22c4:	a90c7fff 	stp	xzr, xzr, [sp, #192]
    22c8:	f9006bff 	str	xzr, [sp, #208]
/home/avees/Linux_for_Tegra/sources/tegra/optee-src/nv-optee/optee/optee_os/lib/libutee/tee_api.c:436
    22cc:	340000e3 	cbz	w3, 22e8 <TEE_InvokeTACommand+0x88>
/home/avees/Linux_for_Tegra/sources/tegra/optee-src/nv-optee/optee/optee_os/lib/libutee/tee_api.c:437
    22d0:	aa0403e0 	mov	x0, x4
    22d4:	d2800801 	mov	x1, #0x40                  	// #64
    22d8:	940008e7 	bl	4674 <__utee_check_inout_annotation>
/home/avees/Linux_for_Tegra/sources/tegra/optee-src/nv-optee/optee/optee_os/lib/libutee/tee_api.c:440
    22dc:	aa1503e1 	mov	x1, x21
    22e0:	2a1303e0 	mov	w0, w19
    22e4:	97fffdde 	bl	1a5c <check_invoke_param>
/home/avees/Linux_for_Tegra/sources/tegra/optee-src/nv-optee/optee/optee_os/lib/libutee/tee_api.c:442
    22e8:	b4000094 	cbz	x20, 22f8 <TEE_InvokeTACommand+0x98>
/home/avees/Linux_for_Tegra/sources/tegra/optee-src/nv-optee/optee/optee_os/lib/libutee/tee_api.c:443
    22ec:	aa1403e0 	mov	x0, x20
    22f0:	d2800081 	mov	x1, #0x4                   	// #4
    22f4:	940008c6 	bl	460c <__utee_check_out_annotation>
/home/avees/Linux_for_Tegra/sources/tegra/optee-src/nv-optee/optee/optee_os/lib/libutee/tee_api.c:446
    22f8:	910243f9 	add	x25, sp, #0x90
    22fc:	2a1303e1 	mov	w1, w19
    2300:	aa1503e2 	mov	x2, x21
    2304:	aa1903e0 	mov	x0, x25
/home/avees/Linux_for_Tegra/sources/tegra/optee-src/nv-optee/optee/optee_os/lib/libutee/tee_api.c:447
    2308:	9101c3fa 	add	x26, sp, #0x70
/home/avees/Linux_for_Tegra/sources/tegra/optee-src/nv-optee/optee/optee_os/lib/libutee/tee_api.c:446
    230c:	97fffd67 	bl	18a8 <copy_param>
/home/avees/Linux_for_Tegra/sources/tegra/optee-src/nv-optee/optee/optee_os/lib/libutee/tee_api.c:447
    2310:	aa1a03e3 	mov	x3, x26
    2314:	9101a3e2 	add	x2, sp, #0x68
    2318:	910183e1 	add	x1, sp, #0x60
    231c:	aa1903e0 	mov	x0, x25
    2320:	97fffec2 	bl	1e28 <map_tmp_param>
    2324:	2a0003f3 	mov	w19, w0
/home/avees/Linux_for_Tegra/sources/tegra/optee-src/nv-optee/optee/optee_os/lib/libutee/tee_api.c:448
    2328:	35000240 	cbnz	w0, 2370 <TEE_InvokeTACommand+0x110>
/home/avees/Linux_for_Tegra/sources/tegra/optee-src/nv-optee/optee/optee_os/lib/libutee/tee_api.c:450
    232c:	910173e4 	add	x4, sp, #0x5c
    2330:	aa1903e3 	mov	x3, x25
    2334:	2a1803e2 	mov	w2, w24
    2338:	2a1703e1 	mov	w1, w23
    233c:	aa1603e0 	mov	x0, x22
    2340:	94000c11 	bl	5384 <_utee_invoke_ta_command>
/home/avees/Linux_for_Tegra/sources/tegra/optee-src/nv-optee/optee/optee_os/lib/libutee/tee_api.c:453
    2344:	aa1903e2 	mov	x2, x25
/home/avees/Linux_for_Tegra/sources/tegra/optee-src/nv-optee/optee/optee_os/lib/libutee/tee_api.c:450
    2348:	2a0003f3 	mov	w19, w0
/home/avees/Linux_for_Tegra/sources/tegra/optee-src/nv-optee/optee/optee_os/lib/libutee/tee_api.c:453
    234c:	aa1a03e1 	mov	x1, x26
    2350:	aa1503e0 	mov	x0, x21
    2354:	97fffdec 	bl	1b04 <update_out_param>
/home/avees/Linux_for_Tegra/sources/tegra/optee-src/nv-optee/optee/optee_os/lib/libutee/tee_api.c:454
    2358:	f94033e0 	ldr	x0, [sp, #96]
    235c:	b40000a0 	cbz	x0, 2370 <TEE_InvokeTACommand+0x110>
/home/avees/Linux_for_Tegra/sources/tegra/optee-src/nv-optee/optee/optee_os/lib/libutee/tee_api.c:455
    2360:	f94037e1 	ldr	x1, [sp, #104]
    2364:	9400091a 	bl	47cc <tee_unmap>
/home/avees/Linux_for_Tegra/sources/tegra/optee-src/nv-optee/optee/optee_os/lib/libutee/tee_api.c:457
    2368:	34000040 	cbz	w0, 2370 <TEE_InvokeTACommand+0x110>
/home/avees/Linux_for_Tegra/sources/tegra/optee-src/nv-optee/optee/optee_os/lib/libutee/tee_api.c:458
    236c:	9400084a 	bl	4494 <TEE_Panic>
/home/avees/Linux_for_Tegra/sources/tegra/optee-src/nv-optee/optee/optee_os/lib/libutee/tee_api.c:462
    2370:	b9405fe0 	ldr	w0, [sp, #92]
    2374:	b4000054 	cbz	x20, 237c <TEE_InvokeTACommand+0x11c>
/home/avees/Linux_for_Tegra/sources/tegra/optee-src/nv-optee/optee/optee_os/lib/libutee/tee_api.c:463
    2378:	b9000280 	str	w0, [x20]
/home/avees/Linux_for_Tegra/sources/tegra/optee-src/nv-optee/optee/optee_os/lib/libutee/tee_api.c:465
    237c:	7100101f 	cmp	w0, #0x4
    2380:	54000140 	b.eq	23a8 <TEE_InvokeTACommand+0x148>  // b.none
/home/avees/Linux_for_Tegra/sources/tegra/optee-src/nv-optee/optee/optee_os/lib/libutee/tee_api.c:468
    2384:	7100027f 	cmp	w19, #0x0
    2388:	129ffe60 	mov	w0, #0xffff000c            	// #-65524
    238c:	7a401264 	ccmp	w19, w0, #0x4, ne  // ne = any
    2390:	540000c0 	b.eq	23a8 <TEE_InvokeTACommand+0x148>  // b.none
/home/avees/Linux_for_Tegra/sources/tegra/optee-src/nv-optee/optee/optee_os/lib/libutee/tee_api.c:469
    2394:	1299fb60 	mov	w0, #0xffff3024            	// #-53212
    2398:	6b00027f 	cmp	w19, w0
    239c:	54000060 	b.eq	23a8 <TEE_InvokeTACommand+0x148>  // b.none
/home/avees/Linux_for_Tegra/sources/tegra/optee-src/nv-optee/optee/optee_os/lib/libutee/tee_api.c:471
    23a0:	2a1303e0 	mov	w0, w19
    23a4:	9400083c 	bl	4494 <TEE_Panic>
/home/avees/Linux_for_Tegra/sources/tegra/optee-src/nv-optee/optee/optee_os/lib/libutee/tee_api.c:474
    23a8:	b0000086 	adrp	x6, 13000 <_DYNAMIC>
    23ac:	f94098c6 	ldr	x6, [x6, #304]
    23b0:	f9406fe0 	ldr	x0, [sp, #216]
    23b4:	f94000c1 	ldr	x1, [x6]
    23b8:	eb010000 	subs	x0, x0, x1
    23bc:	d2800001 	mov	x1, #0x0                   	// #0
    23c0:	54000040 	b.eq	23c8 <TEE_InvokeTACommand+0x168>  // b.none
    23c4:	97fff854 	bl	514 <__stack_chk_fail>
    23c8:	2a1303e0 	mov	w0, w19
    23cc:	a94153f3 	ldp	x19, x20, [sp, #16]
    23d0:	a9425bf5 	ldp	x21, x22, [sp, #32]
    23d4:	a94363f7 	ldp	x23, x24, [sp, #48]
    23d8:	a9446bf9 	ldp	x25, x26, [sp, #64]
    23dc:	a8ce7bfd 	ldp	x29, x30, [sp], #224
    23e0:	d65f03c0 	ret

00000000000023e4 <__GP11_TEE_InvokeTACommand>:
__GP11_TEE_InvokeTACommand():
/home/avees/Linux_for_Tegra/sources/tegra/optee-src/nv-optee/optee/optee_os/lib/libutee/tee_api.c:481
    23e4:	a9b27bfd 	stp	x29, x30, [sp, #-224]!
    23e8:	b0000086 	adrp	x6, 13000 <_DYNAMIC>
    23ec:	910003fd 	mov	x29, sp
    23f0:	f94098c6 	ldr	x6, [x6, #304]
    23f4:	a90363f7 	stp	x23, x24, [sp, #48]
    23f8:	aa0003f7 	mov	x23, x0
    23fc:	f94000c0 	ldr	x0, [x6]
    2400:	f9006fe0 	str	x0, [sp, #216]
    2404:	d2800000 	mov	x0, #0x0                   	// #0
    2408:	a90153f3 	stp	x19, x20, [sp, #16]
/home/avees/Linux_for_Tegra/sources/tegra/optee-src/nv-optee/optee/optee_os/lib/libutee/tee_api.c:483
    240c:	52800060 	mov	w0, #0x3                   	// #3
/home/avees/Linux_for_Tegra/sources/tegra/optee-src/nv-optee/optee/optee_os/lib/libutee/tee_api.c:481
    2410:	a9025bf5 	stp	x21, x22, [sp, #32]
    2414:	2a0103f8 	mov	w24, w1
    2418:	2a0303f3 	mov	w19, w3
    241c:	a9046bf9 	stp	x25, x26, [sp, #64]
    2420:	aa0403f5 	mov	x21, x4
    2424:	2a0203f9 	mov	w25, w2
/home/avees/Linux_for_Tegra/sources/tegra/optee-src/nv-optee/optee/optee_os/lib/libutee/tee_api.c:483
    2428:	b9005fe0 	str	w0, [sp, #92]
/home/avees/Linux_for_Tegra/sources/tegra/optee-src/nv-optee/optee/optee_os/lib/libutee/tee_api.c:481
    242c:	aa0503f4 	mov	x20, x5
/home/avees/Linux_for_Tegra/sources/tegra/optee-src/nv-optee/optee/optee_os/lib/libutee/tee_api.c:486
    2430:	a9067fff 	stp	xzr, xzr, [sp, #96]
/home/avees/Linux_for_Tegra/sources/tegra/optee-src/nv-optee/optee/optee_os/lib/libutee/tee_api.c:487
    2434:	a9077fff 	stp	xzr, xzr, [sp, #112]
    2438:	a9087fff 	stp	xzr, xzr, [sp, #128]
/home/avees/Linux_for_Tegra/sources/tegra/optee-src/nv-optee/optee/optee_os/lib/libutee/tee_api.c:484
    243c:	a9097fff 	stp	xzr, xzr, [sp, #144]
    2440:	a90a7fff 	stp	xzr, xzr, [sp, #160]
    2444:	a90b7fff 	stp	xzr, xzr, [sp, #176]
    2448:	a90c7fff 	stp	xzr, xzr, [sp, #192]
    244c:	f9006bff 	str	xzr, [sp, #208]
/home/avees/Linux_for_Tegra/sources/tegra/optee-src/nv-optee/optee/optee_os/lib/libutee/tee_api.c:489
    2450:	34000083 	cbz	w3, 2460 <__GP11_TEE_InvokeTACommand+0x7c>
/home/avees/Linux_for_Tegra/sources/tegra/optee-src/nv-optee/optee/optee_os/lib/libutee/tee_api.c:490
    2454:	aa0403e0 	mov	x0, x4
    2458:	d2800801 	mov	x1, #0x40                  	// #64
    245c:	94000886 	bl	4674 <__utee_check_inout_annotation>
/home/avees/Linux_for_Tegra/sources/tegra/optee-src/nv-optee/optee/optee_os/lib/libutee/tee_api.c:493
    2460:	b4000094 	cbz	x20, 2470 <__GP11_TEE_InvokeTACommand+0x8c>
/home/avees/Linux_for_Tegra/sources/tegra/optee-src/nv-optee/optee/optee_os/lib/libutee/tee_api.c:494
    2464:	aa1403e0 	mov	x0, x20
    2468:	d2800081 	mov	x1, #0x4                   	// #4
    246c:	94000868 	bl	460c <__utee_check_out_annotation>
/home/avees/Linux_for_Tegra/sources/tegra/optee-src/nv-optee/optee/optee_os/lib/libutee/tee_api.c:497
    2470:	910243f6 	add	x22, sp, #0x90
    2474:	2a1303e1 	mov	w1, w19
    2478:	aa1503e2 	mov	x2, x21
    247c:	aa1603e0 	mov	x0, x22
/home/avees/Linux_for_Tegra/sources/tegra/optee-src/nv-optee/optee/optee_os/lib/libutee/tee_api.c:498
    2480:	9101c3fa 	add	x26, sp, #0x70
/home/avees/Linux_for_Tegra/sources/tegra/optee-src/nv-optee/optee/optee_os/lib/libutee/tee_api.c:497
    2484:	97fffd24 	bl	1914 <copy_gp11_param>
/home/avees/Linux_for_Tegra/sources/tegra/optee-src/nv-optee/optee/optee_os/lib/libutee/tee_api.c:498
    2488:	aa1a03e3 	mov	x3, x26
    248c:	9101a3e2 	add	x2, sp, #0x68
    2490:	910183e1 	add	x1, sp, #0x60
    2494:	aa1603e0 	mov	x0, x22
    2498:	97fffe64 	bl	1e28 <map_tmp_param>
    249c:	2a0003f3 	mov	w19, w0
/home/avees/Linux_for_Tegra/sources/tegra/optee-src/nv-optee/optee/optee_os/lib/libutee/tee_api.c:499
    24a0:	35000240 	cbnz	w0, 24e8 <__GP11_TEE_InvokeTACommand+0x104>
/home/avees/Linux_for_Tegra/sources/tegra/optee-src/nv-optee/optee/optee_os/lib/libutee/tee_api.c:501
    24a4:	910173e4 	add	x4, sp, #0x5c
    24a8:	aa1603e3 	mov	x3, x22
    24ac:	2a1903e2 	mov	w2, w25
    24b0:	2a1803e1 	mov	w1, w24
    24b4:	aa1703e0 	mov	x0, x23
    24b8:	94000bb3 	bl	5384 <_utee_invoke_ta_command>
/home/avees/Linux_for_Tegra/sources/tegra/optee-src/nv-optee/optee/optee_os/lib/libutee/tee_api.c:504
    24bc:	aa1603e2 	mov	x2, x22
/home/avees/Linux_for_Tegra/sources/tegra/optee-src/nv-optee/optee/optee_os/lib/libutee/tee_api.c:501
    24c0:	2a0003f3 	mov	w19, w0
/home/avees/Linux_for_Tegra/sources/tegra/optee-src/nv-optee/optee/optee_os/lib/libutee/tee_api.c:504
    24c4:	aa1a03e1 	mov	x1, x26
    24c8:	aa1503e0 	mov	x0, x21
    24cc:	97fffdb8 	bl	1bac <update_out_gp11_param>
/home/avees/Linux_for_Tegra/sources/tegra/optee-src/nv-optee/optee/optee_os/lib/libutee/tee_api.c:505
    24d0:	f94033e0 	ldr	x0, [sp, #96]
    24d4:	b40000a0 	cbz	x0, 24e8 <__GP11_TEE_InvokeTACommand+0x104>
/home/avees/Linux_for_Tegra/sources/tegra/optee-src/nv-optee/optee/optee_os/lib/libutee/tee_api.c:506
    24d8:	f94037e1 	ldr	x1, [sp, #104]
    24dc:	940008bc 	bl	47cc <tee_unmap>
/home/avees/Linux_for_Tegra/sources/tegra/optee-src/nv-optee/optee/optee_os/lib/libutee/tee_api.c:508
    24e0:	34000040 	cbz	w0, 24e8 <__GP11_TEE_InvokeTACommand+0x104>
/home/avees/Linux_for_Tegra/sources/tegra/optee-src/nv-optee/optee/optee_os/lib/libutee/tee_api.c:509
    24e4:	940007ec 	bl	4494 <TEE_Panic>
/home/avees/Linux_for_Tegra/sources/tegra/optee-src/nv-optee/optee/optee_os/lib/libutee/tee_api.c:513
    24e8:	b9405fe0 	ldr	w0, [sp, #92]
    24ec:	b4000054 	cbz	x20, 24f4 <__GP11_TEE_InvokeTACommand+0x110>
/home/avees/Linux_for_Tegra/sources/tegra/optee-src/nv-optee/optee/optee_os/lib/libutee/tee_api.c:514
    24f0:	b9000280 	str	w0, [x20]
/home/avees/Linux_for_Tegra/sources/tegra/optee-src/nv-optee/optee/optee_os/lib/libutee/tee_api.c:516
    24f4:	7100101f 	cmp	w0, #0x4
    24f8:	54000140 	b.eq	2520 <__GP11_TEE_InvokeTACommand+0x13c>  // b.none
/home/avees/Linux_for_Tegra/sources/tegra/optee-src/nv-optee/optee/optee_os/lib/libutee/tee_api.c:519
    24fc:	7100027f 	cmp	w19, #0x0
    2500:	129ffe60 	mov	w0, #0xffff000c            	// #-65524
    2504:	7a401264 	ccmp	w19, w0, #0x4, ne  // ne = any
    2508:	540000c0 	b.eq	2520 <__GP11_TEE_InvokeTACommand+0x13c>  // b.none
/home/avees/Linux_for_Tegra/sources/tegra/optee-src/nv-optee/optee/optee_os/lib/libutee/tee_api.c:520
    250c:	1299fb60 	mov	w0, #0xffff3024            	// #-53212
    2510:	6b00027f 	cmp	w19, w0
    2514:	54000060 	b.eq	2520 <__GP11_TEE_InvokeTACommand+0x13c>  // b.none
/home/avees/Linux_for_Tegra/sources/tegra/optee-src/nv-optee/optee/optee_os/lib/libutee/tee_api.c:522
    2518:	2a1303e0 	mov	w0, w19
    251c:	940007de 	bl	4494 <TEE_Panic>
/home/avees/Linux_for_Tegra/sources/tegra/optee-src/nv-optee/optee/optee_os/lib/libutee/tee_api.c:525
    2520:	b0000086 	adrp	x6, 13000 <_DYNAMIC>
    2524:	f94098c6 	ldr	x6, [x6, #304]
    2528:	f9406fe0 	ldr	x0, [sp, #216]
    252c:	f94000c1 	ldr	x1, [x6]
    2530:	eb010000 	subs	x0, x0, x1
    2534:	d2800001 	mov	x1, #0x0                   	// #0
    2538:	54000040 	b.eq	2540 <__GP11_TEE_InvokeTACommand+0x15c>  // b.none
    253c:	97fff7f6 	bl	514 <__stack_chk_fail>
    2540:	2a1303e0 	mov	w0, w19
    2544:	a94153f3 	ldp	x19, x20, [sp, #16]
    2548:	a9425bf5 	ldp	x21, x22, [sp, #32]
    254c:	a94363f7 	ldp	x23, x24, [sp, #48]
    2550:	a9446bf9 	ldp	x25, x26, [sp, #64]
    2554:	a8ce7bfd 	ldp	x29, x30, [sp], #224
    2558:	d65f03c0 	ret

000000000000255c <__GP11_TEE_CheckMemoryAccessRights>:
__GP11_TEE_CheckMemoryAccessRights():
/home/avees/Linux_for_Tegra/sources/tegra/optee-src/nv-optee/optee/optee_os/lib/libutee/tee_api.c:597
    255c:	2a0203e2 	mov	w2, w2
    2560:	17fffe10 	b	1da0 <TEE_CheckMemoryAccessRights>

0000000000002564 <TEE_SetInstanceData>:
TEE_SetInstanceData():
/home/avees/Linux_for_Tegra/sources/tegra/optee-src/nv-optee/optee/optee_os/lib/libutee/tee_api.c:602
    2564:	b0000081 	adrp	x1, 13000 <_DYNAMIC>
    2568:	f902c820 	str	x0, [x1, #1424]
/home/avees/Linux_for_Tegra/sources/tegra/optee-src/nv-optee/optee/optee_os/lib/libutee/tee_api.c:603
    256c:	d65f03c0 	ret

0000000000002570 <TEE_GetInstanceData>:
TEE_GetInstanceData():
/home/avees/Linux_for_Tegra/sources/tegra/optee-src/nv-optee/optee/optee_os/lib/libutee/tee_api.c:608
    2570:	b0000080 	adrp	x0, 13000 <_DYNAMIC>
    2574:	f942c800 	ldr	x0, [x0, #1424]
    2578:	d65f03c0 	ret

000000000000257c <TEE_MemMove>:
TEE_MemMove():
/home/avees/Linux_for_Tegra/sources/tegra/optee-src/nv-optee/optee/optee_os/lib/libutee/tee_api.c:612
    257c:	14002fab 	b	e428 <memmove>

0000000000002580 <__GP11_TEE_MemMove>:
__GP11_TEE_MemMove():
/home/avees/Linux_for_Tegra/sources/tegra/optee-src/nv-optee/optee/optee_os/lib/libutee/tee_api.c:617
    2580:	2a0203e2 	mov	w2, w2
    2584:	17fffffe 	b	257c <TEE_MemMove>

0000000000002588 <TEE_MemCompare>:
TEE_MemCompare():
/home/avees/Linux_for_Tegra/sources/tegra/optee-src/nv-optee/optee/optee_os/lib/libutee/tee_api.c:622
    2588:	14003049 	b	e6ac <consttime_memcmp>

000000000000258c <__GP11_TEE_MemCompare>:
__GP11_TEE_MemCompare():
/home/avees/Linux_for_Tegra/sources/tegra/optee-src/nv-optee/optee/optee_os/lib/libutee/tee_api.c:628
    258c:	2a0203e2 	mov	w2, w2
    2590:	17fffffe 	b	2588 <TEE_MemCompare>

0000000000002594 <TEE_MemFill>:
TEE_MemFill():
/home/avees/Linux_for_Tegra/sources/tegra/optee-src/nv-optee/optee/optee_os/lib/libutee/tee_api.c:633
    2594:	14002fbc 	b	e484 <memset>

0000000000002598 <__GP11_TEE_MemFill>:
__GP11_TEE_MemFill():
/home/avees/Linux_for_Tegra/sources/tegra/optee-src/nv-optee/optee/optee_os/lib/libutee/tee_api.c:638
    2598:	2a0203e2 	mov	w2, w2
    259c:	17fffffe 	b	2594 <TEE_MemFill>

00000000000025a0 <TEE_GetSystemTime>:
TEE_GetSystemTime():
/home/avees/Linux_for_Tegra/sources/tegra/optee-src/nv-optee/optee/optee_os/lib/libutee/tee_api.c:644
    25a0:	a9bf7bfd 	stp	x29, x30, [sp, #-16]!
/home/avees/Linux_for_Tegra/sources/tegra/optee-src/nv-optee/optee/optee_os/lib/libutee/tee_api.c:645
    25a4:	aa0003e1 	mov	x1, x0
    25a8:	d2800000 	mov	x0, #0x0                   	// #0
/home/avees/Linux_for_Tegra/sources/tegra/optee-src/nv-optee/optee/optee_os/lib/libutee/tee_api.c:644
    25ac:	910003fd 	mov	x29, sp
/home/avees/Linux_for_Tegra/sources/tegra/optee-src/nv-optee/optee/optee_os/lib/libutee/tee_api.c:645
    25b0:	94000b87 	bl	53cc <_utee_get_time>
/home/avees/Linux_for_Tegra/sources/tegra/optee-src/nv-optee/optee/optee_os/lib/libutee/tee_api.c:647
    25b4:	34000060 	cbz	w0, 25c0 <TEE_GetSystemTime+0x20>
/home/avees/Linux_for_Tegra/sources/tegra/optee-src/nv-optee/optee/optee_os/lib/libutee/tee_api.c:649
    25b8:	a8c17bfd 	ldp	x29, x30, [sp], #16
/home/avees/Linux_for_Tegra/sources/tegra/optee-src/nv-optee/optee/optee_os/lib/libutee/tee_api.c:648
    25bc:	140007b6 	b	4494 <TEE_Panic>
/home/avees/Linux_for_Tegra/sources/tegra/optee-src/nv-optee/optee/optee_os/lib/libutee/tee_api.c:649
    25c0:	a8c17bfd 	ldp	x29, x30, [sp], #16
    25c4:	d65f03c0 	ret

00000000000025c8 <TEE_Wait>:
TEE_Wait():
/home/avees/Linux_for_Tegra/sources/tegra/optee-src/nv-optee/optee/optee_os/lib/libutee/tee_api.c:652
    25c8:	a9be7bfd 	stp	x29, x30, [sp, #-32]!
/home/avees/Linux_for_Tegra/sources/tegra/optee-src/nv-optee/optee/optee_os/lib/libutee/tee_api.c:653
    25cc:	2a0003e0 	mov	w0, w0
/home/avees/Linux_for_Tegra/sources/tegra/optee-src/nv-optee/optee/optee_os/lib/libutee/tee_api.c:652
    25d0:	910003fd 	mov	x29, sp
    25d4:	f9000bf3 	str	x19, [sp, #16]
/home/avees/Linux_for_Tegra/sources/tegra/optee-src/nv-optee/optee/optee_os/lib/libutee/tee_api.c:653
    25d8:	94000b7a 	bl	53c0 <_utee_wait>
/home/avees/Linux_for_Tegra/sources/tegra/optee-src/nv-optee/optee/optee_os/lib/libutee/tee_api.c:655
    25dc:	7100001f 	cmp	w0, #0x0
    25e0:	129fffa1 	mov	w1, #0xffff0002            	// #-65534
/home/avees/Linux_for_Tegra/sources/tegra/optee-src/nv-optee/optee/optee_os/lib/libutee/tee_api.c:653
    25e4:	2a0003f3 	mov	w19, w0
/home/avees/Linux_for_Tegra/sources/tegra/optee-src/nv-optee/optee/optee_os/lib/libutee/tee_api.c:655
    25e8:	7a411004 	ccmp	w0, w1, #0x4, ne  // ne = any
    25ec:	54000040 	b.eq	25f4 <TEE_Wait+0x2c>  // b.none
/home/avees/Linux_for_Tegra/sources/tegra/optee-src/nv-optee/optee/optee_os/lib/libutee/tee_api.c:656
    25f0:	940007a9 	bl	4494 <TEE_Panic>
/home/avees/Linux_for_Tegra/sources/tegra/optee-src/nv-optee/optee/optee_os/lib/libutee/tee_api.c:659
    25f4:	2a1303e0 	mov	w0, w19
    25f8:	f9400bf3 	ldr	x19, [sp, #16]
    25fc:	a8c27bfd 	ldp	x29, x30, [sp], #32
    2600:	d65f03c0 	ret

0000000000002604 <TEE_GetTAPersistentTime>:
TEE_GetTAPersistentTime():
/home/avees/Linux_for_Tegra/sources/tegra/optee-src/nv-optee/optee/optee_os/lib/libutee/tee_api.c:662
    2604:	a9be7bfd 	stp	x29, x30, [sp, #-32]!
/home/avees/Linux_for_Tegra/sources/tegra/optee-src/nv-optee/optee/optee_os/lib/libutee/tee_api.c:665
    2608:	aa0003e1 	mov	x1, x0
/home/avees/Linux_for_Tegra/sources/tegra/optee-src/nv-optee/optee/optee_os/lib/libutee/tee_api.c:662
    260c:	910003fd 	mov	x29, sp
    2610:	a90153f3 	stp	x19, x20, [sp, #16]
    2614:	aa0003f4 	mov	x20, x0
/home/avees/Linux_for_Tegra/sources/tegra/optee-src/nv-optee/optee/optee_os/lib/libutee/tee_api.c:665
    2618:	d2800020 	mov	x0, #0x1                   	// #1
    261c:	94000b6c 	bl	53cc <_utee_get_time>
/home/avees/Linux_for_Tegra/sources/tegra/optee-src/nv-optee/optee/optee_os/lib/libutee/tee_api.c:667
    2620:	7100001f 	cmp	w0, #0x0
/home/avees/Linux_for_Tegra/sources/tegra/optee-src/nv-optee/optee/optee_os/lib/libutee/tee_api.c:665
    2624:	2a0003f3 	mov	w19, w0
/home/avees/Linux_for_Tegra/sources/tegra/optee-src/nv-optee/optee/optee_os/lib/libutee/tee_api.c:667
    2628:	1a9f07e2 	cset	w2, ne  // ne = any
    262c:	1299fe00 	mov	w0, #0xffff300f            	// #-53233
    2630:	6b00027f 	cmp	w19, w0
    2634:	1a9f1041 	csel	w1, w2, wzr, ne  // ne = any
    2638:	34000041 	cbz	w1, 2640 <TEE_GetTAPersistentTime+0x3c>
/home/avees/Linux_for_Tegra/sources/tegra/optee-src/nv-optee/optee/optee_os/lib/libutee/tee_api.c:669
    263c:	29007e9f 	stp	wzr, wzr, [x20]
/home/avees/Linux_for_Tegra/sources/tegra/optee-src/nv-optee/optee/optee_os/lib/libutee/tee_api.c:673
    2640:	11402e60 	add	w0, w19, #0xb, lsl #12
/home/avees/Linux_for_Tegra/sources/tegra/optee-src/nv-optee/optee/optee_os/lib/libutee/tee_api.c:672
    2644:	7100005f 	cmp	w2, #0x0
    2648:	7a411800 	ccmp	w0, #0x1, #0x0, ne  // ne = any
    264c:	540000e9 	b.ls	2668 <TEE_GetTAPersistentTime+0x64>  // b.plast
/home/avees/Linux_for_Tegra/sources/tegra/optee-src/nv-optee/optee/optee_os/lib/libutee/tee_api.c:674
    2650:	340000c1 	cbz	w1, 2668 <TEE_GetTAPersistentTime+0x64>
/home/avees/Linux_for_Tegra/sources/tegra/optee-src/nv-optee/optee/optee_os/lib/libutee/tee_api.c:675
    2654:	129ffe60 	mov	w0, #0xffff000c            	// #-65524
    2658:	6b00027f 	cmp	w19, w0
    265c:	54000060 	b.eq	2668 <TEE_GetTAPersistentTime+0x64>  // b.none
/home/avees/Linux_for_Tegra/sources/tegra/optee-src/nv-optee/optee/optee_os/lib/libutee/tee_api.c:677
    2660:	2a1303e0 	mov	w0, w19
    2664:	9400078c 	bl	4494 <TEE_Panic>
/home/avees/Linux_for_Tegra/sources/tegra/optee-src/nv-optee/optee/optee_os/lib/libutee/tee_api.c:680
    2668:	2a1303e0 	mov	w0, w19
    266c:	a94153f3 	ldp	x19, x20, [sp, #16]
    2670:	a8c27bfd 	ldp	x29, x30, [sp], #32
    2674:	d65f03c0 	ret

0000000000002678 <TEE_SetTAPersistentTime>:
TEE_SetTAPersistentTime():
/home/avees/Linux_for_Tegra/sources/tegra/optee-src/nv-optee/optee/optee_os/lib/libutee/tee_api.c:683
    2678:	a9be7bfd 	stp	x29, x30, [sp, #-32]!
    267c:	910003fd 	mov	x29, sp
    2680:	f9000bf3 	str	x19, [sp, #16]
/home/avees/Linux_for_Tegra/sources/tegra/optee-src/nv-optee/optee/optee_os/lib/libutee/tee_api.c:686
    2684:	94000b55 	bl	53d8 <_utee_set_ta_time>
/home/avees/Linux_for_Tegra/sources/tegra/optee-src/nv-optee/optee/optee_os/lib/libutee/tee_api.c:688
    2688:	7100001f 	cmp	w0, #0x0
    268c:	129ffe61 	mov	w1, #0xffff000c            	// #-65524
/home/avees/Linux_for_Tegra/sources/tegra/optee-src/nv-optee/optee/optee_os/lib/libutee/tee_api.c:686
    2690:	2a0003f3 	mov	w19, w0
/home/avees/Linux_for_Tegra/sources/tegra/optee-src/nv-optee/optee/optee_os/lib/libutee/tee_api.c:688
    2694:	7a411004 	ccmp	w0, w1, #0x4, ne  // ne = any
    2698:	540000a0 	b.eq	26ac <TEE_SetTAPersistentTime+0x34>  // b.none
/home/avees/Linux_for_Tegra/sources/tegra/optee-src/nv-optee/optee/optee_os/lib/libutee/tee_api.c:689
    269c:	1299f7c1 	mov	w1, #0xffff3041            	// #-53183
    26a0:	6b01001f 	cmp	w0, w1
    26a4:	54000040 	b.eq	26ac <TEE_SetTAPersistentTime+0x34>  // b.none
/home/avees/Linux_for_Tegra/sources/tegra/optee-src/nv-optee/optee/optee_os/lib/libutee/tee_api.c:691
    26a8:	9400077b 	bl	4494 <TEE_Panic>
/home/avees/Linux_for_Tegra/sources/tegra/optee-src/nv-optee/optee/optee_os/lib/libutee/tee_api.c:694
    26ac:	2a1303e0 	mov	w0, w19
    26b0:	f9400bf3 	ldr	x19, [sp, #16]
    26b4:	a8c27bfd 	ldp	x29, x30, [sp], #32
    26b8:	d65f03c0 	ret

00000000000026bc <TEE_GetREETime>:
TEE_GetREETime():
/home/avees/Linux_for_Tegra/sources/tegra/optee-src/nv-optee/optee/optee_os/lib/libutee/tee_api.c:697
    26bc:	a9bf7bfd 	stp	x29, x30, [sp, #-16]!
/home/avees/Linux_for_Tegra/sources/tegra/optee-src/nv-optee/optee/optee_os/lib/libutee/tee_api.c:698
    26c0:	aa0003e1 	mov	x1, x0
    26c4:	d2800040 	mov	x0, #0x2                   	// #2
/home/avees/Linux_for_Tegra/sources/tegra/optee-src/nv-optee/optee/optee_os/lib/libutee/tee_api.c:697
    26c8:	910003fd 	mov	x29, sp
/home/avees/Linux_for_Tegra/sources/tegra/optee-src/nv-optee/optee/optee_os/lib/libutee/tee_api.c:698
    26cc:	94000b40 	bl	53cc <_utee_get_time>
/home/avees/Linux_for_Tegra/sources/tegra/optee-src/nv-optee/optee/optee_os/lib/libutee/tee_api.c:700
    26d0:	34000060 	cbz	w0, 26dc <TEE_GetREETime+0x20>
/home/avees/Linux_for_Tegra/sources/tegra/optee-src/nv-optee/optee/optee_os/lib/libutee/tee_api.c:702
    26d4:	a8c17bfd 	ldp	x29, x30, [sp], #16
/home/avees/Linux_for_Tegra/sources/tegra/optee-src/nv-optee/optee/optee_os/lib/libutee/tee_api.c:701
    26d8:	1400076f 	b	4494 <TEE_Panic>
/home/avees/Linux_for_Tegra/sources/tegra/optee-src/nv-optee/optee/optee_os/lib/libutee/tee_api.c:702
    26dc:	a8c17bfd 	ldp	x29, x30, [sp], #16
    26e0:	d65f03c0 	ret

00000000000026e4 <TEE_Malloc>:
TEE_Malloc():
/home/avees/Linux_for_Tegra/sources/tegra/optee-src/nv-optee/optee/optee_os/lib/libutee/tee_api.c:705
    26e4:	a9be7bfd 	stp	x29, x30, [sp, #-32]!
    26e8:	aa0003e2 	mov	x2, x0
/home/avees/Linux_for_Tegra/sources/tegra/optee-src/nv-optee/optee/optee_os/lib/libutee/tee_api.c:706
    26ec:	71000c3f 	cmp	w1, #0x3
/home/avees/Linux_for_Tegra/sources/tegra/optee-src/nv-optee/optee/optee_os/lib/libutee/tee_api.c:705
    26f0:	910003fd 	mov	x29, sp
    26f4:	f9000bf3 	str	x19, [sp, #16]
    26f8:	2a0103f3 	mov	w19, w1
/home/avees/Linux_for_Tegra/sources/tegra/optee-src/nv-optee/optee/optee_os/lib/libutee/tee_api.c:706
    26fc:	54000148 	b.hi	2724 <TEE_Malloc+0x40>  // b.pmore
    2700:	51000421 	sub	w1, w1, #0x1
    2704:	7100083f 	cmp	w1, #0x2
    2708:	54000308 	b.hi	2768 <TEE_Malloc+0x84>  // b.pmore
    270c:	f0000060 	adrp	x0, 11000 <__text_end+0x28e4>
    2710:	911ec000 	add	x0, x0, #0x7b0
    2714:	38614800 	ldrb	w0, [x0, w1, uxtw]
    2718:	10000061 	adr	x1, 2724 <TEE_Malloc+0x40>
    271c:	8b208820 	add	x0, x1, w0, sxtb #2
    2720:	d61f0000 	br	x0
    2724:	52b00001 	mov	w1, #0x80000000            	// #-2147483648
    2728:	6b01027f 	cmp	w19, w1
    272c:	540005e0 	b.eq	27e8 <TEE_Malloc+0x104>  // b.none
/home/avees/Linux_for_Tegra/sources/tegra/optee-src/nv-optee/optee/optee_os/lib/libutee/tee_api.c:739
    2730:	52800023 	mov	w3, #0x1                   	// #1
    2734:	2a1303e5 	mov	w5, w19
    2738:	f0000064 	adrp	x4, 11000 <__text_end+0x28e4>
    273c:	52800022 	mov	w2, #0x1                   	// #1
    2740:	913a4c84 	add	x4, x4, #0xe93
    2744:	52805c61 	mov	w1, #0x2e3                 	// #739
    2748:	f0000060 	adrp	x0, 11000 <__text_end+0x28e4>
    274c:	911ee000 	add	x0, x0, #0x7b8
    2750:	97fff80f 	bl	78c <trace_printf>
/home/avees/Linux_for_Tegra/sources/tegra/optee-src/nv-optee/optee/optee_os/lib/libutee/tee_api.c:741
    2754:	d2800003 	mov	x3, #0x0                   	// #0
/home/avees/Linux_for_Tegra/sources/tegra/optee-src/nv-optee/optee/optee_os/lib/libutee/tee_api.c:742
    2758:	aa0303e0 	mov	x0, x3
    275c:	f9400bf3 	ldr	x19, [sp, #16]
    2760:	a8c27bfd 	ldp	x29, x30, [sp], #32
    2764:	d65f03c0 	ret
/home/avees/Linux_for_Tegra/sources/tegra/optee-src/nv-optee/optee/optee_os/lib/libutee/tee_api.c:708
    2768:	b40004c0 	cbz	x0, 2800 <TEE_Malloc+0x11c>
/home/avees/Linux_for_Tegra/sources/tegra/optee-src/nv-optee/optee/optee_os/lib/libutee/tee_api.c:742
    276c:	f9400bf3 	ldr	x19, [sp, #16]
/home/avees/Linux_for_Tegra/sources/tegra/optee-src/nv-optee/optee/optee_os/lib/libutee/tee_api.c:710
    2770:	aa0003e1 	mov	x1, x0
/home/avees/Linux_for_Tegra/sources/tegra/optee-src/nv-optee/optee/optee_os/lib/libutee/tee_api.c:742
    2774:	a8c27bfd 	ldp	x29, x30, [sp], #32
/home/avees/Linux_for_Tegra/sources/tegra/optee-src/nv-optee/optee/optee_os/lib/libutee/tee_api.c:710
    2778:	d2800020 	mov	x0, #0x1                   	// #1
    277c:	14002dfd 	b	df70 <calloc>
/home/avees/Linux_for_Tegra/sources/tegra/optee-src/nv-optee/optee/optee_os/lib/libutee/tee_api.c:713
    2780:	52800000 	mov	w0, #0x0                   	// #0
    2784:	94000744 	bl	4494 <TEE_Panic>
/home/avees/Linux_for_Tegra/sources/tegra/optee-src/nv-optee/optee/optee_os/lib/libutee/tee_api.c:714
    2788:	17ffffea 	b	2730 <TEE_Malloc+0x4c>
/home/avees/Linux_for_Tegra/sources/tegra/optee-src/nv-optee/optee/optee_os/lib/libutee/tee_api.c:717
    278c:	b4000362 	cbz	x2, 27f8 <TEE_Malloc+0x114>
/home/avees/Linux_for_Tegra/sources/tegra/optee-src/nv-optee/optee/optee_os/lib/libutee/tee_api.c:719
    2790:	b0000080 	adrp	x0, 13000 <_DYNAMIC>
    2794:	f940d800 	ldr	x0, [x0, #432]
    2798:	f9400003 	ldr	x3, [x0]
    279c:	b4fffde3 	cbz	x3, 2758 <TEE_Malloc+0x74>
/home/avees/Linux_for_Tegra/sources/tegra/optee-src/nv-optee/optee/optee_os/lib/libutee/tee_api.c:742
    27a0:	f9400bf3 	ldr	x19, [sp, #16]
/home/avees/Linux_for_Tegra/sources/tegra/optee-src/nv-optee/optee/optee_os/lib/libutee/tee_api.c:721
    27a4:	aa0303e4 	mov	x4, x3
/home/avees/Linux_for_Tegra/sources/tegra/optee-src/nv-optee/optee/optee_os/lib/libutee/tee_api.c:742
    27a8:	a8c27bfd 	ldp	x29, x30, [sp], #32
/home/avees/Linux_for_Tegra/sources/tegra/optee-src/nv-optee/optee/optee_os/lib/libutee/tee_api.c:721
    27ac:	aa0203e3 	mov	x3, x2
    27b0:	d2800001 	mov	x1, #0x0                   	// #0
    27b4:	d2800022 	mov	x2, #0x1                   	// #1
    27b8:	d2800000 	mov	x0, #0x0                   	// #0
    27bc:	14002d99 	b	de20 <raw_calloc>
/home/avees/Linux_for_Tegra/sources/tegra/optee-src/nv-optee/optee/optee_os/lib/libutee/tee_api.c:724
    27c0:	b40001c2 	cbz	x2, 27f8 <TEE_Malloc+0x114>
/home/avees/Linux_for_Tegra/sources/tegra/optee-src/nv-optee/optee/optee_os/lib/libutee/tee_api.c:726
    27c4:	b0000080 	adrp	x0, 13000 <_DYNAMIC>
    27c8:	f940d800 	ldr	x0, [x0, #432]
    27cc:	f9400003 	ldr	x3, [x0]
    27d0:	b4fffc43 	cbz	x3, 2758 <TEE_Malloc+0x74>
/home/avees/Linux_for_Tegra/sources/tegra/optee-src/nv-optee/optee/optee_os/lib/libutee/tee_api.c:742
    27d4:	f9400bf3 	ldr	x19, [sp, #16]
/home/avees/Linux_for_Tegra/sources/tegra/optee-src/nv-optee/optee/optee_os/lib/libutee/tee_api.c:728
    27d8:	d2800001 	mov	x1, #0x0                   	// #0
/home/avees/Linux_for_Tegra/sources/tegra/optee-src/nv-optee/optee/optee_os/lib/libutee/tee_api.c:742
    27dc:	a8c27bfd 	ldp	x29, x30, [sp], #32
/home/avees/Linux_for_Tegra/sources/tegra/optee-src/nv-optee/optee/optee_os/lib/libutee/tee_api.c:728
    27e0:	d2800000 	mov	x0, #0x0                   	// #0
    27e4:	14002d87 	b	de00 <raw_malloc>
/home/avees/Linux_for_Tegra/sources/tegra/optee-src/nv-optee/optee/optee_os/lib/libutee/tee_api.c:731
    27e8:	b40000c0 	cbz	x0, 2800 <TEE_Malloc+0x11c>
/home/avees/Linux_for_Tegra/sources/tegra/optee-src/nv-optee/optee/optee_os/lib/libutee/tee_api.c:742
    27ec:	f9400bf3 	ldr	x19, [sp, #16]
    27f0:	a8c27bfd 	ldp	x29, x30, [sp], #32
/home/avees/Linux_for_Tegra/sources/tegra/optee-src/nv-optee/optee/optee_os/lib/libutee/tee_api.c:733
    27f4:	14002dd9 	b	df58 <malloc>
/home/avees/Linux_for_Tegra/sources/tegra/optee-src/nv-optee/optee/optee_os/lib/libutee/tee_api.c:718
    27f8:	d2800043 	mov	x3, #0x2                   	// #2
    27fc:	17ffffd7 	b	2758 <TEE_Malloc+0x74>
/home/avees/Linux_for_Tegra/sources/tegra/optee-src/nv-optee/optee/optee_os/lib/libutee/tee_api.c:709
    2800:	d2800023 	mov	x3, #0x1                   	// #1
    2804:	17ffffd5 	b	2758 <TEE_Malloc+0x74>

0000000000002808 <__GP11_TEE_Malloc>:
__GP11_TEE_Malloc():
/home/avees/Linux_for_Tegra/sources/tegra/optee-src/nv-optee/optee/optee_os/lib/libutee/tee_api.c:746
    2808:	2a0003e0 	mov	w0, w0
    280c:	17ffffb6 	b	26e4 <TEE_Malloc>

0000000000002810 <TEE_Free>:
TEE_Free():
/home/avees/Linux_for_Tegra/sources/tegra/optee-src/nv-optee/optee/optee_os/lib/libutee/tee_api.c:787
    2810:	d1000401 	sub	x1, x0, #0x1
    2814:	f100043f 	cmp	x1, #0x1
    2818:	540002a9 	b.ls	286c <TEE_Free+0x5c>  // b.plast
/home/avees/Linux_for_Tegra/sources/tegra/optee-src/nv-optee/optee/optee_os/lib/libutee/tee_api.c:786
    281c:	a9be7bfd 	stp	x29, x30, [sp, #-32]!
addr_is_in_no_share_heap():
/home/avees/Linux_for_Tegra/sources/tegra/optee-src/nv-optee/optee/optee_os/lib/libutee/tee_api.c:751
    2820:	d2800021 	mov	x1, #0x1                   	// #1
TEE_Free():
/home/avees/Linux_for_Tegra/sources/tegra/optee-src/nv-optee/optee/optee_os/lib/libutee/tee_api.c:786
    2824:	910003fd 	mov	x29, sp
    2828:	f9000bf3 	str	x19, [sp, #16]
    282c:	aa0003f3 	mov	x19, x0
addr_is_in_no_share_heap():
/home/avees/Linux_for_Tegra/sources/tegra/optee-src/nv-optee/optee/optee_os/lib/libutee/tee_api.c:751
    2830:	97fffc7a 	bl	1a18 <buf_overlaps_no_share_heap>
TEE_Free():
/home/avees/Linux_for_Tegra/sources/tegra/optee-src/nv-optee/optee/optee_os/lib/libutee/tee_api.c:789
    2834:	72001c1f 	tst	w0, #0xff
    2838:	54000120 	b.eq	285c <TEE_Free+0x4c>  // b.none
/home/avees/Linux_for_Tegra/sources/tegra/optee-src/nv-optee/optee/optee_os/lib/libutee/tee_api.c:790
    283c:	b0000080 	adrp	x0, 13000 <_DYNAMIC>
    2840:	52800002 	mov	w2, #0x0                   	// #0
    2844:	f940d800 	ldr	x0, [x0, #432]
    2848:	f9400001 	ldr	x1, [x0]
    284c:	aa1303e0 	mov	x0, x19
/home/avees/Linux_for_Tegra/sources/tegra/optee-src/nv-optee/optee/optee_os/lib/libutee/tee_api.c:794
    2850:	f9400bf3 	ldr	x19, [sp, #16]
    2854:	a8c27bfd 	ldp	x29, x30, [sp], #32
/home/avees/Linux_for_Tegra/sources/tegra/optee-src/nv-optee/optee/optee_os/lib/libutee/tee_api.c:790
    2858:	14002d6e 	b	de10 <raw_free>
/home/avees/Linux_for_Tegra/sources/tegra/optee-src/nv-optee/optee/optee_os/lib/libutee/tee_api.c:792
    285c:	aa1303e0 	mov	x0, x19
/home/avees/Linux_for_Tegra/sources/tegra/optee-src/nv-optee/optee/optee_os/lib/libutee/tee_api.c:794
    2860:	f9400bf3 	ldr	x19, [sp, #16]
    2864:	a8c27bfd 	ldp	x29, x30, [sp], #32
/home/avees/Linux_for_Tegra/sources/tegra/optee-src/nv-optee/optee/optee_os/lib/libutee/tee_api.c:792
    2868:	14002ddc 	b	dfd8 <free>
    286c:	d65f03c0 	ret

0000000000002870 <TEE_Realloc>:
TEE_Realloc():
/home/avees/Linux_for_Tegra/sources/tegra/optee-src/nv-optee/optee/optee_os/lib/libutee/tee_api.c:755
    2870:	a9be7bfd 	stp	x29, x30, [sp, #-32]!
    2874:	910003fd 	mov	x29, sp
    2878:	a90153f3 	stp	x19, x20, [sp, #16]
    287c:	aa0003f3 	mov	x19, x0
/home/avees/Linux_for_Tegra/sources/tegra/optee-src/nv-optee/optee/optee_os/lib/libutee/tee_api.c:756
    2880:	b5000161 	cbnz	x1, 28ac <TEE_Realloc+0x3c>
/home/avees/Linux_for_Tegra/sources/tegra/optee-src/nv-optee/optee/optee_os/lib/libutee/tee_api.c:757
    2884:	97ffffe3 	bl	2810 <TEE_Free>
addr_is_in_no_share_heap():
/home/avees/Linux_for_Tegra/sources/tegra/optee-src/nv-optee/optee/optee_os/lib/libutee/tee_api.c:751
    2888:	aa1303e0 	mov	x0, x19
    288c:	d2800021 	mov	x1, #0x1                   	// #1
    2890:	97fffc62 	bl	1a18 <buf_overlaps_no_share_heap>
TEE_Realloc():
/home/avees/Linux_for_Tegra/sources/tegra/optee-src/nv-optee/optee/optee_os/lib/libutee/tee_api.c:762
    2894:	72001c1f 	tst	w0, #0xff
    2898:	9a9f07e0 	cset	x0, ne  // ne = any
    289c:	91000400 	add	x0, x0, #0x1
/home/avees/Linux_for_Tegra/sources/tegra/optee-src/nv-optee/optee/optee_os/lib/libutee/tee_api.c:778
    28a0:	a94153f3 	ldp	x19, x20, [sp, #16]
    28a4:	a8c27bfd 	ldp	x29, x30, [sp], #32
    28a8:	d65f03c0 	ret
/home/avees/Linux_for_Tegra/sources/tegra/optee-src/nv-optee/optee/optee_os/lib/libutee/tee_api.c:765
    28ac:	f100041f 	cmp	x0, #0x1
    28b0:	54000081 	b.ne	28c0 <TEE_Realloc+0x50>  // b.any
/home/avees/Linux_for_Tegra/sources/tegra/optee-src/nv-optee/optee/optee_os/lib/libutee/tee_api.c:778
    28b4:	a94153f3 	ldp	x19, x20, [sp, #16]
    28b8:	a8c27bfd 	ldp	x29, x30, [sp], #32
/home/avees/Linux_for_Tegra/sources/tegra/optee-src/nv-optee/optee/optee_os/lib/libutee/tee_api.c:766
    28bc:	14002dad 	b	df70 <calloc>
    28c0:	aa0103f4 	mov	x20, x1
/home/avees/Linux_for_Tegra/sources/tegra/optee-src/nv-optee/optee/optee_os/lib/libutee/tee_api.c:767
    28c4:	f100081f 	cmp	x0, #0x2
    28c8:	540001a1 	b.ne	28fc <TEE_Realloc+0x8c>  // b.any
/home/avees/Linux_for_Tegra/sources/tegra/optee-src/nv-optee/optee/optee_os/lib/libutee/tee_api.c:768
    28cc:	b0000080 	adrp	x0, 13000 <_DYNAMIC>
    28d0:	f940d800 	ldr	x0, [x0, #432]
    28d4:	f9400000 	ldr	x0, [x0]
    28d8:	b4fffe40 	cbz	x0, 28a0 <TEE_Realloc+0x30>
/home/avees/Linux_for_Tegra/sources/tegra/optee-src/nv-optee/optee/optee_os/lib/libutee/tee_api.c:778
    28dc:	a94153f3 	ldp	x19, x20, [sp, #16]
/home/avees/Linux_for_Tegra/sources/tegra/optee-src/nv-optee/optee/optee_os/lib/libutee/tee_api.c:770
