
../build/ta/secret_text/54eac490-4f7a-4db5-8fd7-221b7a2239ea.elf:     file format elf64-littleaarch64
../build/ta/secret_text/54eac490-4f7a-4db5-8fd7-221b7a2239ea.elf
architecture: aarch64, flags 0x00000150:
HAS_SYMS, DYNAMIC, D_PAGED
start address 0x00000000000001a8

Program Header:
    LOAD off    0x0000000000001000 vaddr 0x0000000000000000 paddr 0x0000000000000000 align 2**12
         filesz 0x00000000000105a8 memsz 0x00000000000105a8 flags r-x
    LOAD off    0x0000000000012000 vaddr 0x0000000000011000 paddr 0x0000000000011000 align 2**12
         filesz 0x000000000000057c memsz 0x000000000000c688 flags rw-
 DYNAMIC off    0x0000000000012000 vaddr 0x0000000000011000 paddr 0x0000000000011000 align 2**3
         filesz 0x0000000000000110 memsz 0x0000000000000110 flags rw-
   STACK off    0x0000000000000000 vaddr 0x0000000000000000 paddr 0x0000000000000000 align 2**4
         filesz 0x0000000000000000 memsz 0x0000000000000000 flags rw-

Dynamic Section:
  HASH                 0x0000000000010230
  GNU_HASH             0x0000000000010140
  STRTAB               0x0000000000010200
  SYMTAB               0x0000000000010170
  STRSZ                0x000000000000002e
  SYMENT               0x0000000000000018
  DEBUG                0x0000000000000000
  RELA                 0x0000000000010260
  RELASZ               0x0000000000000528
  RELAENT              0x0000000000000018
  FLAGS_1              0x0000000008000000
  RELACOUNT            0x0000000000000023
private flags = 0:

Sections:
Idx Name          Size      VMA               LMA               File off  Algn
  0 .ta_head      00000020  0000000000000000  0000000000000000  00001000  2**3
                  CONTENTS, ALLOC, LOAD, READONLY, DATA
  1 .text         0000c668  0000000000000020  0000000000000020  00001020  2**4
                  CONTENTS, ALLOC, LOAD, READONLY, CODE
  2 .eh_frame     0000283c  000000000000c688  000000000000c688  0000d688  2**3
                  CONTENTS, ALLOC, LOAD, READONLY, DATA
  3 .rodata       00001277  000000000000eec8  000000000000eec8  0000fec8  2**3
                  CONTENTS, ALLOC, LOAD, READONLY, DATA
  4 .gnu.hash     00000030  0000000000010140  0000000000010140  00011140  2**3
                  CONTENTS, ALLOC, LOAD, READONLY, DATA
  5 .dynsym       00000090  0000000000010170  0000000000010170  00011170  2**3
                  CONTENTS, ALLOC, LOAD, READONLY, DATA
  6 .dynstr       0000002e  0000000000010200  0000000000010200  00011200  2**0
                  CONTENTS, ALLOC, LOAD, READONLY, DATA
  7 .hash         0000002c  0000000000010230  0000000000010230  00011230  2**3
                  CONTENTS, ALLOC, LOAD, READONLY, DATA
  8 .rela.dyn     00000348  0000000000010260  0000000000010260  00011260  2**3
                  CONTENTS, ALLOC, LOAD, READONLY, DATA
  9 .dynamic      00000110  0000000000011000  0000000000011000  00012000  2**3
                  CONTENTS, ALLOC, LOAD, DATA
 10 .got          000000c0  0000000000011110  0000000000011110  00012110  2**3
                  CONTENTS, ALLOC, LOAD, DATA
 11 .rela.got     000001e0  00000000000111d0  00000000000111d0  000121d0  2**3
                  CONTENTS, ALLOC, LOAD, READONLY, DATA
 12 .data         000001cc  00000000000113b0  00000000000113b0  000123b0  2**3
                  CONTENTS, ALLOC, LOAD, DATA
 13 .bss          0000c108  0000000000011580  0000000000011580  0001257c  2**3
                  ALLOC
 14 .debug_info   000198c5  0000000000000000  0000000000000000  0001257c  2**0
                  CONTENTS, READONLY, DEBUGGING
 15 .debug_abbrev 0000403a  0000000000000000  0000000000000000  0002be41  2**0
                  CONTENTS, READONLY, DEBUGGING
 16 .debug_loc    00023f3e  0000000000000000  0000000000000000  0002fe7b  2**0
                  CONTENTS, READONLY, DEBUGGING
 17 .debug_aranges 00000950  0000000000000000  0000000000000000  00053dc0  2**4
                  CONTENTS, READONLY, DEBUGGING
 18 .debug_macro  000176f0  0000000000000000  0000000000000000  00054710  2**0
                  CONTENTS, READONLY, DEBUGGING
 19 .debug_line   0000efd0  0000000000000000  0000000000000000  0006be00  2**0
                  CONTENTS, READONLY, DEBUGGING
 20 .debug_str    0001a744  0000000000000000  0000000000000000  0007add0  2**0
                  CONTENTS, READONLY, DEBUGGING
 21 .comment      0000001f  0000000000000000  0000000000000000  00095514  2**0
                  CONTENTS, READONLY
 22 .debug_ranges 00001d30  0000000000000000  0000000000000000  00095540  2**4
                  CONTENTS, READONLY, DEBUGGING
SYMBOL TABLE:
0000000000000000 l    d  .ta_head	0000000000000000 .ta_head
0000000000000020 l    d  .text	0000000000000000 .text
000000000000c688 l    d  .eh_frame	0000000000000000 .eh_frame
000000000000eec8 l    d  .rodata	0000000000000000 .rodata
0000000000010140 l    d  .gnu.hash	0000000000000000 .gnu.hash
0000000000010170 l    d  .dynsym	0000000000000000 .dynsym
0000000000010200 l    d  .dynstr	0000000000000000 .dynstr
0000000000010230 l    d  .hash	0000000000000000 .hash
0000000000010260 l    d  .rela.dyn	0000000000000000 .rela.dyn
0000000000011000 l    d  .dynamic	0000000000000000 .dynamic
0000000000011110 l    d  .got	0000000000000000 .got
00000000000111d0 l    d  .rela.got	0000000000000000 .rela.got
00000000000113b0 l    d  .data	0000000000000000 .data
0000000000011580 l    d  .bss	0000000000000000 .bss
0000000000000000 l    d  .debug_info	0000000000000000 .debug_info
0000000000000000 l    d  .debug_abbrev	0000000000000000 .debug_abbrev
0000000000000000 l    d  .debug_loc	0000000000000000 .debug_loc
0000000000000000 l    d  .debug_aranges	0000000000000000 .debug_aranges
0000000000000000 l    d  .debug_macro	0000000000000000 .debug_macro
0000000000000000 l    d  .debug_line	0000000000000000 .debug_line
0000000000000000 l    d  .debug_str	0000000000000000 .debug_str
0000000000000000 l    d  .comment	0000000000000000 .comment
0000000000000000 l    d  .debug_ranges	0000000000000000 .debug_ranges
0000000000000000 l    df *ABS*	0000000000000000 user_ta_header.c
000000000000eed0 l     O .rodata	0000000000000004 __compound_literal.7
000000000000eed4 l     O .rodata	0000000000000001 __compound_literal.6
000000000000eed8 l     O .rodata	0000000000000004 __compound_literal.5
000000000000eedc l     O .rodata	0000000000000004 __compound_literal.4
000000000000eee0 l     O .rodata	0000000000000004 __compound_literal.3
000000000000eee4 l     O .rodata	0000000000000001 __compound_literal.2
000000000000eee5 l     O .rodata	0000000000000001 __compound_literal.1
000000000000eee6 l     O .rodata	0000000000000001 __compound_literal.0
0000000000000000 l    df *ABS*	0000000000000000 memcpy.c
0000000000000000 l    df *ABS*	0000000000000000 ta_secret_text.c
0000000000015620 l     O .bss	0000000000000064 secure_data
0000000000000000 l    df *ABS*	0000000000000000 tee_api.c
00000000000001c4 l     F .text	000000000000006c copy_param
0000000000000230 l     F .text	0000000000000070 copy_gp11_param
00000000000002a0 l     F .text	0000000000000094 check_mem_access_rights_params
0000000000000334 l     F .text	0000000000000044 buf_overlaps_no_share_heap
0000000000000378 l     F .text	00000000000000a8 check_invoke_param
0000000000000420 l     F .text	00000000000000a8 update_out_param
00000000000004c8 l     F .text	00000000000000ac update_out_gp11_param
0000000000000744 l     F .text	000000000000019c map_tmp_param
0000000000011580 l     O .bss	0000000000000008 tee_api_instance_data
000000000000ef08 l     O .rodata	000000000000000b __func__.5408
0000000000000000 l    df *ABS*	0000000000000000 tee_api_panic.c
0000000000001284 l     F .text	000000000000001c check_access
00000000000012a8 l     F .text	0000000000000010 check_res.isra.0
0000000000000000 l    df *ABS*	0000000000000000 tee_system_pta.c
00000000000014a0 l     F .text	0000000000000088 invoke_system_pta
000000000000ef20 l     O .rodata	0000000000000010 uuid.4625
000000000000ef30 l     O .rodata	000000000000000a __func__.4645
000000000000ef3a l     O .rodata	0000000000000017 __func__.4657
0000000000011590 l     O .bss	0000000000000008 sess.4624
0000000000000000 l    df *ABS*	0000000000000000 user_ta_entry.c
00000000000017b0 l     F .text	00000000000000b0 _get_fn_array
0000000000001860 l     F .text	0000000000000090 _fini_iterate_phdr_cb
00000000000018f0 l     F .text	0000000000000028 ta_header_get_session
0000000000001918 l     F .text	000000000000006c to_utee_params
0000000000001984 l     F .text	000000000000005c from_utee_params
00000000000019e0 l     F .text	0000000000000094 _init_iterate_phdr_cb
0000000000001bdc l     F .text	0000000000000098 ta_header_remove_session
000000000000f557 l     O .rodata	0000000000000016 __func__.5372
0000000000011598 l     O .bss	0000000000000008 _num_mod_init
00000000000115a0 l     O .bss	0000000000000001 init_done
00000000000114b8 l     O .data	0000000000000010 ta_sessions
00000000000114c8 l     O .data	0000000000000010 __phdr_info_head
0000000000000000 l    df *ABS*	0000000000000000 utee_syscalls_a64.o
0000000000000000 l    df *ABS*	0000000000000000 abort.c
0000000000000000 l    df *ABS*	0000000000000000 trace_ext.c
0000000000000000 l    df *ABS*	0000000000000000 tee_api_arith_mpi.c
00000000000023a8 l     F .text	0000000000000030 api_panic
00000000000023d8 l     F .text	0000000000000030 mpi_panic
0000000000002408 l     F .text	0000000000000098 get_mpi
00000000000024a0 l     F .text	0000000000000064 copy_mpi_to_bigint
0000000000002504 l     F .text	000000000000014c bigint_binary
0000000000002650 l     F .text	0000000000000020 mpi_is_odd
0000000000002670 l     F .text	0000000000000028 rng_read
0000000000002698 l     F .text	0000000000000574 mpi_egcd
0000000000011608 l     O .bss	0000000000004000 data.5215
0000000000003138 l     F .text	00000000000001d0 bigint_binary_mod
000000000000f63d l     O .rodata	0000000000000008 __func__.5249
000000000000f645 l     O .rodata	000000000000000e __func__.5387
000000000000f653 l     O .rodata	0000000000000009 __func__.5551
000000000000f65c l     O .rodata	0000000000000012 __func__.5216
000000000000f66e l     O .rodata	000000000000000f __func__.5255
000000000000f67d l     O .rodata	000000000000001f __func__.5283
000000000000f69c l     O .rodata	0000000000000019 __func__.5297
000000000000f6b5 l     O .rodata	0000000000000012 __func__.5406
000000000000f6c7 l     O .rodata	0000000000000015 __func__.5328
000000000000f6dc l     O .rodata	000000000000000e __func__.5427
000000000000f6ea l     O .rodata	000000000000000e __func__.5456
000000000000f6f8 l     O .rodata	000000000000000e __func__.5464
000000000000f706 l     O .rodata	0000000000000011 __func__.5497
000000000000f717 l     O .rodata	0000000000000018 __func__.5510
000000000000f72f l     O .rodata	0000000000000011 __func__.5531
000000000000f740 l     O .rodata	000000000000001d __func__.5608
000000000000f75d l     O .rodata	0000000000000019 __func__.5681
000000000000f776 l     O .rodata	0000000000000015 __func__.5696
0000000000000000 l    df *ABS*	0000000000000000 tee_api_property.c
00000000000044d4 l     F .text	000000000000006c propset_get
0000000000004540 l     F .text	000000000000002c is_propset_pseudo_handle
000000000000456c l     F .text	0000000000000148 propget_get_ext_prop
00000000000046b4 l     F .text	00000000000001b0 propget_get_property
000000000000ef64 l     O .rodata	0000000000000004 __compound_literal.3
000000000000ef68 l     O .rodata	0000000000000004 __compound_literal.2
000000000000ef6c l     O .rodata	0000000000000004 __compound_literal.1
000000000000ef70 l     O .rodata	0000000000000004 __compound_literal.0
0000000000000000 l    df *ABS*	0000000000000000 tcb.c
000000000000f89b l     O .rodata	0000000000000010 __func__.4082
000000000000f8ab l     O .rodata	0000000000000010 __func__.4109
0000000000015608 l     O .bss	0000000000000008 _tls_size
0000000000015610 l     O .bss	0000000000000008 _tcb
0000000000000000 l    df *ABS*	0000000000000000 assert.c
0000000000000000 l    df *ABS*	0000000000000000 base64.c
000000000000ef78 l     O .rodata	0000000000000041 base64_table
0000000000000000 l    df *ABS*	0000000000000000 bignum.c
0000000000005a48 l     F .text	0000000000000064 mpi_get_digit
0000000000005aac l     F .text	000000000000040c mpi_mul_hlp
0000000000005eb8 l     F .text	0000000000000038 mpi_montg_init.isra.0
0000000000005ef0 l     F .text	00000000000000ac mpi_bigendian_to_host.part.0
0000000000005f9c l     F .text	00000000000000c0 mpi_fill_random_internal
000000000000605c l     F .text	0000000000000148 mpi_montmul.isra.0
00000000000061a4 l     F .text	0000000000000078 mpi_montred
00000000000063a8 l     F .text	000000000000006c mbedtls_mpi_resize_clear
00000000000080e0 l     F .text	00000000000000c4 mpi_check_small_factors
0000000000008ac4 l     F .text	00000000000002a4 mpi_miller_rabin
000000000000efbc l     O .rodata	00000000000002a0 small_prime
000000000000f25c l     O .rodata	0000000000000024 gcd_pairs
0000000000000000 l    df *ABS*	0000000000000000 constant_time.c
0000000000009bd8 l     F .text	0000000000000020 mbedtls_ct_uchar_mask_of_range
0000000000000000 l    df *ABS*	0000000000000000 platform_util.c
0000000000011538 l     O .data	0000000000000008 memset_func
0000000000000000 l    df *ABS*	0000000000000000 bget_malloc.c
000000000000a3b8 l     F .text	0000000000000010 _assert_trap
000000000000a3c8 l     F .text	0000000000000028 bget_buf_size.part.0
000000000000ffca l     O .rodata	000000000000000e __func__.3964
000000000000ffd8 l     O .rodata	0000000000000005 __func__.3890
000000000000ffdd l     O .rodata	0000000000000006 __func__.3910
000000000000ffe3 l     O .rodata	0000000000000005 __func__.3931
000000000000ffe8 l     O .rodata	0000000000000006 __func__.3921
000000000000ffee l     O .rodata	0000000000000006 __func__.3940
000000000000fff4 l     O .rodata	0000000000000014 __func__.4150
0000000000010008 l     O .rodata	0000000000000013 __func__.4014
0000000000011540 l     O .data	0000000000000030 malloc_ctx
0000000000000000 l    df *ABS*	0000000000000000 snprintf.c
0000000000000000 l    df *ABS*	0000000000000000 stack_check.c
0000000000000000 l    df *ABS*	0000000000000000 memmove.c
0000000000000000 l    df *ABS*	0000000000000000 memset.c
0000000000000000 l    df *ABS*	0000000000000000 strcmp.c
0000000000000000 l    df *ABS*	0000000000000000 strlen.c
0000000000000000 l    df *ABS*	0000000000000000 snprintk.c
000000000000b4ac l     F .text	0000000000000be0 kprintf.constprop.0
000000000000f30a l     O .rodata	0000000000000011 HEXDIGITS
000000000000f31b l     O .rodata	0000000000000011 hexdigits
0000000000000000 l    df *ABS*	0000000000000000 strlcpy.c
0000000000000000 l    df *ABS*	0000000000000000 trace.c
0000000000010085 l     O .rodata	0000000000000005 lvl_strs.3595
0000000000000000 l    df *ABS*	0000000000000000 mempool.c
0000000000010113 l     O .rodata	0000000000000013 __func__.3696
0000000000010126 l     O .rodata	000000000000000b __func__.3677
0000000000010131 l     O .rodata	000000000000000e __func__.3702
0000000000000000 l    df *ABS*	0000000000000000 consttime_memcmp.c
0000000000000000 l    df *ABS*	0000000000000000 memchr.c
0000000000000000 l    df *ABS*	0000000000000000 
0000000000011000 l     O *ABS*	0000000000000000 _DYNAMIC
0000000000011128 l     O *ABS*	0000000000000000 _GLOBAL_OFFSET_TABLE_
0000000000002338 g     F .text	0000000000000070 putchar
0000000000002d8c g     F .text	0000000000000008 __GP11_TEE_BigIntConvertFromOctetString
00000000000042b8 g     F .text	0000000000000004 TEE_BigIntConvertToFMM
0000000000003b2c g     F .text	000000000000000c TEE_BigIntSquareMod
0000000000003308 g     F .text	00000000000001a0 TEE_BigIntShiftRight
000000000000ade4 g     F .text	00000000000000c8 raw_malloc_add_pool
00000000000016a0 g     F .text	0000000000000110 tee_invoke_supp_plugin
00000000000062c0 g     F .text	00000000000000e8 mbedtls_mpi_grow
00000000000051bc g     F .text	0000000000000128 __GP11_TEE_GetPropertyName
000000000000118c g     F .text	00000000000000d8 TEE_Realloc
0000000000001480 g     F .text	0000000000000020 __utee_check_inout_annotation
000000000000abc8 g     F .text	0000000000000010 raw_free
00000000000021f8 g     F .text	0000000000000100 printf
00000000000036a4 g     F .text	000000000000002c TEE_BigIntAbs
0000000000001f14 g     F .text	000000000000000c _utee_log
0000000000000b7c g     F .text	0000000000000184 TEE_InvokeTACommand
00000000000012b8 g     F .text	000000000000004c __utee_check_outbuf_annotation
000000000000622c g     F .text	0000000000000028 mbedtls_mpi_init_mempool
0000000000002094 g     F .text	000000000000000c _utee_cryp_random_number_generate
0000000000006a28 g     F .text	00000000000000c4 mbedtls_mpi_write_binary
000000000000b388 g     F .text	0000000000000058 vsnprintk
00000000000072a4 g     F .text	0000000000000074 mbedtls_mpi_sub_int
000000000000b210 g     F .text	000000000000005c memmove
000000000000b0b8 g     F .text	00000000000000d0 snprintf
00000000000030bc g     F .text	000000000000007c TEE_BigIntCmpS32
0000000000000e9c g     F .text	0000000000000008 __GP11_TEE_MemMove
0000000000011570 g     O .data	0000000000000008 __stack_chk_guard
000000000000a11c g     F .text	000000000000027c mbedtls_ct_rsaes_pkcs1_v15_unpadding
0000000000006414 g     F .text	0000000000000120 mbedtls_mpi_shrink
0000000000000eb4 g     F .text	0000000000000008 __GP11_TEE_MemFill
00000000000036d0 g     F .text	000000000000000c TEE_BigIntAdd
0000000000002034 g     F .text	000000000000000c _utee_cryp_obj_restrict_usage
000000000000eef0 g     O .rodata	0000000000000008 ta_heap_size
00000000000020dc g     F .text	000000000000000c _utee_asymm_operate
00000000000057f0 g     F .text	0000000000000018 _base64_enc_len
000000000000756c g     F .text	000000000000020c mbedtls_mpi_read_string
00000000000036e8 g     F .text	00000000000000e4 TEE_BigIntNeg
0000000000002130 g     F .text	000000000000000c _utee_storage_free_enum
0000000000000020 g       .text	0000000000000000 __text_start
000000000000536c g     F .text	00000000000000e0 TEE_GetNextProperty
0000000000006bfc g     F .text	00000000000000c0 mbedtls_mpi_shift_r
000000000000b0a4 g     F .text	0000000000000014 malloc_buffer_overlaps_heap
0000000000001fe0 g     F .text	000000000000000c _utee_hash_init
0000000000003b14 g     F .text	000000000000000c TEE_BigIntSubMod
0000000000009464 g     F .text	000000000000034c mbedtls_mpi_gen_prime
0000000000004eec g     F .text	0000000000000098 TEE_GetPropertyAsBinaryBlock
00000000000066f0 g     F .text	000000000000002c mbedtls_mpi_get_bit
000000000000eee8 g     O .rodata	0000000000000008 __ta_no_share_heap_size
00000000000068ec g     F .text	0000000000000084 mbedtls_mpi_read_binary
000000000000c378 g     F .text	00000000000000e0 trace_printf
00000000000081ac g     F .text	0000000000000008 mbedtls_mpi_montmul
000000000000219c g     F .text	000000000000000c _utee_cache_operation
0000000000000020 g     F .text	00000000000000ec memcpy
00000000000042bc g     F .text	00000000000000d0 TEE_BigIntConvertFromFMM
00000000000012a0 g     F .text	0000000000000008 TEE_Panic
00000000000022f8 g     F .text	0000000000000040 puts
000000000000438c g     F .text	0000000000000148 TEE_BigIntComputeFMM
0000000000000fd8 g     F .text	0000000000000028 TEE_GetREETime
00000000000113b0 g     O .data	0000000000000108 ta_props
0000000000001124 g     F .text	0000000000000008 __GP11_TEE_Malloc
0000000000000a34 g     F .text	0000000000000148 __GP11_TEE_OpenTASession
0000000000001350 g     F .text	0000000000000030 __utee_check_instring_annotation
000000000000ad10 g     F .text	0000000000000018 malloc
00000000000051a8 g     F .text	0000000000000004 TEE_FreePropertyEnumerator
0000000000009c50 g     F .text	0000000000000010 mbedtls_ct_mpi_uint_mask
000000000000b188 g     F .text	0000000000000058 vsnprintf
0000000000011578 g     O .data	0000000000000004 trace_level
0000000000003028 g     F .text	0000000000000094 TEE_BigIntCmp
000000000000eec8 g     O .rodata	0000000000000008 ta_num_props
000000000000a9c4 g     F .text	00000000000000d0 bgetr
00000000000020f4 g     F .text	000000000000000c _utee_storage_obj_open
0000000000000ea8 g     F .text	0000000000000008 __GP11_TEE_MemCompare
000000000000c5d8 g     F .text	0000000000000014 mempool_free
0000000000001fec g     F .text	000000000000000c _utee_hash_update
0000000000002d94 g     F .text	00000000000000c8 TEE_BigIntConvertToOctetString
00000000000067fc g     F .text	000000000000005c mbedtls_mpi_bitlen
00000000000034b0 g     F .text	0000000000000080 TEE_BigIntGetBit
000000000000eef8 g     O .rodata	0000000000000003 trace_ext_prefix
0000000000002154 g     F .text	000000000000000c _utee_storage_next_enum
000000000000abb8 g     F .text	0000000000000010 raw_malloc
000000000000a6b8 g     F .text	0000000000000088 bgetz
0000000000009c60 g     F .text	0000000000000018 mbedtls_ct_size_bool_eq
0000000000000e8c g     F .text	000000000000000c TEE_GetInstanceData
0000000000000ee4 g     F .text	000000000000003c TEE_Wait
0000000000007318 g     F .text	00000000000001ac mbedtls_mpi_mul_mpi
00000000000034a8 g     F .text	0000000000000008 __GP11_TEE_BigIntShiftRight
0000000000001274 g     F .text	0000000000000008 TEE_CacheFlush
000000000000c15c g     F .text	000000000000021c trace_vprintf
0000000000000114 g     F .text	0000000000000004 TA_DestroyEntryPoint
000000000000621c g     F .text	0000000000000010 mbedtls_mpi_init
000000000000210c g     F .text	000000000000000c _utee_storage_obj_del
00000000000067a8 g     F .text	0000000000000054 mbedtls_mpi_lsb
0000000000005798 g     F .text	0000000000000044 _assert_log
0000000000001fc8 g     F .text	000000000000000c _utee_cryp_state_copy
0000000000004298 g     F .text	0000000000000008 TEE_BigIntFMMContextSizeInU32
00000000000015d8 g     F .text	00000000000000c8 tee_unmap
0000000000009c94 g     F .text	0000000000000030 mbedtls_ct_uint_if
0000000000002c0c g     F .text	0000000000000050 _TEE_MathAPI_Init
000000000000544c g     F .text	0000000000000240 __utee_tcb_init
000000000000711c g     F .text	0000000000000088 mbedtls_mpi_add_mpi
00000000000021a8 g     F .text	0000000000000020 abort
0000000000008d68 g     F .text	00000000000001b8 mbedtls_mpi_random
000000000000b1e0 g     F .text	0000000000000030 __stack_chk_fail
0000000000001418 g     F .text	0000000000000020 __utee_check_out_annotation
0000000000015684 g     O .bss	0000000000008000 ta_heap
0000000000003b38 g     F .text	0000000000000150 TEE_BigIntInvMod
0000000000001a74 g     F .text	0000000000000158 __utee_call_elf_init_fn
0000000000000120 g     F .text	0000000000000004 TA_CloseSessionEntryPoint
0000000000001f50 g     F .text	000000000000000c _utee_close_ta_session
0000000000004260 g     F .text	0000000000000008 __GP11_TEE_BigIntInitFMMContext
00000000000071a4 g     F .text	000000000000008c mbedtls_mpi_sub_mpi
000000000000c5ec g     F .text	0000000000000070 consttime_memcmp
0000000000001f08 g     F .text	000000000000000c _utee_return
0000000000001f20 g     F .text	000000000000000c __utee_panic
0000000000009bf8 g     F .text	0000000000000048 mbedtls_ct_memcmp
000000000000568c g     F .text	000000000000001c __tls_get_addr
0000000000000124 g     F .text	0000000000000084 TA_InvokeCommandEntryPoint
0000000000001bcc g     F .text	0000000000000010 __utee_call_elf_fini_fn
000000000000ada0 g     F .text	0000000000000010 free_wipe
000000000000c524 g     F .text	0000000000000064 mempool_alloc
0000000000001efc g     F .text	000000000000000c _utee_panic
000000000000adb8 g     F .text	000000000000002c raw_malloc_init_ctx
000000000000c588 g     F .text	0000000000000050 mempool_calloc
0000000000002190 g     F .text	000000000000000c _utee_cryp_obj_generate_key
0000000000002178 g     F .text	000000000000000c _utee_storage_obj_trunc
00000000000114d8 g     O .data	0000000000000060 tee_props
0000000000001f80 g     F .text	000000000000000c _utee_unmask_cancellation
0000000000005154 g     F .text	000000000000000c TEE_ResetPropertyEnumerator
000000000000ad28 g     F .text	000000000000001c calloc
0000000000001000 g     F .text	0000000000000124 TEE_Malloc
00000000000006bc g     F .text	0000000000000088 TEE_CheckMemoryAccessRights
0000000000004f84 g     F .text	00000000000000e8 TEE_GetPropertyAsUUID
0000000000001f2c g     F .text	000000000000000c _utee_get_property
00000000000035a4 g     F .text	00000000000000b0 TEE_BigIntSetBit
0000000000006688 g     F .text	0000000000000068 mbedtls_mpi_lset
0000000000000118 g     F .text	0000000000000008 TA_OpenSessionEntryPoint
00000000000056a8 g     F .text	00000000000000f0 dl_iterate_phdr
000000000001d688 g       .bss	0000000000000000 __ftrace_buf_end
00000000000115a8 g     O .bss	0000000000000004 ta_param_types
0000000000007cac g     F .text	0000000000000074 mbedtls_mpi_div_int
0000000000009378 g     F .text	00000000000000dc mbedtls_mpi_is_prime_ext
00000000000041cc g     F .text	0000000000000084 TEE_BigIntIsProbablePrime
00000000000074c4 g     F .text	00000000000000a8 mbedtls_mpi_mul_int
00000000000081b8 g     F .text	00000000000006cc mbedtls_mpi_exp_mod
0000000000009e6c g     F .text	00000000000000bc mbedtls_mpi_safe_cond_assign
0000000000004864 g     F .text	000000000000025c TEE_GetPropertyAsString
000000000000a024 g     F .text	00000000000000f8 mbedtls_mpi_lt_mpi_ct
0000000000002c5c g     F .text	0000000000000060 TEE_BigIntInit
0000000000002e5c g     F .text	0000000000000060 __GP11_TEE_BigIntConvertToOctetString
0000000000003654 g     F .text	0000000000000050 TEE_BigIntAssign
0000000000001380 g     F .text	000000000000004c __utee_check_outstring_annotation
0000000000000e98 g     F .text	0000000000000004 TEE_MemMove
000000000000a398 g     F .text	0000000000000020 mbedtls_platform_zeroize
0000000000002cc4 g     F .text	00000000000000c8 TEE_BigIntConvertFromOctetString
00000000000020d0 g     F .text	000000000000000c _utee_authenc_dec_final
0000000000006cbc g     F .text	000000000000009c mbedtls_mpi_cmp_abs
0000000000002160 g     F .text	000000000000000c _utee_storage_obj_read
000000000000c65c g     F .text	000000000000002c memchr
00000000000005fc g     F .text	0000000000000060 TEE_UnmaskCancellation
00000000000097b0 g     F .text	0000000000000428 mbedtls_mpi_self_test
0000000000002184 g     F .text	000000000000000c _utee_storage_obj_seek
0000000000001304 g     F .text	000000000000004c __utee_check_gp11_outbuf_annotation
0000000000001f74 g     F .text	000000000000000c _utee_check_access_rights
0000000000000d00 g     F .text	0000000000000178 __GP11_TEE_InvokeTACommand
0000000000006e2c g     F .text	0000000000000074 mbedtls_mpi_cmp_int
0000000000005924 g     F .text	0000000000000124 _base64_dec
000000000000213c g     F .text	000000000000000c _utee_storage_reset_enum
0000000000009db0 g     F .text	00000000000000bc mbedtls_ct_base64_dec_value
0000000000001438 g     F .text	0000000000000024 __utee_check_attr_in_annotation
00000000000020b8 g     F .text	000000000000000c _utee_authenc_update_payload
0000000000003a9c g     F .text	000000000000006c TEE_BigIntMod
0000000000007dd4 g     F .text	000000000000009c mbedtls_mpi_mod_int
0000000000006874 g     F .text	0000000000000078 mbedtls_mpi_read_binary_le
00000000000038e8 g     F .text	00000000000001b4 TEE_BigIntDiv
000000000000204c g     F .text	000000000000000c _utee_cryp_obj_alloc
000000000001d688 g       .bss	0000000000000000 __ftrace_buf_start
000000000000c0d8 g     F .text	0000000000000058 strlcpy
0000000000009d00 g     F .text	00000000000000b0 mbedtls_ct_base64_enc_char
0000000000006534 g     F .text	00000000000000cc mbedtls_mpi_copy
000000000000506c g     F .text	00000000000000e8 TEE_GetPropertyAsIdentity
000000000000c08c g     F .text	000000000000004c __vsprintf
0000000000004d18 g     F .text	00000000000000e8 TEE_GetPropertyAsU64
0000000000001fb0 g     F .text	000000000000000c _utee_set_ta_time
0000000000001f5c g     F .text	000000000000000c _utee_invoke_ta_command
000000000000ad44 g     F .text	0000000000000018 realloc
0000000000006600 g     F .text	0000000000000088 mbedtls_mpi_swap
000000000000c45c g     F .text	00000000000000c8 mempool_alloc_pool
00000000000037cc g     F .text	0000000000000114 TEE_BigIntMul
000000000000adb0 g     F .text	0000000000000008 raw_malloc_get_ctx_size
0000000000006aec g     F .text	0000000000000110 mbedtls_mpi_shift_l
0000000000006d58 g     F .text	00000000000000d4 mbedtls_mpi_cmp_mpi
0000000000000eb0 g     F .text	0000000000000004 TEE_MemFill
000000000000b07c g     F .text	0000000000000014 malloc_add_pool
000000000000c14c g     F .text	0000000000000010 trace_get_level
0000000000006ea0 g     F .text	0000000000000120 mbedtls_mpi_add_abs
0000000000004270 g     F .text	0000000000000010 TEE_BigIntFMMSizeInU32
0000000000004b58 g     F .text	00000000000000d8 TEE_GetPropertyAsBool
000000000000ac28 g     F .text	00000000000000e8 raw_realloc
0000000000004250 g     F .text	0000000000000004 TEE_BigIntInitFMM
0000000000002004 g     F .text	000000000000000c _utee_cipher_init
0000000000001c74 g     F .text	0000000000000288 __utee_entry
0000000000004c30 g     F .text	00000000000000e8 TEE_GetPropertyAsU32
000000000000c688 g       .text	0000000000000000 __text_end
0000000000003c88 g     F .text	0000000000000108 TEE_BigIntRelativePrime
0000000000007d20 g     F .text	00000000000000b4 mbedtls_mpi_mod_mpi
0000000000002028 g     F .text	000000000000000c _utee_cryp_obj_get_info
000000000000aa94 g     F .text	00000000000000d0 bpool
0000000000005160 g     F .text	0000000000000048 TEE_AllocatePropertyEnumerator
0000000000001fbc g     F .text	000000000000000c _utee_cryp_state_alloc
000000000000059c g     F .text	0000000000000060 TEE_GetCancellationFlag
0000000000008884 g     F .text	00000000000001d8 mbedtls_mpi_gcd
0000000000000f94 g     F .text	0000000000000044 TEE_SetTAPersistentTime
0000000000006970 g     F .text	00000000000000b8 mbedtls_mpi_write_binary_le
000000000000b26c g     F .text	000000000000001c memset
000000000000ab64 g     F .text	0000000000000054 raw_memalign
0000000000000f20 g     F .text	0000000000000074 TEE_GetTAPersistentTime
000000000000c458 g     F .text	0000000000000004 dhex_dump
000000000000065c g     F .text	0000000000000060 TEE_MaskCancellation
0000000000002040 g     F .text	000000000000000c _utee_cryp_obj_get_attr
000000000000201c g     F .text	000000000000000c _utee_cipher_final
000000000000c130 g     F .text	000000000000001c trace_set_level
0000000000009c78 g     F .text	000000000000001c mbedtls_ct_mpi_uint_lt
0000000000001fd4 g     F .text	000000000000000c _utee_cryp_state_free
000000000000b288 g     F .text	0000000000000024 strcmp
0000000000001f44 g     F .text	000000000000000c _utee_open_ta_session
0000000000002f6c g     F .text	00000000000000bc TEE_BigIntConvertToS32
00000000000036dc g     F .text	000000000000000c TEE_BigIntSub
00000000000001bc g     F .text	0000000000000008 tahead_get_trace_level
0000000000002148 g     F .text	000000000000000c _utee_storage_start_enum
0000000000001528 g     F .text	00000000000000b0 tee_map_zi
00000000000081b4 g     F .text	0000000000000004 mbedtls_mpi_montred
000000000000ad5c g     F .text	000000000000001c memalign
0000000000009c40 g     F .text	0000000000000010 mbedtls_ct_uint_mask
0000000000002cbc g     F .text	0000000000000008 __GP11_TEE_BigIntInit
0000000000002ebc g     F .text	00000000000000b0 TEE_BigIntConvertFromS32
0000000000007230 g     F .text	0000000000000074 mbedtls_mpi_add_int
00000000000020c4 g     F .text	000000000000000c _utee_authenc_enc_final
000000000000b090 g     F .text	0000000000000014 malloc_buffer_is_within_alloced
0000000000002058 g     F .text	000000000000000c _utee_cryp_obj_close
000000000000425c g     F .text	0000000000000004 TEE_BigIntInitFMMContext
0000000000001f8c g     F .text	000000000000000c _utee_mask_cancellation
00000000000115b0 g     O .bss	0000000000000008 __ta_no_share_malloc_ctx
0000000000002118 g     F .text	000000000000000c _utee_storage_obj_rename
0000000000000e78 g     F .text	0000000000000008 __GP11_TEE_CheckMemoryAccessRights
00000000000038e0 g     F .text	0000000000000008 TEE_BigIntSquare
000000000000216c g     F .text	000000000000000c _utee_storage_obj_write
000000000000010c g     F .text	0000000000000008 TA_CreateEntryPoint
00000000000001a8 g     F .text	0000000000000014 __ta_entry
000000000001d684 g     O .bss	0000000000000000 __ta_no_share_heap
00000000000020ac g     F .text	000000000000000c _utee_authenc_update_aad
00000000000081a4 g     F .text	0000000000000008 mbedtls_mpi_montg_init
000000000000b3e0 g     F .text	00000000000000cc snprintk
0000000000003530 g     F .text	0000000000000074 TEE_BigIntGetBitCount
000000000000207c g     F .text	000000000000000c _utee_cryp_obj_copy
0000000000003b20 g     F .text	000000000000000c TEE_BigIntMulMod
0000000000008f20 g     F .text	0000000000000458 mbedtls_mpi_inv_mod
000000000000145c g     F .text	0000000000000024 __utee_check_gp11_attr_in_annotation
00000000000115b8 g     O .bss	0000000000000040 ta_params
0000000000007778 g     F .text	0000000000000534 mbedtls_mpi_div_mpi
00000000000013cc g     F .text	000000000000004c __utee_check_gp11_outstring_annotation
0000000000006858 g     F .text	000000000000001c mbedtls_mpi_size
000000000000a3f0 g     F .text	00000000000002c8 bget
00000000000042a0 g     F .text	0000000000000018 __GP11_TEE_BigIntFMMContextSizeInU32
00000000000051ac g     F .text	0000000000000010 TEE_StartPropertyEnumerator
0000000000001f98 g     F .text	000000000000000c _utee_wait
000000000000671c g     F .text	000000000000008c mbedtls_mpi_set_bit
000000000000112c g     F .text	0000000000000060 TEE_Free
0000000000009454 g     F .text	0000000000000010 mbedtls_mpi_is_prime
000000000000127c g     F .text	0000000000000008 TEE_CacheInvalidate
00000000000057dc g     F .text	0000000000000014 _assert_break
0000000000003b08 g     F .text	000000000000000c TEE_BigIntAddMod
0000000000009cc4 g     F .text	000000000000003c mbedtls_ct_mpi_uint_cond_assign
0000000000004254 g     F .text	0000000000000008 __GP11_TEE_BigIntInitFMM
0000000000001fa4 g     F .text	000000000000000c _utee_get_time
00000000000052e4 g     F .text	0000000000000088 TEE_GetPropertyName
0000000000001264 g     F .text	0000000000000008 __GP11_TEE_Realloc
0000000000002070 g     F .text	000000000000000c _utee_cryp_obj_populate
0000000000000ea4 g     F .text	0000000000000004 TEE_MemCompare
0000000000002010 g     F .text	000000000000000c _utee_cipher_update
000000000000b2c8 g     F .text	00000000000000c0 __vsnprintf
00000000000115f8 g     O .bss	0000000000000010 __elf_phdr_info
00000000000008e0 g     F .text	0000000000000154 TEE_OpenTASession
00000000000021c8 g     F .text	0000000000000028 trace_ext_puts
0000000000004ac0 g     F .text	0000000000000098 __GP11_TEE_GetPropertyAsString
000000000000af2c g     F .text	0000000000000150 raw_malloc_buffer_is_within_alloced
00000000000021f0 g     F .text	0000000000000008 trace_ext_get_thread_id
000000000000aeac g     F .text	0000000000000080 raw_malloc_buffer_overlaps_heap
0000000000002088 g     F .text	000000000000000c _utee_cryp_derive_key
0000000000006254 g     F .text	000000000000006c mbedtls_mpi_free
0000000000002064 g     F .text	000000000000000c _utee_cryp_obj_reset
000000000000126c g     F .text	0000000000000008 TEE_CacheClean
0000000000001f38 g     F .text	000000000000000c _utee_get_property_name_to_index
000000000000abd8 g     F .text	0000000000000050 raw_calloc
0000000000005808 g     F .text	000000000000011c _base64_enc
0000000000009f28 g     F .text	00000000000000fc mbedtls_mpi_safe_cond_swap
00000000000020a0 g     F .text	000000000000000c _utee_authenc_init
000000000000b2ac g     F .text	000000000000001c strlen
0000000000003f64 g     F .text	0000000000000268 TEE_BigIntComputeExtendedGcd
0000000000002124 g     F .text	000000000000000c _utee_storage_alloc_enum
0000000000003d90 g     F .text	00000000000001d4 TEE_BigIntExpMod
0000000000000ebc g     F .text	0000000000000028 TEE_GetSystemTime
00000000000020e8 g     F .text	000000000000000c _utee_asymm_verify
0000000000000000 g     O .ta_head	0000000000000020 ta_head
000000000000a740 g     F .text	0000000000000284 brel
0000000000004e00 g     F .text	00000000000000ec __GP11_TEE_GetPropertyAsBinaryBlock
0000000000006fc0 g     F .text	000000000000015c mbedtls_mpi_sub_abs
0000000000008a5c g     F .text	0000000000000068 mbedtls_mpi_fill_random
0000000000000e80 g     F .text	000000000000000c TEE_SetInstanceData
0000000000001f68 g     F .text	000000000000000c _utee_get_cancellation_flag
0000000000007e70 g     F .text	0000000000000270 mbedtls_mpi_write_string
000000000000ad78 g     F .text	0000000000000018 aligned_alloc
0000000000004268 g     F .text	0000000000000008 TEE_BigIntInitFMMContext1
0000000000000574 g     F .text	0000000000000028 TEE_CloseTASession
0000000000002100 g     F .text	000000000000000c _utee_storage_obj_create
0000000000004280 g     F .text	0000000000000018 __GP11_TEE_BigIntFMMSizeInU32
000000000000ad90 g     F .text	0000000000000010 free
0000000000015618 g     O .bss	0000000000000008 mbedtls_mpi_mempool
0000000000001ff8 g     F .text	000000000000000c _utee_hash_final



Disassembly of section .text:

0000000000000020 <memcpy>:
memcpy():
/home/seungwoo/optee/Linux_for_Tegra/sources/tegra/optee-src/nv-optee/optee/optee_os/lib/libutils/isoc/newlib/memcpy.c:106
      20:	f1007c5f 	cmp	x2, #0x1f
      24:	54000629 	b.ls	e8 <memcpy+0xc8>  // b.plast
/home/seungwoo/optee/Linux_for_Tegra/sources/tegra/optee-src/nv-optee/optee/optee_os/lib/libutils/isoc/newlib/memcpy.c:106 (discriminator 1)
      28:	aa000025 	orr	x5, x1, x0
      2c:	f24008a5 	ands	x5, x5, #0x7
      30:	54000641 	b.ne	f8 <memcpy+0xd8>  // b.any
      34:	d1008048 	sub	x8, x2, #0x20
/home/seungwoo/optee/Linux_for_Tegra/sources/tegra/optee-src/nv-optee/optee/optee_os/lib/libutils/isoc/newlib/memcpy.c:108
      38:	aa0103e4 	mov	x4, x1
      3c:	927be908 	and	x8, x8, #0xffffffffffffffe0
/home/seungwoo/optee/Linux_for_Tegra/sources/tegra/optee-src/nv-optee/optee/optee_os/lib/libutils/isoc/newlib/memcpy.c:107
      40:	aa0003e3 	mov	x3, x0
      44:	91008108 	add	x8, x8, #0x20
      48:	8b080007 	add	x7, x0, x8
      4c:	d503201f 	nop
/home/seungwoo/optee/Linux_for_Tegra/sources/tegra/optee-src/nv-optee/optee/optee_os/lib/libutils/isoc/newlib/memcpy.c:112
      50:	f9400086 	ldr	x6, [x4]
      54:	f9000066 	str	x6, [x3]
/home/seungwoo/optee/Linux_for_Tegra/sources/tegra/optee-src/nv-optee/optee/optee_os/lib/libutils/isoc/newlib/memcpy.c:113
      58:	91008084 	add	x4, x4, #0x20
      5c:	91008063 	add	x3, x3, #0x20
      60:	f85e8086 	ldur	x6, [x4, #-24]
      64:	f81e8066 	stur	x6, [x3, #-24]
/home/seungwoo/optee/Linux_for_Tegra/sources/tegra/optee-src/nv-optee/optee/optee_os/lib/libutils/isoc/newlib/memcpy.c:114
      68:	f85f0086 	ldur	x6, [x4, #-16]
      6c:	f81f0066 	stur	x6, [x3, #-16]
/home/seungwoo/optee/Linux_for_Tegra/sources/tegra/optee-src/nv-optee/optee/optee_os/lib/libutils/isoc/newlib/memcpy.c:111
      70:	eb0300ff 	cmp	x7, x3
/home/seungwoo/optee/Linux_for_Tegra/sources/tegra/optee-src/nv-optee/optee/optee_os/lib/libutils/isoc/newlib/memcpy.c:115
      74:	f85f8086 	ldur	x6, [x4, #-8]
      78:	f81f8066 	stur	x6, [x3, #-8]
/home/seungwoo/optee/Linux_for_Tegra/sources/tegra/optee-src/nv-optee/optee/optee_os/lib/libutils/isoc/newlib/memcpy.c:111
      7c:	54fffea1 	b.ne	50 <memcpy+0x30>  // b.any
      80:	8b080021 	add	x1, x1, x8
/home/seungwoo/optee/Linux_for_Tegra/sources/tegra/optee-src/nv-optee/optee/optee_os/lib/libutils/isoc/newlib/memcpy.c:120
      84:	f27d045f 	tst	x2, #0x18
      88:	92401044 	and	x4, x2, #0x1f
      8c:	540003c0 	b.eq	104 <memcpy+0xe4>  // b.none
/home/seungwoo/optee/Linux_for_Tegra/sources/tegra/optee-src/nv-optee/optee/optee_os/lib/libutils/isoc/newlib/memcpy.c:121
      90:	f8656826 	ldr	x6, [x1, x5]
      94:	f8256866 	str	x6, [x3, x5]
/home/seungwoo/optee/Linux_for_Tegra/sources/tegra/optee-src/nv-optee/optee/optee_os/lib/libutils/isoc/newlib/memcpy.c:120
      98:	910020a5 	add	x5, x5, #0x8
      9c:	cb050086 	sub	x6, x4, x5
      a0:	f1001cdf 	cmp	x6, #0x7
      a4:	54ffff68 	b.hi	90 <memcpy+0x70>  // b.pmore
      a8:	d1002084 	sub	x4, x4, #0x8
      ac:	92400842 	and	x2, x2, #0x7
      b0:	927df084 	and	x4, x4, #0xfffffffffffffff8
/home/seungwoo/optee/Linux_for_Tegra/sources/tegra/optee-src/nv-optee/optee/optee_os/lib/libutils/isoc/newlib/memcpy.c:130
      b4:	d1000446 	sub	x6, x2, #0x1
      b8:	91002084 	add	x4, x4, #0x8
      bc:	8b040063 	add	x3, x3, x4
      c0:	8b040021 	add	x1, x1, x4
      c4:	b4000102 	cbz	x2, e4 <memcpy+0xc4>
/home/seungwoo/optee/Linux_for_Tegra/sources/tegra/optee-src/nv-optee/optee/optee_os/lib/libutils/isoc/newlib/memcpy.c:99
      c8:	d2800002 	mov	x2, #0x0                   	// #0
      cc:	d503201f 	nop
/home/seungwoo/optee/Linux_for_Tegra/sources/tegra/optee-src/nv-optee/optee/optee_os/lib/libutils/isoc/newlib/memcpy.c:131
      d0:	38626825 	ldrb	w5, [x1, x2]
/home/seungwoo/optee/Linux_for_Tegra/sources/tegra/optee-src/nv-optee/optee/optee_os/lib/libutils/isoc/newlib/memcpy.c:130
      d4:	eb0200df 	cmp	x6, x2
/home/seungwoo/optee/Linux_for_Tegra/sources/tegra/optee-src/nv-optee/optee/optee_os/lib/libutils/isoc/newlib/memcpy.c:131
      d8:	38226865 	strb	w5, [x3, x2]
/home/seungwoo/optee/Linux_for_Tegra/sources/tegra/optee-src/nv-optee/optee/optee_os/lib/libutils/isoc/newlib/memcpy.c:130
      dc:	91000442 	add	x2, x2, #0x1
      e0:	54ffff81 	b.ne	d0 <memcpy+0xb0>  // b.any
/home/seungwoo/optee/Linux_for_Tegra/sources/tegra/optee-src/nv-optee/optee/optee_os/lib/libutils/isoc/newlib/memcpy.c:135
      e4:	d65f03c0 	ret
/home/seungwoo/optee/Linux_for_Tegra/sources/tegra/optee-src/nv-optee/optee/optee_os/lib/libutils/isoc/newlib/memcpy.c:99
      e8:	aa0003e3 	mov	x3, x0
/home/seungwoo/optee/Linux_for_Tegra/sources/tegra/optee-src/nv-optee/optee/optee_os/lib/libutils/isoc/newlib/memcpy.c:130
      ec:	d1000446 	sub	x6, x2, #0x1
      f0:	b5fffec2 	cbnz	x2, c8 <memcpy+0xa8>
/home/seungwoo/optee/Linux_for_Tegra/sources/tegra/optee-src/nv-optee/optee/optee_os/lib/libutils/isoc/newlib/memcpy.c:135
      f4:	d65f03c0 	ret
/home/seungwoo/optee/Linux_for_Tegra/sources/tegra/optee-src/nv-optee/optee/optee_os/lib/libutils/isoc/newlib/memcpy.c:130
      f8:	d1000446 	sub	x6, x2, #0x1
/home/seungwoo/optee/Linux_for_Tegra/sources/tegra/optee-src/nv-optee/optee/optee_os/lib/libutils/isoc/newlib/memcpy.c:99
      fc:	aa0003e3 	mov	x3, x0
     100:	17fffff2 	b	c8 <memcpy+0xa8>
/home/seungwoo/optee/Linux_for_Tegra/sources/tegra/optee-src/nv-optee/optee/optee_os/lib/libutils/isoc/newlib/memcpy.c:120
     104:	aa0403e2 	mov	x2, x4
     108:	17fffff9 	b	ec <memcpy+0xcc>

000000000000010c <TA_CreateEntryPoint>:
TA_CreateEntryPoint():
/home/seungwoo/optee/Linux_for_Tegra/sources/tegra/optee-src/nv-optee/optee/workspace/secret_text/ta/ta_secret_text.c:13
     10c:	52800000 	mov	w0, #0x0                   	// #0
     110:	d65f03c0 	ret

0000000000000114 <TA_DestroyEntryPoint>:
TA_DestroyEntryPoint():
/home/seungwoo/optee/Linux_for_Tegra/sources/tegra/optee-src/nv-optee/optee/workspace/secret_text/ta/ta_secret_text.c:17
     114:	d65f03c0 	ret

0000000000000118 <TA_OpenSessionEntryPoint>:
TA_OpenSessionEntryPoint():
/home/seungwoo/optee/Linux_for_Tegra/sources/tegra/optee-src/nv-optee/optee/workspace/secret_text/ta/ta_secret_text.c:25
     118:	52800000 	mov	w0, #0x0                   	// #0
     11c:	d65f03c0 	ret

0000000000000120 <TA_CloseSessionEntryPoint>:
TA_CloseSessionEntryPoint():
/home/seungwoo/optee/Linux_for_Tegra/sources/tegra/optee-src/nv-optee/optee/workspace/secret_text/ta/ta_secret_text.c:30
     120:	d65f03c0 	ret

0000000000000124 <TA_InvokeCommandEntryPoint>:
TA_InvokeCommandEntryPoint():
/home/seungwoo/optee/Linux_for_Tegra/sources/tegra/optee-src/nv-optee/optee/workspace/secret_text/ta/ta_secret_text.c:33
     124:	a9be7bfd 	stp	x29, x30, [sp, #-32]!
     128:	910003fd 	mov	x29, sp
     12c:	a90153f3 	stp	x19, x20, [sp, #16]
     130:	2a0103f3 	mov	w19, w1
     134:	aa0303f4 	mov	x20, x3
/home/seungwoo/optee/Linux_for_Tegra/sources/tegra/optee-src/nv-optee/optee/workspace/secret_text/ta/ta_secret_text.c:38
     138:	34000101 	cbz	w1, 158 <TA_InvokeCommandEntryPoint+0x34>
     13c:	7100043f 	cmp	w1, #0x1
     140:	54000240 	b.eq	188 <TA_InvokeCommandEntryPoint+0x64>  // b.none
     144:	129fff33 	mov	w19, #0xffff0006            	// #-65530
/home/seungwoo/optee/Linux_for_Tegra/sources/tegra/optee-src/nv-optee/optee/workspace/secret_text/ta/ta_secret_text.c:51
     148:	2a1303e0 	mov	w0, w19
     14c:	a94153f3 	ldp	x19, x20, [sp, #16]
     150:	a8c27bfd 	ldp	x29, x30, [sp], #32
     154:	d65f03c0 	ret
/home/seungwoo/optee/Linux_for_Tegra/sources/tegra/optee-src/nv-optee/optee/workspace/secret_text/ta/ta_secret_text.c:40
     158:	a9400861 	ldp	x1, x2, [x3]
     15c:	aa0103e0 	mov	x0, x1
     160:	9400034e 	bl	e98 <TEE_MemMove>
/home/seungwoo/optee/Linux_for_Tegra/sources/tegra/optee-src/nv-optee/optee/workspace/secret_text/ta/ta_secret_text.c:41
     164:	b00000a1 	adrp	x1, 15000 <data.5215+0x39f8>
     168:	f0000060 	adrp	x0, f000 <small_prime+0x44>
     16c:	910cb000 	add	x0, x0, #0x32c
/home/seungwoo/optee/Linux_for_Tegra/sources/tegra/optee-src/nv-optee/optee/workspace/secret_text/ta/ta_secret_text.c:42
     170:	d2800c82 	mov	x2, #0x64                  	// #100
/home/seungwoo/optee/Linux_for_Tegra/sources/tegra/optee-src/nv-optee/optee/workspace/secret_text/ta/ta_secret_text.c:41
     174:	39188020 	strb	w0, [x1, #1568]
/home/seungwoo/optee/Linux_for_Tegra/sources/tegra/optee-src/nv-optee/optee/workspace/secret_text/ta/ta_secret_text.c:42
     178:	91188021 	add	x1, x1, #0x620
     17c:	f9400280 	ldr	x0, [x20]
     180:	94000346 	bl	e98 <TEE_MemMove>
/home/seungwoo/optee/Linux_for_Tegra/sources/tegra/optee-src/nv-optee/optee/workspace/secret_text/ta/ta_secret_text.c:43
     184:	17fffff1 	b	148 <TA_InvokeCommandEntryPoint+0x24>
/home/seungwoo/optee/Linux_for_Tegra/sources/tegra/optee-src/nv-optee/optee/workspace/secret_text/ta/ta_secret_text.c:45
     188:	b00000a1 	adrp	x1, 15000 <data.5215+0x39f8>
     18c:	91188022 	add	x2, x1, #0x620
     190:	f0000060 	adrp	x0, f000 <small_prime+0x44>
     194:	910cb000 	add	x0, x0, #0x32c
     198:	39188020 	strb	w0, [x1, #1568]
/home/seungwoo/optee/Linux_for_Tegra/sources/tegra/optee-src/nv-optee/optee/workspace/secret_text/ta/ta_secret_text.c:47
     19c:	52800013 	mov	w19, #0x0                   	// #0
/home/seungwoo/optee/Linux_for_Tegra/sources/tegra/optee-src/nv-optee/optee/workspace/secret_text/ta/ta_secret_text.c:46
     1a0:	b9000062 	str	w2, [x3]
/home/seungwoo/optee/Linux_for_Tegra/sources/tegra/optee-src/nv-optee/optee/workspace/secret_text/ta/ta_secret_text.c:47
     1a4:	17ffffe9 	b	148 <TA_InvokeCommandEntryPoint+0x24>

00000000000001a8 <__ta_entry>:
__ta_entry():
/home/seungwoo/optee/Linux_for_Tegra/sources/tegra/optee-src/nv-optee/optee/build/t234/export-ta_arm64/src/user_ta_header.c:51
     1a8:	a9bf7bfd 	stp	x29, x30, [sp, #-16]!
     1ac:	910003fd 	mov	x29, sp
/home/seungwoo/optee/Linux_for_Tegra/sources/tegra/optee-src/nv-optee/optee/build/t234/export-ta_arm64/src/user_ta_header.c:70
     1b0:	940006b1 	bl	1c74 <__utee_entry>
/home/seungwoo/optee/Linux_for_Tegra/sources/tegra/optee-src/nv-optee/optee/build/t234/export-ta_arm64/src/user_ta_header.c:81
     1b4:	2a0003e0 	mov	w0, w0
     1b8:	94000754 	bl	1f08 <_utee_return>

00000000000001bc <tahead_get_trace_level>:
tahead_get_trace_level():
/home/seungwoo/optee/Linux_for_Tegra/sources/tegra/optee-src/nv-optee/optee/build/t234/export-ta_arm64/src/user_ta_header.c:193
     1bc:	52800020 	mov	w0, #0x1                   	// #1
     1c0:	d65f03c0 	ret

00000000000001c4 <copy_param>:
copy_param():
/home/seungwoo/optee/Linux_for_Tegra/sources/tegra/optee-src/nv-optee/optee/optee_os/lib/libutee/tee_api.c:43
     1c4:	2a0103e3 	mov	w3, w1
     1c8:	52800004 	mov	w4, #0x0                   	// #0
     1cc:	f8008403 	str	x3, [x0], #8
/home/seungwoo/optee/Linux_for_Tegra/sources/tegra/optee-src/nv-optee/optee/optee_os/lib/libutee/tee_api.c:45
     1d0:	1ac42425 	lsr	w5, w1, w4
     1d4:	12000ca3 	and	w3, w5, #0xf
     1d8:	71000c7f 	cmp	w3, #0x3
     1dc:	540001a0 	b.eq	210 <copy_param+0x4c>  // b.none
     1e0:	721e04bf 	tst	w5, #0xc
     1e4:	540000c1 	b.ne	1fc <copy_param+0x38>  // b.any
     1e8:	7100047f 	cmp	w3, #0x1
     1ec:	54000120 	b.eq	210 <copy_param+0x4c>  // b.none
     1f0:	d2800003 	mov	x3, #0x0                   	// #0
     1f4:	d2800005 	mov	x5, #0x0                   	// #0
     1f8:	14000007 	b	214 <copy_param+0x50>
     1fc:	51001463 	sub	w3, w3, #0x5
     200:	7100087f 	cmp	w3, #0x2
     204:	54ffff68 	b.hi	1f0 <copy_param+0x2c>  // b.pmore
/home/seungwoo/optee/Linux_for_Tegra/sources/tegra/optee-src/nv-optee/optee/optee_os/lib/libutee/tee_api.c:55
     208:	a9400c45 	ldp	x5, x3, [x2]
/home/seungwoo/optee/Linux_for_Tegra/sources/tegra/optee-src/nv-optee/optee/optee_os/lib/libutee/tee_api.c:56
     20c:	14000002 	b	214 <copy_param+0x50>
/home/seungwoo/optee/Linux_for_Tegra/sources/tegra/optee-src/nv-optee/optee/optee_os/lib/libutee/tee_api.c:49
     210:	29400c45 	ldp	w5, w3, [x2]
/home/seungwoo/optee/Linux_for_Tegra/sources/tegra/optee-src/nv-optee/optee/optee_os/lib/libutee/tee_api.c:62 (discriminator 2)
     214:	a9000c05 	stp	x5, x3, [x0]
/home/seungwoo/optee/Linux_for_Tegra/sources/tegra/optee-src/nv-optee/optee/optee_os/lib/libutee/tee_api.c:44 (discriminator 2)
     218:	11001084 	add	w4, w4, #0x4
     21c:	91004042 	add	x2, x2, #0x10
     220:	7100409f 	cmp	w4, #0x10
     224:	91004000 	add	x0, x0, #0x10
     228:	54fffd41 	b.ne	1d0 <copy_param+0xc>  // b.any
/home/seungwoo/optee/Linux_for_Tegra/sources/tegra/optee-src/nv-optee/optee/optee_os/lib/libutee/tee_api.c:64
     22c:	d65f03c0 	ret

0000000000000230 <copy_gp11_param>:
copy_gp11_param():
/home/seungwoo/optee/Linux_for_Tegra/sources/tegra/optee-src/nv-optee/optee/optee_os/lib/libutee/tee_api.c:73
     230:	2a0103e3 	mov	w3, w1
     234:	52800004 	mov	w4, #0x0                   	// #0
     238:	f8008403 	str	x3, [x0], #8
/home/seungwoo/optee/Linux_for_Tegra/sources/tegra/optee-src/nv-optee/optee/optee_os/lib/libutee/tee_api.c:75
     23c:	1ac42425 	lsr	w5, w1, w4
     240:	12000ca3 	and	w3, w5, #0xf
     244:	71000c7f 	cmp	w3, #0x3
     248:	540001c0 	b.eq	280 <copy_gp11_param+0x50>  // b.none
     24c:	721e04bf 	tst	w5, #0xc
     250:	540000c1 	b.ne	268 <copy_gp11_param+0x38>  // b.any
     254:	7100047f 	cmp	w3, #0x1
     258:	54000140 	b.eq	280 <copy_gp11_param+0x50>  // b.none
     25c:	d2800003 	mov	x3, #0x0                   	// #0
     260:	d2800005 	mov	x5, #0x0                   	// #0
     264:	14000008 	b	284 <copy_gp11_param+0x54>
     268:	51001463 	sub	w3, w3, #0x5
     26c:	7100087f 	cmp	w3, #0x2
     270:	54ffff68 	b.hi	25c <copy_gp11_param+0x2c>  // b.pmore
/home/seungwoo/optee/Linux_for_Tegra/sources/tegra/optee-src/nv-optee/optee/optee_os/lib/libutee/tee_api.c:85
     274:	b9400843 	ldr	w3, [x2, #8]
/home/seungwoo/optee/Linux_for_Tegra/sources/tegra/optee-src/nv-optee/optee/optee_os/lib/libutee/tee_api.c:84
     278:	f9400045 	ldr	x5, [x2]
/home/seungwoo/optee/Linux_for_Tegra/sources/tegra/optee-src/nv-optee/optee/optee_os/lib/libutee/tee_api.c:86
     27c:	14000002 	b	284 <copy_gp11_param+0x54>
/home/seungwoo/optee/Linux_for_Tegra/sources/tegra/optee-src/nv-optee/optee/optee_os/lib/libutee/tee_api.c:79
     280:	29400c45 	ldp	w5, w3, [x2]
/home/seungwoo/optee/Linux_for_Tegra/sources/tegra/optee-src/nv-optee/optee/optee_os/lib/libutee/tee_api.c:92 (discriminator 2)
     284:	a9000c05 	stp	x5, x3, [x0]
/home/seungwoo/optee/Linux_for_Tegra/sources/tegra/optee-src/nv-optee/optee/optee_os/lib/libutee/tee_api.c:74 (discriminator 2)
     288:	11001084 	add	w4, w4, #0x4
     28c:	91004042 	add	x2, x2, #0x10
     290:	7100409f 	cmp	w4, #0x10
     294:	91004000 	add	x0, x0, #0x10
     298:	54fffd21 	b.ne	23c <copy_gp11_param+0xc>  // b.any
/home/seungwoo/optee/Linux_for_Tegra/sources/tegra/optee-src/nv-optee/optee/optee_os/lib/libutee/tee_api.c:94
     29c:	d65f03c0 	ret

00000000000002a0 <check_mem_access_rights_params>:
check_mem_access_rights_params():
/home/seungwoo/optee/Linux_for_Tegra/sources/tegra/optee-src/nv-optee/optee/optee_os/lib/libutee/tee_api.c:261
     2a0:	b0000083 	adrp	x3, 11000 <_DYNAMIC>
bufs_intersect():
/home/seungwoo/optee/Linux_for_Tegra/sources/tegra/optee-src/nv-optee/optee/optee_os/lib/libutee/tee_api.c:241
     2a4:	d1000447 	sub	x7, x2, #0x1
     2a8:	8b0100e7 	add	x7, x7, x1
check_mem_access_rights_params():
/home/seungwoo/optee/Linux_for_Tegra/sources/tegra/optee-src/nv-optee/optee/optee_os/lib/libutee/tee_api.c:261
     2ac:	52800005 	mov	w5, #0x0                   	// #0
     2b0:	f940c864 	ldr	x4, [x3, #400]
     2b4:	f940d863 	ldr	x3, [x3, #432]
     2b8:	b9400089 	ldr	w9, [x4]
     2bc:	1ac52524 	lsr	w4, w9, w5
     2c0:	12000c84 	and	w4, w4, #0xf
     2c4:	7100149f 	cmp	w4, #0x5
     2c8:	540002e0 	b.eq	324 <check_mem_access_rights_params+0x84>  // b.none
     2cc:	51001884 	sub	w4, w4, #0x6
     2d0:	7100049f 	cmp	w4, #0x1
     2d4:	540001c8 	b.hi	30c <check_mem_access_rights_params+0x6c>  // b.pmore
     2d8:	528000c6 	mov	w6, #0x6                   	// #6
/home/seungwoo/optee/Linux_for_Tegra/sources/tegra/optee-src/nv-optee/optee/optee_os/lib/libutee/tee_api.c:268
     2dc:	a9401068 	ldp	x8, x4, [x3]
bufs_intersect():
/home/seungwoo/optee/Linux_for_Tegra/sources/tegra/optee-src/nv-optee/optee/optee_os/lib/libutee/tee_api.c:244
     2e0:	f100005f 	cmp	x2, #0x0
     2e4:	fa401884 	ccmp	x4, #0x0, #0x4, ne  // ne = any
     2e8:	54000120 	b.eq	30c <check_mem_access_rights_params+0x6c>  // b.none
/home/seungwoo/optee/Linux_for_Tegra/sources/tegra/optee-src/nv-optee/optee/optee_os/lib/libutee/tee_api.c:242
     2ec:	d1000484 	sub	x4, x4, #0x1
/home/seungwoo/optee/Linux_for_Tegra/sources/tegra/optee-src/nv-optee/optee/optee_os/lib/libutee/tee_api.c:247
     2f0:	eb07011f 	cmp	x8, x7
/home/seungwoo/optee/Linux_for_Tegra/sources/tegra/optee-src/nv-optee/optee/optee_os/lib/libutee/tee_api.c:242
     2f4:	8b080084 	add	x4, x4, x8
/home/seungwoo/optee/Linux_for_Tegra/sources/tegra/optee-src/nv-optee/optee/optee_os/lib/libutee/tee_api.c:247
     2f8:	fa449022 	ccmp	x1, x4, #0x2, ls  // ls = plast
     2fc:	54000088 	b.hi	30c <check_mem_access_rights_params+0x6c>  // b.pmore
check_mem_access_rights_params():
/home/seungwoo/optee/Linux_for_Tegra/sources/tegra/optee-src/nv-optee/optee/optee_os/lib/libutee/tee_api.c:267
     300:	320000c6 	orr	w6, w6, #0x1
/home/seungwoo/optee/Linux_for_Tegra/sources/tegra/optee-src/nv-optee/optee/optee_os/lib/libutee/tee_api.c:271
     304:	6a26001f 	bics	wzr, w0, w6
     308:	54000121 	b.ne	32c <check_mem_access_rights_params+0x8c>  // b.any
/home/seungwoo/optee/Linux_for_Tegra/sources/tegra/optee-src/nv-optee/optee/optee_os/lib/libutee/tee_api.c:258 (discriminator 2)
     30c:	110010a5 	add	w5, w5, #0x4
     310:	91004063 	add	x3, x3, #0x10
     314:	710040bf 	cmp	w5, #0x10
     318:	54fffd21 	b.ne	2bc <check_mem_access_rights_params+0x1c>  // b.any
/home/seungwoo/optee/Linux_for_Tegra/sources/tegra/optee-src/nv-optee/optee/optee_os/lib/libutee/tee_api.c:280
     31c:	52800000 	mov	w0, #0x0                   	// #0
/home/seungwoo/optee/Linux_for_Tegra/sources/tegra/optee-src/nv-optee/optee/optee_os/lib/libutee/tee_api.c:281
     320:	d65f03c0 	ret
/home/seungwoo/optee/Linux_for_Tegra/sources/tegra/optee-src/nv-optee/optee/optee_os/lib/libutee/tee_api.c:259
     324:	52800086 	mov	w6, #0x4                   	// #4
     328:	17ffffed 	b	2dc <check_mem_access_rights_params+0x3c>
/home/seungwoo/optee/Linux_for_Tegra/sources/tegra/optee-src/nv-optee/optee/optee_os/lib/libutee/tee_api.c:272
     32c:	129fffc0 	mov	w0, #0xffff0001            	// #-65535
     330:	17fffffc 	b	320 <check_mem_access_rights_params+0x80>

0000000000000334 <buf_overlaps_no_share_heap>:
buf_overlaps_no_share_heap():
/home/seungwoo/optee/Linux_for_Tegra/sources/tegra/optee-src/nv-optee/optee/optee_os/lib/libutee/tee_api.c:284
     334:	aa0003e3 	mov	x3, x0
/home/seungwoo/optee/Linux_for_Tegra/sources/tegra/optee-src/nv-optee/optee/optee_os/lib/libutee/tee_api.c:285
     338:	b0000080 	adrp	x0, 11000 <_DYNAMIC>
     33c:	f940d000 	ldr	x0, [x0, #416]
     340:	f9400000 	ldr	x0, [x0]
/home/seungwoo/optee/Linux_for_Tegra/sources/tegra/optee-src/nv-optee/optee/optee_os/lib/libutee/tee_api.c:287
     344:	b4000140 	cbz	x0, 36c <buf_overlaps_no_share_heap+0x38>
/home/seungwoo/optee/Linux_for_Tegra/sources/tegra/optee-src/nv-optee/optee/optee_os/lib/libutee/tee_api.c:284 (discriminator 1)
     348:	a9bf7bfd 	stp	x29, x30, [sp, #-16]!
     34c:	aa0103e2 	mov	x2, x1
/home/seungwoo/optee/Linux_for_Tegra/sources/tegra/optee-src/nv-optee/optee/optee_os/lib/libutee/tee_api.c:287 (discriminator 1)
     350:	aa0303e1 	mov	x1, x3
/home/seungwoo/optee/Linux_for_Tegra/sources/tegra/optee-src/nv-optee/optee/optee_os/lib/libutee/tee_api.c:284 (discriminator 1)
     354:	910003fd 	mov	x29, sp
/home/seungwoo/optee/Linux_for_Tegra/sources/tegra/optee-src/nv-optee/optee/optee_os/lib/libutee/tee_api.c:287 (discriminator 1)
     358:	94002ad5 	bl	aeac <raw_malloc_buffer_overlaps_heap>
     35c:	12001c00 	and	w0, w0, #0xff
/home/seungwoo/optee/Linux_for_Tegra/sources/tegra/optee-src/nv-optee/optee/optee_os/lib/libutee/tee_api.c:288 (discriminator 1)
     360:	12000000 	and	w0, w0, #0x1
     364:	a8c17bfd 	ldp	x29, x30, [sp], #16
     368:	d65f03c0 	ret
/home/seungwoo/optee/Linux_for_Tegra/sources/tegra/optee-src/nv-optee/optee/optee_os/lib/libutee/tee_api.c:287
     36c:	52800000 	mov	w0, #0x0                   	// #0
/home/seungwoo/optee/Linux_for_Tegra/sources/tegra/optee-src/nv-optee/optee/optee_os/lib/libutee/tee_api.c:288
     370:	12000000 	and	w0, w0, #0x1
     374:	d65f03c0 	ret

0000000000000378 <check_invoke_param>:
check_invoke_param():
/home/seungwoo/optee/Linux_for_Tegra/sources/tegra/optee-src/nv-optee/optee/optee_os/lib/libutee/tee_api.c:291
     378:	a9bc7bfd 	stp	x29, x30, [sp, #-64]!
     37c:	910003fd 	mov	x29, sp
     380:	a90153f3 	stp	x19, x20, [sp, #16]
     384:	91002033 	add	x19, x1, #0x8
     388:	52800014 	mov	w20, #0x0                   	// #0
     38c:	a9025bf5 	stp	x21, x22, [sp, #32]
     390:	2a0003f5 	mov	w21, w0
     394:	f9001bf7 	str	x23, [sp, #48]
/home/seungwoo/optee/Linux_for_Tegra/sources/tegra/optee-src/nv-optee/optee/optee_os/lib/libutee/tee_api.c:299
     398:	1ad426a1 	lsr	w1, w21, w20
     39c:	12000c21 	and	w1, w1, #0xf
     3a0:	7100143f 	cmp	w1, #0x5
     3a4:	540003a0 	b.eq	418 <check_invoke_param+0xa0>  // b.none
     3a8:	51001821 	sub	w1, w1, #0x6
     3ac:	7100043f 	cmp	w1, #0x1
     3b0:	54000228 	b.hi	3f4 <check_invoke_param+0x7c>  // b.pmore
     3b4:	528000c0 	mov	w0, #0x6                   	// #6
/home/seungwoo/optee/Linux_for_Tegra/sources/tegra/optee-src/nv-optee/optee/optee_os/lib/libutee/tee_api.c:297
     3b8:	a97fde76 	ldp	x22, x23, [x19, #-8]
/home/seungwoo/optee/Linux_for_Tegra/sources/tegra/optee-src/nv-optee/optee/optee_os/lib/libutee/tee_api.c:306
     3bc:	32000000 	orr	w0, w0, #0x1
     3c0:	aa1703e2 	mov	x2, x23
     3c4:	aa1603e1 	mov	x1, x22
     3c8:	97ffffb6 	bl	2a0 <check_mem_access_rights_params>
     3cc:	34000060 	cbz	w0, 3d8 <check_invoke_param+0x60>
/home/seungwoo/optee/Linux_for_Tegra/sources/tegra/optee-src/nv-optee/optee/optee_os/lib/libutee/tee_api.c:307
     3d0:	52800000 	mov	w0, #0x0                   	// #0
     3d4:	940003b3 	bl	12a0 <TEE_Panic>
/home/seungwoo/optee/Linux_for_Tegra/sources/tegra/optee-src/nv-optee/optee/optee_os/lib/libutee/tee_api.c:308
     3d8:	aa1703e1 	mov	x1, x23
     3dc:	aa1603e0 	mov	x0, x22
     3e0:	97ffffd5 	bl	334 <buf_overlaps_no_share_heap>
     3e4:	72001c1f 	tst	w0, #0xff
     3e8:	54000060 	b.eq	3f4 <check_invoke_param+0x7c>  // b.none
/home/seungwoo/optee/Linux_for_Tegra/sources/tegra/optee-src/nv-optee/optee/optee_os/lib/libutee/tee_api.c:309
     3ec:	52800000 	mov	w0, #0x0                   	// #0
     3f0:	940003ac 	bl	12a0 <TEE_Panic>
/home/seungwoo/optee/Linux_for_Tegra/sources/tegra/optee-src/nv-optee/optee/optee_os/lib/libutee/tee_api.c:294 (discriminator 2)
     3f4:	11001294 	add	w20, w20, #0x4
     3f8:	91004273 	add	x19, x19, #0x10
     3fc:	7100429f 	cmp	w20, #0x10
     400:	54fffcc1 	b.ne	398 <check_invoke_param+0x20>  // b.any
/home/seungwoo/optee/Linux_for_Tegra/sources/tegra/optee-src/nv-optee/optee/optee_os/lib/libutee/tee_api.c:315
     404:	a94153f3 	ldp	x19, x20, [sp, #16]
     408:	a9425bf5 	ldp	x21, x22, [sp, #32]
     40c:	f9401bf7 	ldr	x23, [sp, #48]
     410:	a8c47bfd 	ldp	x29, x30, [sp], #64
     414:	d65f03c0 	ret
/home/seungwoo/optee/Linux_for_Tegra/sources/tegra/optee-src/nv-optee/optee/optee_os/lib/libutee/tee_api.c:295
     418:	52800080 	mov	w0, #0x4                   	// #4
     41c:	17ffffe7 	b	3b8 <check_invoke_param+0x40>

0000000000000420 <update_out_param>:
update_out_param():
/home/seungwoo/optee/Linux_for_Tegra/sources/tegra/optee-src/nv-optee/optee/optee_os/lib/libutee/tee_api.c:180
     420:	a9bc7bfd 	stp	x29, x30, [sp, #-64]!
     424:	910003fd 	mov	x29, sp
     428:	a90153f3 	stp	x19, x20, [sp, #16]
/home/seungwoo/optee/Linux_for_Tegra/sources/tegra/optee-src/nv-optee/optee/optee_os/lib/libutee/tee_api.c:182
     42c:	aa0203f4 	mov	x20, x2
     430:	aa0003f3 	mov	x19, x0
/home/seungwoo/optee/Linux_for_Tegra/sources/tegra/optee-src/nv-optee/optee/optee_os/lib/libutee/tee_api.c:180
     434:	a90363f7 	stp	x23, x24, [sp, #48]
     438:	aa0103f8 	mov	x24, x1
/home/seungwoo/optee/Linux_for_Tegra/sources/tegra/optee-src/nv-optee/optee/optee_os/lib/libutee/tee_api.c:182
     43c:	f8408697 	ldr	x23, [x20], #8
/home/seungwoo/optee/Linux_for_Tegra/sources/tegra/optee-src/nv-optee/optee/optee_os/lib/libutee/tee_api.c:180
     440:	a9025bf5 	stp	x21, x22, [sp, #32]
/home/seungwoo/optee/Linux_for_Tegra/sources/tegra/optee-src/nv-optee/optee/optee_os/lib/libutee/tee_api.c:184
     444:	d2800015 	mov	x21, #0x0                   	// #0
/home/seungwoo/optee/Linux_for_Tegra/sources/tegra/optee-src/nv-optee/optee/optee_os/lib/libutee/tee_api.c:188
     448:	531e76a0 	lsl	w0, w21, #2
/home/seungwoo/optee/Linux_for_Tegra/sources/tegra/optee-src/nv-optee/optee/optee_os/lib/libutee/tee_api.c:186
     44c:	f9400696 	ldr	x22, [x20, #8]
/home/seungwoo/optee/Linux_for_Tegra/sources/tegra/optee-src/nv-optee/optee/optee_os/lib/libutee/tee_api.c:188
     450:	1ac026e0 	lsr	w0, w23, w0
     454:	12000c01 	and	w1, w0, #0xf
     458:	721e041f 	tst	w0, #0xc
     45c:	540000c1 	b.ne	474 <update_out_param+0x54>  // b.any
     460:	721f081f 	tst	w0, #0xe
     464:	540000e0 	b.eq	480 <update_out_param+0x60>  // b.none
/home/seungwoo/optee/Linux_for_Tegra/sources/tegra/optee-src/nv-optee/optee/optee_os/lib/libutee/tee_api.c:191
     468:	f9400280 	ldr	x0, [x20]
/home/seungwoo/optee/Linux_for_Tegra/sources/tegra/optee-src/nv-optee/optee/optee_os/lib/libutee/tee_api.c:192
     46c:	29005a60 	stp	w0, w22, [x19]
/home/seungwoo/optee/Linux_for_Tegra/sources/tegra/optee-src/nv-optee/optee/optee_os/lib/libutee/tee_api.c:193
     470:	14000004 	b	480 <update_out_param+0x60>
/home/seungwoo/optee/Linux_for_Tegra/sources/tegra/optee-src/nv-optee/optee/optee_os/lib/libutee/tee_api.c:188
     474:	51001820 	sub	w0, w1, #0x6
     478:	7100041f 	cmp	w0, #0x1
     47c:	54000169 	b.ls	4a8 <update_out_param+0x88>  // b.plast
/home/seungwoo/optee/Linux_for_Tegra/sources/tegra/optee-src/nv-optee/optee/optee_os/lib/libutee/tee_api.c:184 (discriminator 2)
     480:	910006b5 	add	x21, x21, #0x1
     484:	91004294 	add	x20, x20, #0x10
     488:	91004273 	add	x19, x19, #0x10
     48c:	f10012bf 	cmp	x21, #0x4
     490:	54fffdc1 	b.ne	448 <update_out_param+0x28>  // b.any
/home/seungwoo/optee/Linux_for_Tegra/sources/tegra/optee-src/nv-optee/optee/optee_os/lib/libutee/tee_api.c:205
     494:	a94153f3 	ldp	x19, x20, [sp, #16]
     498:	a9425bf5 	ldp	x21, x22, [sp, #32]
     49c:	a94363f7 	ldp	x23, x24, [sp, #48]
     4a0:	a8c47bfd 	ldp	x29, x30, [sp], #64
     4a4:	d65f03c0 	ret
/home/seungwoo/optee/Linux_for_Tegra/sources/tegra/optee-src/nv-optee/optee/optee_os/lib/libutee/tee_api.c:196
     4a8:	f8757b01 	ldr	x1, [x24, x21, lsl #3]
     4ac:	b40000a1 	cbz	x1, 4c0 <update_out_param+0xa0>
/home/seungwoo/optee/Linux_for_Tegra/sources/tegra/optee-src/nv-optee/optee/optee_os/lib/libutee/tee_api.c:198
     4b0:	a9400a60 	ldp	x0, x2, [x19]
     4b4:	eb16005f 	cmp	x2, x22
/home/seungwoo/optee/Linux_for_Tegra/sources/tegra/optee-src/nv-optee/optee/optee_os/lib/libutee/tee_api.c:197
     4b8:	9a969042 	csel	x2, x2, x22, ls  // ls = plast
     4bc:	97fffed9 	bl	20 <memcpy>
/home/seungwoo/optee/Linux_for_Tegra/sources/tegra/optee-src/nv-optee/optee/optee_os/lib/libutee/tee_api.c:199
     4c0:	f9000676 	str	x22, [x19, #8]
/home/seungwoo/optee/Linux_for_Tegra/sources/tegra/optee-src/nv-optee/optee/optee_os/lib/libutee/tee_api.c:200
     4c4:	17ffffef 	b	480 <update_out_param+0x60>

00000000000004c8 <update_out_gp11_param>:
update_out_gp11_param():
/home/seungwoo/optee/Linux_for_Tegra/sources/tegra/optee-src/nv-optee/optee/optee_os/lib/libutee/tee_api.c:210
     4c8:	a9bc7bfd 	stp	x29, x30, [sp, #-64]!
     4cc:	910003fd 	mov	x29, sp
     4d0:	a90153f3 	stp	x19, x20, [sp, #16]
/home/seungwoo/optee/Linux_for_Tegra/sources/tegra/optee-src/nv-optee/optee/optee_os/lib/libutee/tee_api.c:212
     4d4:	aa0203f4 	mov	x20, x2
     4d8:	aa0003f3 	mov	x19, x0
/home/seungwoo/optee/Linux_for_Tegra/sources/tegra/optee-src/nv-optee/optee/optee_os/lib/libutee/tee_api.c:210
     4dc:	a90363f7 	stp	x23, x24, [sp, #48]
     4e0:	aa0103f8 	mov	x24, x1
/home/seungwoo/optee/Linux_for_Tegra/sources/tegra/optee-src/nv-optee/optee/optee_os/lib/libutee/tee_api.c:212
     4e4:	f8408697 	ldr	x23, [x20], #8
/home/seungwoo/optee/Linux_for_Tegra/sources/tegra/optee-src/nv-optee/optee/optee_os/lib/libutee/tee_api.c:210
     4e8:	a9025bf5 	stp	x21, x22, [sp, #32]
/home/seungwoo/optee/Linux_for_Tegra/sources/tegra/optee-src/nv-optee/optee/optee_os/lib/libutee/tee_api.c:214
     4ec:	d2800015 	mov	x21, #0x0                   	// #0
/home/seungwoo/optee/Linux_for_Tegra/sources/tegra/optee-src/nv-optee/optee/optee_os/lib/libutee/tee_api.c:218
     4f0:	531e76a0 	lsl	w0, w21, #2
/home/seungwoo/optee/Linux_for_Tegra/sources/tegra/optee-src/nv-optee/optee/optee_os/lib/libutee/tee_api.c:216
     4f4:	f9400696 	ldr	x22, [x20, #8]
/home/seungwoo/optee/Linux_for_Tegra/sources/tegra/optee-src/nv-optee/optee/optee_os/lib/libutee/tee_api.c:218
     4f8:	1ac026e0 	lsr	w0, w23, w0
     4fc:	12000c01 	and	w1, w0, #0xf
     500:	721e041f 	tst	w0, #0xc
     504:	540000c1 	b.ne	51c <update_out_gp11_param+0x54>  // b.any
     508:	721f081f 	tst	w0, #0xe
     50c:	540000e0 	b.eq	528 <update_out_gp11_param+0x60>  // b.none
/home/seungwoo/optee/Linux_for_Tegra/sources/tegra/optee-src/nv-optee/optee/optee_os/lib/libutee/tee_api.c:221
     510:	f9400280 	ldr	x0, [x20]
/home/seungwoo/optee/Linux_for_Tegra/sources/tegra/optee-src/nv-optee/optee/optee_os/lib/libutee/tee_api.c:222
     514:	29005a60 	stp	w0, w22, [x19]
/home/seungwoo/optee/Linux_for_Tegra/sources/tegra/optee-src/nv-optee/optee/optee_os/lib/libutee/tee_api.c:223
     518:	14000004 	b	528 <update_out_gp11_param+0x60>
/home/seungwoo/optee/Linux_for_Tegra/sources/tegra/optee-src/nv-optee/optee/optee_os/lib/libutee/tee_api.c:218
     51c:	51001820 	sub	w0, w1, #0x6
     520:	7100041f 	cmp	w0, #0x1
     524:	54000169 	b.ls	550 <update_out_gp11_param+0x88>  // b.plast
/home/seungwoo/optee/Linux_for_Tegra/sources/tegra/optee-src/nv-optee/optee/optee_os/lib/libutee/tee_api.c:214 (discriminator 2)
     528:	910006b5 	add	x21, x21, #0x1
     52c:	91004294 	add	x20, x20, #0x10
     530:	91004273 	add	x19, x19, #0x10
     534:	f10012bf 	cmp	x21, #0x4
     538:	54fffdc1 	b.ne	4f0 <update_out_gp11_param+0x28>  // b.any
/home/seungwoo/optee/Linux_for_Tegra/sources/tegra/optee-src/nv-optee/optee/optee_os/lib/libutee/tee_api.c:235
     53c:	a94153f3 	ldp	x19, x20, [sp, #16]
     540:	a9425bf5 	ldp	x21, x22, [sp, #32]
     544:	a94363f7 	ldp	x23, x24, [sp, #48]
     548:	a8c47bfd 	ldp	x29, x30, [sp], #64
     54c:	d65f03c0 	ret
/home/seungwoo/optee/Linux_for_Tegra/sources/tegra/optee-src/nv-optee/optee/optee_os/lib/libutee/tee_api.c:226
     550:	f8757b01 	ldr	x1, [x24, x21, lsl #3]
     554:	b40000c1 	cbz	x1, 56c <update_out_gp11_param+0xa4>
/home/seungwoo/optee/Linux_for_Tegra/sources/tegra/optee-src/nv-optee/optee/optee_os/lib/libutee/tee_api.c:228
     558:	b9400a62 	ldr	w2, [x19, #8]
/home/seungwoo/optee/Linux_for_Tegra/sources/tegra/optee-src/nv-optee/optee/optee_os/lib/libutee/tee_api.c:227
     55c:	f9400260 	ldr	x0, [x19]
/home/seungwoo/optee/Linux_for_Tegra/sources/tegra/optee-src/nv-optee/optee/optee_os/lib/libutee/tee_api.c:228
     560:	eb16005f 	cmp	x2, x22
/home/seungwoo/optee/Linux_for_Tegra/sources/tegra/optee-src/nv-optee/optee/optee_os/lib/libutee/tee_api.c:227
     564:	9a969042 	csel	x2, x2, x22, ls  // ls = plast
     568:	97fffeae 	bl	20 <memcpy>
/home/seungwoo/optee/Linux_for_Tegra/sources/tegra/optee-src/nv-optee/optee/optee_os/lib/libutee/tee_api.c:229
     56c:	b9000a76 	str	w22, [x19, #8]
/home/seungwoo/optee/Linux_for_Tegra/sources/tegra/optee-src/nv-optee/optee/optee_os/lib/libutee/tee_api.c:230
     570:	17ffffee 	b	528 <update_out_gp11_param+0x60>

0000000000000574 <TEE_CloseTASession>:
TEE_CloseTASession():
/home/seungwoo/optee/Linux_for_Tegra/sources/tegra/optee-src/nv-optee/optee/optee_os/lib/libutee/tee_api.c:415
     574:	b4000120 	cbz	x0, 598 <TEE_CloseTASession+0x24>
/home/seungwoo/optee/Linux_for_Tegra/sources/tegra/optee-src/nv-optee/optee/optee_os/lib/libutee/tee_api.c:414
     578:	a9bf7bfd 	stp	x29, x30, [sp, #-16]!
     57c:	910003fd 	mov	x29, sp
/home/seungwoo/optee/Linux_for_Tegra/sources/tegra/optee-src/nv-optee/optee/optee_os/lib/libutee/tee_api.c:416
     580:	94000674 	bl	1f50 <_utee_close_ta_session>
/home/seungwoo/optee/Linux_for_Tegra/sources/tegra/optee-src/nv-optee/optee/optee_os/lib/libutee/tee_api.c:418
     584:	34000060 	cbz	w0, 590 <TEE_CloseTASession+0x1c>
/home/seungwoo/optee/Linux_for_Tegra/sources/tegra/optee-src/nv-optee/optee/optee_os/lib/libutee/tee_api.c:421
     588:	a8c17bfd 	ldp	x29, x30, [sp], #16
/home/seungwoo/optee/Linux_for_Tegra/sources/tegra/optee-src/nv-optee/optee/optee_os/lib/libutee/tee_api.c:419
     58c:	14000345 	b	12a0 <TEE_Panic>
/home/seungwoo/optee/Linux_for_Tegra/sources/tegra/optee-src/nv-optee/optee/optee_os/lib/libutee/tee_api.c:421
     590:	a8c17bfd 	ldp	x29, x30, [sp], #16
     594:	d65f03c0 	ret
     598:	d65f03c0 	ret

000000000000059c <TEE_GetCancellationFlag>:
TEE_GetCancellationFlag():
/home/seungwoo/optee/Linux_for_Tegra/sources/tegra/optee-src/nv-optee/optee/optee_os/lib/libutee/tee_api.c:530
     59c:	a9be7bfd 	stp	x29, x30, [sp, #-32]!
     5a0:	b0000081 	adrp	x1, 11000 <_DYNAMIC>
     5a4:	910003fd 	mov	x29, sp
     5a8:	f9409821 	ldr	x1, [x1, #304]
     5ac:	f9400020 	ldr	x0, [x1]
     5b0:	f9000fe0 	str	x0, [sp, #24]
     5b4:	d2800000 	mov	x0, #0x0                   	// #0
/home/seungwoo/optee/Linux_for_Tegra/sources/tegra/optee-src/nv-optee/optee/optee_os/lib/libutee/tee_api.c:532
     5b8:	910053e0 	add	x0, sp, #0x14
     5bc:	9400066b 	bl	1f68 <_utee_get_cancellation_flag>
/home/seungwoo/optee/Linux_for_Tegra/sources/tegra/optee-src/nv-optee/optee/optee_os/lib/libutee/tee_api.c:534
     5c0:	34000040 	cbz	w0, 5c8 <TEE_GetCancellationFlag+0x2c>
/home/seungwoo/optee/Linux_for_Tegra/sources/tegra/optee-src/nv-optee/optee/optee_os/lib/libutee/tee_api.c:535
     5c4:	b90017ff 	str	wzr, [sp, #20]
/home/seungwoo/optee/Linux_for_Tegra/sources/tegra/optee-src/nv-optee/optee/optee_os/lib/libutee/tee_api.c:537
     5c8:	b0000081 	adrp	x1, 11000 <_DYNAMIC>
/home/seungwoo/optee/Linux_for_Tegra/sources/tegra/optee-src/nv-optee/optee/optee_os/lib/libutee/tee_api.c:536
     5cc:	b94017e0 	ldr	w0, [sp, #20]
/home/seungwoo/optee/Linux_for_Tegra/sources/tegra/optee-src/nv-optee/optee/optee_os/lib/libutee/tee_api.c:537
     5d0:	f9409821 	ldr	x1, [x1, #304]
/home/seungwoo/optee/Linux_for_Tegra/sources/tegra/optee-src/nv-optee/optee/optee_os/lib/libutee/tee_api.c:536
     5d4:	7100001f 	cmp	w0, #0x0
     5d8:	1a9f07e0 	cset	w0, ne  // ne = any
/home/seungwoo/optee/Linux_for_Tegra/sources/tegra/optee-src/nv-optee/optee/optee_os/lib/libutee/tee_api.c:537
     5dc:	f9400fe2 	ldr	x2, [sp, #24]
     5e0:	f9400023 	ldr	x3, [x1]
     5e4:	eb030042 	subs	x2, x2, x3
     5e8:	d2800003 	mov	x3, #0x0                   	// #0
     5ec:	54000040 	b.eq	5f4 <TEE_GetCancellationFlag+0x58>  // b.none
     5f0:	94002afc 	bl	b1e0 <__stack_chk_fail>
     5f4:	a8c27bfd 	ldp	x29, x30, [sp], #32
     5f8:	d65f03c0 	ret

00000000000005fc <TEE_UnmaskCancellation>:
TEE_UnmaskCancellation():
/home/seungwoo/optee/Linux_for_Tegra/sources/tegra/optee-src/nv-optee/optee/optee_os/lib/libutee/tee_api.c:540
     5fc:	a9be7bfd 	stp	x29, x30, [sp, #-32]!
     600:	b0000081 	adrp	x1, 11000 <_DYNAMIC>
     604:	910003fd 	mov	x29, sp
     608:	f9409821 	ldr	x1, [x1, #304]
     60c:	f9400020 	ldr	x0, [x1]
     610:	f9000fe0 	str	x0, [sp, #24]
     614:	d2800000 	mov	x0, #0x0                   	// #0
/home/seungwoo/optee/Linux_for_Tegra/sources/tegra/optee-src/nv-optee/optee/optee_os/lib/libutee/tee_api.c:542
     618:	910053e0 	add	x0, sp, #0x14
     61c:	94000659 	bl	1f80 <_utee_unmask_cancellation>
/home/seungwoo/optee/Linux_for_Tegra/sources/tegra/optee-src/nv-optee/optee/optee_os/lib/libutee/tee_api.c:544
     620:	34000040 	cbz	w0, 628 <TEE_UnmaskCancellation+0x2c>
/home/seungwoo/optee/Linux_for_Tegra/sources/tegra/optee-src/nv-optee/optee/optee_os/lib/libutee/tee_api.c:545
     624:	9400031f 	bl	12a0 <TEE_Panic>
/home/seungwoo/optee/Linux_for_Tegra/sources/tegra/optee-src/nv-optee/optee/optee_os/lib/libutee/tee_api.c:547
     628:	b0000081 	adrp	x1, 11000 <_DYNAMIC>
/home/seungwoo/optee/Linux_for_Tegra/sources/tegra/optee-src/nv-optee/optee/optee_os/lib/libutee/tee_api.c:546
     62c:	b94017e0 	ldr	w0, [sp, #20]
/home/seungwoo/optee/Linux_for_Tegra/sources/tegra/optee-src/nv-optee/optee/optee_os/lib/libutee/tee_api.c:547
     630:	f9409821 	ldr	x1, [x1, #304]
/home/seungwoo/optee/Linux_for_Tegra/sources/tegra/optee-src/nv-optee/optee/optee_os/lib/libutee/tee_api.c:546
     634:	7100001f 	cmp	w0, #0x0
     638:	1a9f07e0 	cset	w0, ne  // ne = any
/home/seungwoo/optee/Linux_for_Tegra/sources/tegra/optee-src/nv-optee/optee/optee_os/lib/libutee/tee_api.c:547
     63c:	f9400fe2 	ldr	x2, [sp, #24]
     640:	f9400023 	ldr	x3, [x1]
     644:	eb030042 	subs	x2, x2, x3
     648:	d2800003 	mov	x3, #0x0                   	// #0
     64c:	54000040 	b.eq	654 <TEE_UnmaskCancellation+0x58>  // b.none
     650:	94002ae4 	bl	b1e0 <__stack_chk_fail>
     654:	a8c27bfd 	ldp	x29, x30, [sp], #32
     658:	d65f03c0 	ret

000000000000065c <TEE_MaskCancellation>:
TEE_MaskCancellation():
/home/seungwoo/optee/Linux_for_Tegra/sources/tegra/optee-src/nv-optee/optee/optee_os/lib/libutee/tee_api.c:550
     65c:	a9be7bfd 	stp	x29, x30, [sp, #-32]!
     660:	b0000081 	adrp	x1, 11000 <_DYNAMIC>
     664:	910003fd 	mov	x29, sp
     668:	f9409821 	ldr	x1, [x1, #304]
     66c:	f9400020 	ldr	x0, [x1]
     670:	f9000fe0 	str	x0, [sp, #24]
     674:	d2800000 	mov	x0, #0x0                   	// #0
/home/seungwoo/optee/Linux_for_Tegra/sources/tegra/optee-src/nv-optee/optee/optee_os/lib/libutee/tee_api.c:552
     678:	910053e0 	add	x0, sp, #0x14
     67c:	94000644 	bl	1f8c <_utee_mask_cancellation>
/home/seungwoo/optee/Linux_for_Tegra/sources/tegra/optee-src/nv-optee/optee/optee_os/lib/libutee/tee_api.c:554
     680:	34000040 	cbz	w0, 688 <TEE_MaskCancellation+0x2c>
/home/seungwoo/optee/Linux_for_Tegra/sources/tegra/optee-src/nv-optee/optee/optee_os/lib/libutee/tee_api.c:555
     684:	94000307 	bl	12a0 <TEE_Panic>
/home/seungwoo/optee/Linux_for_Tegra/sources/tegra/optee-src/nv-optee/optee/optee_os/lib/libutee/tee_api.c:557
     688:	b0000081 	adrp	x1, 11000 <_DYNAMIC>
/home/seungwoo/optee/Linux_for_Tegra/sources/tegra/optee-src/nv-optee/optee/optee_os/lib/libutee/tee_api.c:556
     68c:	b94017e0 	ldr	w0, [sp, #20]
/home/seungwoo/optee/Linux_for_Tegra/sources/tegra/optee-src/nv-optee/optee/optee_os/lib/libutee/tee_api.c:557
     690:	f9409821 	ldr	x1, [x1, #304]
/home/seungwoo/optee/Linux_for_Tegra/sources/tegra/optee-src/nv-optee/optee/optee_os/lib/libutee/tee_api.c:556
     694:	7100001f 	cmp	w0, #0x0
     698:	1a9f07e0 	cset	w0, ne  // ne = any
/home/seungwoo/optee/Linux_for_Tegra/sources/tegra/optee-src/nv-optee/optee/optee_os/lib/libutee/tee_api.c:557
     69c:	f9400fe2 	ldr	x2, [sp, #24]
     6a0:	f9400023 	ldr	x3, [x1]
     6a4:	eb030042 	subs	x2, x2, x3
     6a8:	d2800003 	mov	x3, #0x0                   	// #0
     6ac:	54000040 	b.eq	6b4 <TEE_MaskCancellation+0x58>  // b.none
     6b0:	94002acc 	bl	b1e0 <__stack_chk_fail>
     6b4:	a8c27bfd 	ldp	x29, x30, [sp], #32
     6b8:	d65f03c0 	ret

00000000000006bc <TEE_CheckMemoryAccessRights>:
TEE_CheckMemoryAccessRights():
/home/seungwoo/optee/Linux_for_Tegra/sources/tegra/optee-src/nv-optee/optee/optee_os/lib/libutee/tee_api.c:566
     6bc:	b5000102 	cbnz	x2, 6dc <TEE_CheckMemoryAccessRights+0x20>
/home/seungwoo/optee/Linux_for_Tegra/sources/tegra/optee-src/nv-optee/optee/optee_os/lib/libutee/tee_api.c:567
     6c0:	52800000 	mov	w0, #0x0                   	// #0
/home/seungwoo/optee/Linux_for_Tegra/sources/tegra/optee-src/nv-optee/optee/optee_os/lib/libutee/tee_api.c:592
     6c4:	d65f03c0 	ret
/home/seungwoo/optee/Linux_for_Tegra/sources/tegra/optee-src/nv-optee/optee/optee_os/lib/libutee/tee_api.c:567
     6c8:	52800000 	mov	w0, #0x0                   	// #0
/home/seungwoo/optee/Linux_for_Tegra/sources/tegra/optee-src/nv-optee/optee/optee_os/lib/libutee/tee_api.c:592
     6cc:	a94153f3 	ldp	x19, x20, [sp, #16]
     6d0:	f94013f5 	ldr	x21, [sp, #32]
     6d4:	a8c37bfd 	ldp	x29, x30, [sp], #48
     6d8:	d65f03c0 	ret
/home/seungwoo/optee/Linux_for_Tegra/sources/tegra/optee-src/nv-optee/optee/optee_os/lib/libutee/tee_api.c:563
     6dc:	a9bd7bfd 	stp	x29, x30, [sp, #-48]!
     6e0:	910003fd 	mov	x29, sp
     6e4:	a90153f3 	stp	x19, x20, [sp, #16]
     6e8:	aa0103f4 	mov	x20, x1
     6ec:	aa0203f3 	mov	x19, x2
     6f0:	f90013f5 	str	x21, [sp, #32]
     6f4:	2a0003f5 	mov	w21, w0
/home/seungwoo/optee/Linux_for_Tegra/sources/tegra/optee-src/nv-optee/optee/optee_os/lib/libutee/tee_api.c:573
     6f8:	9400061f 	bl	1f74 <_utee_check_access_rights>
     6fc:	35000200 	cbnz	w0, 73c <TEE_CheckMemoryAccessRights+0x80>
/home/seungwoo/optee/Linux_for_Tegra/sources/tegra/optee-src/nv-optee/optee/optee_os/lib/libutee/tee_api.c:584
     700:	aa1303e2 	mov	x2, x19
     704:	aa1403e1 	mov	x1, x20
     708:	12000aa0 	and	w0, w21, #0x7
     70c:	97fffee5 	bl	2a0 <check_mem_access_rights_params>
     710:	35000160 	cbnz	w0, 73c <TEE_CheckMemoryAccessRights+0x80>
/home/seungwoo/optee/Linux_for_Tegra/sources/tegra/optee-src/nv-optee/optee/optee_os/lib/libutee/tee_api.c:587
     714:	aa1303e1 	mov	x1, x19
     718:	aa1403e0 	mov	x0, x20
     71c:	94002a62 	bl	b0a4 <malloc_buffer_overlaps_heap>
     720:	72001c1f 	tst	w0, #0xff
     724:	54fffd20 	b.eq	6c8 <TEE_CheckMemoryAccessRights+0xc>  // b.none
/home/seungwoo/optee/Linux_for_Tegra/sources/tegra/optee-src/nv-optee/optee/optee_os/lib/libutee/tee_api.c:588
     728:	aa1303e1 	mov	x1, x19
     72c:	aa1403e0 	mov	x0, x20
     730:	94002a58 	bl	b090 <malloc_buffer_is_within_alloced>
/home/seungwoo/optee/Linux_for_Tegra/sources/tegra/optee-src/nv-optee/optee/optee_os/lib/libutee/tee_api.c:587
     734:	72001c1f 	tst	w0, #0xff
     738:	54fffc81 	b.ne	6c8 <TEE_CheckMemoryAccessRights+0xc>  // b.any
/home/seungwoo/optee/Linux_for_Tegra/sources/tegra/optee-src/nv-optee/optee/optee_os/lib/libutee/tee_api.c:589
     73c:	129fffc0 	mov	w0, #0xffff0001            	// #-65535
     740:	17ffffe3 	b	6cc <TEE_CheckMemoryAccessRights+0x10>

0000000000000744 <map_tmp_param>:
map_tmp_param():
/home/seungwoo/optee/Linux_for_Tegra/sources/tegra/optee-src/nv-optee/optee/optee_os/lib/libutee/tee_api.c:98
     744:	a9b87bfd 	stp	x29, x30, [sp, #-128]!
     748:	b0000084 	adrp	x4, 11000 <_DYNAMIC>
     74c:	910003fd 	mov	x29, sp
     750:	f9409884 	ldr	x4, [x4, #304]
     754:	a9046bf9 	stp	x25, x26, [sp, #64]
     758:	aa0003f9 	mov	x25, x0
     75c:	a90153f3 	stp	x19, x20, [sp, #16]
     760:	f9400080 	ldr	x0, [x4]
     764:	f9003fe0 	str	x0, [sp, #120]
     768:	d2800000 	mov	x0, #0x0                   	// #0
/home/seungwoo/optee/Linux_for_Tegra/sources/tegra/optee-src/nv-optee/optee/optee_os/lib/libutee/tee_api.c:101
     76c:	d280001a 	mov	x26, #0x0                   	// #0
/home/seungwoo/optee/Linux_for_Tegra/sources/tegra/optee-src/nv-optee/optee/optee_os/lib/libutee/tee_api.c:98
     770:	a9025bf5 	stp	x21, x22, [sp, #32]
     774:	aa0203f6 	mov	x22, x2
     778:	aa0303f5 	mov	x21, x3
     77c:	a90363f7 	stp	x23, x24, [sp, #48]
     780:	91002338 	add	x24, x25, #0x8
     784:	aa0103f7 	mov	x23, x1
     788:	a90573fb 	stp	x27, x28, [sp, #80]
/home/seungwoo/optee/Linux_for_Tegra/sources/tegra/optee-src/nv-optee/optee/optee_os/lib/libutee/tee_api.c:115
     78c:	aa1803fb 	mov	x27, x24
/home/seungwoo/optee/Linux_for_Tegra/sources/tegra/optee-src/nv-optee/optee/optee_os/lib/libutee/tee_api.c:135
     790:	9101c3fc 	add	x28, sp, #0x70
/home/seungwoo/optee/Linux_for_Tegra/sources/tegra/optee-src/nv-optee/optee/optee_os/lib/libutee/tee_api.c:114
     794:	f900003f 	str	xzr, [x1]
/home/seungwoo/optee/Linux_for_Tegra/sources/tegra/optee-src/nv-optee/optee/optee_os/lib/libutee/tee_api.c:116
     798:	d2800013 	mov	x19, #0x0                   	// #0
/home/seungwoo/optee/Linux_for_Tegra/sources/tegra/optee-src/nv-optee/optee/optee_os/lib/libutee/tee_api.c:135
     79c:	52800023 	mov	w3, #0x1                   	// #1
/home/seungwoo/optee/Linux_for_Tegra/sources/tegra/optee-src/nv-optee/optee/optee_os/lib/libutee/tee_api.c:115
     7a0:	f900005f 	str	xzr, [x2]
/home/seungwoo/optee/Linux_for_Tegra/sources/tegra/optee-src/nv-optee/optee/optee_os/lib/libutee/tee_api.c:103
     7a4:	b90073ff 	str	wzr, [sp, #112]
/home/seungwoo/optee/Linux_for_Tegra/sources/tegra/optee-src/nv-optee/optee/optee_os/lib/libutee/tee_api.c:118
     7a8:	f9400321 	ldr	x1, [x25]
     7ac:	531e7660 	lsl	w0, w19, #2
/home/seungwoo/optee/Linux_for_Tegra/sources/tegra/optee-src/nv-optee/optee/optee_os/lib/libutee/tee_api.c:117
     7b0:	f8337abf 	str	xzr, [x21, x19, lsl #3]
/home/seungwoo/optee/Linux_for_Tegra/sources/tegra/optee-src/nv-optee/optee/optee_os/lib/libutee/tee_api.c:118
     7b4:	1ac02421 	lsr	w1, w1, w0
     7b8:	12000c21 	and	w1, w1, #0xf
     7bc:	51001421 	sub	w1, w1, #0x5
     7c0:	7100083f 	cmp	w1, #0x2
     7c4:	540001e8 	b.hi	800 <map_tmp_param+0xbc>  // b.pmore
/home/seungwoo/optee/Linux_for_Tegra/sources/tegra/optee-src/nv-optee/optee/optee_os/lib/libutee/tee_api.c:123
     7c8:	a9405361 	ldp	x1, x20, [x27]
/home/seungwoo/optee/Linux_for_Tegra/sources/tegra/optee-src/nv-optee/optee/optee_os/lib/libutee/tee_api.c:133
     7cc:	f100003f 	cmp	x1, #0x0
     7d0:	fa401a84 	ccmp	x20, #0x0, #0x4, ne  // ne = any
     7d4:	54000160 	b.eq	800 <map_tmp_param+0xbc>  // b.none
/home/seungwoo/optee/Linux_for_Tegra/sources/tegra/optee-src/nv-optee/optee/optee_os/lib/libutee/tee_api.c:134 (discriminator 1)
     7d8:	aa1403e2 	mov	x2, x20
     7dc:	52800020 	mov	w0, #0x1                   	// #1
     7e0:	b9006fe3 	str	w3, [sp, #108]
     7e4:	97ffffb6 	bl	6bc <TEE_CheckMemoryAccessRights>
/home/seungwoo/optee/Linux_for_Tegra/sources/tegra/optee-src/nv-optee/optee/optee_os/lib/libutee/tee_api.c:133 (discriminator 1)
     7e8:	b9406fe3 	ldr	w3, [sp, #108]
     7ec:	350000a0 	cbnz	w0, 800 <map_tmp_param+0xbc>
/home/seungwoo/optee/Linux_for_Tegra/sources/tegra/optee-src/nv-optee/optee/optee_os/lib/libutee/tee_api.c:136
     7f0:	91003e94 	add	x20, x20, #0xf
/home/seungwoo/optee/Linux_for_Tegra/sources/tegra/optee-src/nv-optee/optee/optee_os/lib/libutee/tee_api.c:135
     7f4:	383c6a63 	strb	w3, [x19, x28]
/home/seungwoo/optee/Linux_for_Tegra/sources/tegra/optee-src/nv-optee/optee/optee_os/lib/libutee/tee_api.c:136
     7f8:	927cee94 	and	x20, x20, #0xfffffffffffffff0
     7fc:	8b14035a 	add	x26, x26, x20
/home/seungwoo/optee/Linux_for_Tegra/sources/tegra/optee-src/nv-optee/optee/optee_os/lib/libutee/tee_api.c:116 (discriminator 2)
     800:	91000673 	add	x19, x19, #0x1
     804:	9100437b 	add	x27, x27, #0x10
     808:	f100127f 	cmp	x19, #0x4
     80c:	54fffce1 	b.ne	7a8 <map_tmp_param+0x64>  // b.any
/home/seungwoo/optee/Linux_for_Tegra/sources/tegra/optee-src/nv-optee/optee/optee_os/lib/libutee/tee_api.c:144
     810:	b400053a 	cbz	x26, 8b4 <map_tmp_param+0x170>
/home/seungwoo/optee/Linux_for_Tegra/sources/tegra/optee-src/nv-optee/optee/optee_os/lib/libutee/tee_api.c:145
     814:	2a1303e1 	mov	w1, w19
     818:	aa1a03e0 	mov	x0, x26
     81c:	94000343 	bl	1528 <tee_map_zi>
/home/seungwoo/optee/Linux_for_Tegra/sources/tegra/optee-src/nv-optee/optee/optee_os/lib/libutee/tee_api.c:146
     820:	b40004e0 	cbz	x0, 8bc <map_tmp_param+0x178>
/home/seungwoo/optee/Linux_for_Tegra/sources/tegra/optee-src/nv-optee/optee/optee_os/lib/libutee/tee_api.c:148
     824:	f90002e0 	str	x0, [x23]
/home/seungwoo/optee/Linux_for_Tegra/sources/tegra/optee-src/nv-optee/optee/optee_os/lib/libutee/tee_api.c:149
     828:	f90002da 	str	x26, [x22]
/home/seungwoo/optee/Linux_for_Tegra/sources/tegra/optee-src/nv-optee/optee/optee_os/lib/libutee/tee_api.c:157
     82c:	9101c3f6 	add	x22, sp, #0x70
/home/seungwoo/optee/Linux_for_Tegra/sources/tegra/optee-src/nv-optee/optee/optee_os/lib/libutee/tee_api.c:100
     830:	d2800013 	mov	x19, #0x0                   	// #0
/home/seungwoo/optee/Linux_for_Tegra/sources/tegra/optee-src/nv-optee/optee/optee_os/lib/libutee/tee_api.c:153
     834:	f9400323 	ldr	x3, [x25]
     838:	531e7661 	lsl	w1, w19, #2
     83c:	1ac12463 	lsr	w3, w3, w1
     840:	12000c63 	and	w3, w3, #0xf
     844:	51001461 	sub	w1, w3, #0x5
     848:	7100083f 	cmp	w1, #0x2
     84c:	540001a8 	b.hi	880 <map_tmp_param+0x13c>  // b.pmore
/home/seungwoo/optee/Linux_for_Tegra/sources/tegra/optee-src/nv-optee/optee/optee_os/lib/libutee/tee_api.c:157
     850:	38766a61 	ldrb	w1, [x19, x22]
     854:	34000161 	cbz	w1, 880 <map_tmp_param+0x13c>
/home/seungwoo/optee/Linux_for_Tegra/sources/tegra/optee-src/nv-optee/optee/optee_os/lib/libutee/tee_api.c:159
     858:	a9400b01 	ldp	x1, x2, [x24]
/home/seungwoo/optee/Linux_for_Tegra/sources/tegra/optee-src/nv-optee/optee/optee_os/lib/libutee/tee_api.c:161
     85c:	f8337aa0 	str	x0, [x21, x19, lsl #3]
/home/seungwoo/optee/Linux_for_Tegra/sources/tegra/optee-src/nv-optee/optee/optee_os/lib/libutee/tee_api.c:163
     860:	f9000300 	str	x0, [x24]
/home/seungwoo/optee/Linux_for_Tegra/sources/tegra/optee-src/nv-optee/optee/optee_os/lib/libutee/tee_api.c:164
     864:	7100187f 	cmp	w3, #0x6
/home/seungwoo/optee/Linux_for_Tegra/sources/tegra/optee-src/nv-optee/optee/optee_os/lib/libutee/tee_api.c:162
     868:	91003c54 	add	x20, x2, #0xf
     86c:	927cee94 	and	x20, x20, #0xfffffffffffffff0
     870:	8b140014 	add	x20, x0, x20
/home/seungwoo/optee/Linux_for_Tegra/sources/tegra/optee-src/nv-optee/optee/optee_os/lib/libutee/tee_api.c:164
     874:	54000040 	b.eq	87c <map_tmp_param+0x138>  // b.none
/home/seungwoo/optee/Linux_for_Tegra/sources/tegra/optee-src/nv-optee/optee/optee_os/lib/libutee/tee_api.c:166
     878:	97fffdea 	bl	20 <memcpy>
/home/seungwoo/optee/Linux_for_Tegra/sources/tegra/optee-src/nv-optee/optee/optee_os/lib/libutee/tee_api.c:162
     87c:	aa1403e0 	mov	x0, x20
/home/seungwoo/optee/Linux_for_Tegra/sources/tegra/optee-src/nv-optee/optee/optee_os/lib/libutee/tee_api.c:152 (discriminator 2)
     880:	91000673 	add	x19, x19, #0x1
     884:	91004318 	add	x24, x24, #0x10
     888:	f100127f 	cmp	x19, #0x4
     88c:	54fffd41 	b.ne	834 <map_tmp_param+0xf0>  // b.any
/home/seungwoo/optee/Linux_for_Tegra/sources/tegra/optee-src/nv-optee/optee/optee_os/lib/libutee/tee_api.c:173
     890:	52800000 	mov	w0, #0x0                   	// #0
/home/seungwoo/optee/Linux_for_Tegra/sources/tegra/optee-src/nv-optee/optee/optee_os/lib/libutee/tee_api.c:175
     894:	b0000084 	adrp	x4, 11000 <_DYNAMIC>
     898:	f9409884 	ldr	x4, [x4, #304]
     89c:	f9403fe1 	ldr	x1, [sp, #120]
     8a0:	f9400082 	ldr	x2, [x4]
     8a4:	eb020021 	subs	x1, x1, x2
     8a8:	d2800002 	mov	x2, #0x0                   	// #0
     8ac:	540000c0 	b.eq	8c4 <map_tmp_param+0x180>  // b.none
     8b0:	94002a4c 	bl	b1e0 <__stack_chk_fail>
/home/seungwoo/optee/Linux_for_Tegra/sources/tegra/optee-src/nv-optee/optee/optee_os/lib/libutee/tee_api.c:100
     8b4:	d2800000 	mov	x0, #0x0                   	// #0
     8b8:	17ffffdd 	b	82c <map_tmp_param+0xe8>
/home/seungwoo/optee/Linux_for_Tegra/sources/tegra/optee-src/nv-optee/optee/optee_os/lib/libutee/tee_api.c:147
     8bc:	129ffe60 	mov	w0, #0xffff000c            	// #-65524
     8c0:	17fffff5 	b	894 <map_tmp_param+0x150>
/home/seungwoo/optee/Linux_for_Tegra/sources/tegra/optee-src/nv-optee/optee/optee_os/lib/libutee/tee_api.c:175
     8c4:	a94153f3 	ldp	x19, x20, [sp, #16]
     8c8:	a9425bf5 	ldp	x21, x22, [sp, #32]
     8cc:	a94363f7 	ldp	x23, x24, [sp, #48]
     8d0:	a9446bf9 	ldp	x25, x26, [sp, #64]
     8d4:	a94573fb 	ldp	x27, x28, [sp, #80]
     8d8:	a8c87bfd 	ldp	x29, x30, [sp], #128
     8dc:	d65f03c0 	ret

00000000000008e0 <TEE_OpenTASession>:
TEE_OpenTASession():
/home/seungwoo/optee/Linux_for_Tegra/sources/tegra/optee-src/nv-optee/optee/optee_os/lib/libutee/tee_api.c:323
     8e0:	a9b27bfd 	stp	x29, x30, [sp, #-224]!
     8e4:	b0000086 	adrp	x6, 11000 <_DYNAMIC>
     8e8:	910003fd 	mov	x29, sp
     8ec:	f94098c6 	ldr	x6, [x6, #304]
     8f0:	a90363f7 	stp	x23, x24, [sp, #48]
     8f4:	aa0003f7 	mov	x23, x0
     8f8:	f94000c0 	ldr	x0, [x6]
     8fc:	f9006fe0 	str	x0, [sp, #216]
     900:	d2800000 	mov	x0, #0x0                   	// #0
     904:	a90153f3 	stp	x19, x20, [sp, #16]
     908:	2a0103f8 	mov	w24, w1
     90c:	a9025bf5 	stp	x21, x22, [sp, #32]
     910:	2a0203f3 	mov	w19, w2
     914:	aa0303f4 	mov	x20, x3
     918:	a9046bf9 	stp	x25, x26, [sp, #64]
     91c:	aa0403f5 	mov	x21, x4
     920:	aa0503f9 	mov	x25, x5
/home/seungwoo/optee/Linux_for_Tegra/sources/tegra/optee-src/nv-optee/optee/optee_os/lib/libutee/tee_api.c:326
     924:	b9005fff 	str	wzr, [sp, #92]
/home/seungwoo/optee/Linux_for_Tegra/sources/tegra/optee-src/nv-optee/optee/optee_os/lib/libutee/tee_api.c:328
     928:	a9067fff 	stp	xzr, xzr, [sp, #96]
/home/seungwoo/optee/Linux_for_Tegra/sources/tegra/optee-src/nv-optee/optee/optee_os/lib/libutee/tee_api.c:329
     92c:	a9077fff 	stp	xzr, xzr, [sp, #112]
     930:	a9087fff 	stp	xzr, xzr, [sp, #128]
/home/seungwoo/optee/Linux_for_Tegra/sources/tegra/optee-src/nv-optee/optee/optee_os/lib/libutee/tee_api.c:325
     934:	a9097fff 	stp	xzr, xzr, [sp, #144]
     938:	a90a7fff 	stp	xzr, xzr, [sp, #160]
     93c:	a90b7fff 	stp	xzr, xzr, [sp, #176]
     940:	a90c7fff 	stp	xzr, xzr, [sp, #192]
     944:	f9006bff 	str	xzr, [sp, #208]
/home/seungwoo/optee/Linux_for_Tegra/sources/tegra/optee-src/nv-optee/optee/optee_os/lib/libutee/tee_api.c:331
     948:	340000e2 	cbz	w2, 964 <TEE_OpenTASession+0x84>
/home/seungwoo/optee/Linux_for_Tegra/sources/tegra/optee-src/nv-optee/optee/optee_os/lib/libutee/tee_api.c:332
     94c:	aa0303e0 	mov	x0, x3
     950:	d2800801 	mov	x1, #0x40                  	// #64
     954:	940002cb 	bl	1480 <__utee_check_inout_annotation>
/home/seungwoo/optee/Linux_for_Tegra/sources/tegra/optee-src/nv-optee/optee/optee_os/lib/libutee/tee_api.c:335
     958:	aa1403e1 	mov	x1, x20
     95c:	2a1303e0 	mov	w0, w19
     960:	97fffe86 	bl	378 <check_invoke_param>
/home/seungwoo/optee/Linux_for_Tegra/sources/tegra/optee-src/nv-optee/optee/optee_os/lib/libutee/tee_api.c:337
     964:	aa1503e0 	mov	x0, x21
/home/seungwoo/optee/Linux_for_Tegra/sources/tegra/optee-src/nv-optee/optee/optee_os/lib/libutee/tee_api.c:339
     968:	910243f6 	add	x22, sp, #0x90
/home/seungwoo/optee/Linux_for_Tegra/sources/tegra/optee-src/nv-optee/optee/optee_os/lib/libutee/tee_api.c:337
     96c:	d2800101 	mov	x1, #0x8                   	// #8
     970:	940002aa 	bl	1418 <__utee_check_out_annotation>
/home/seungwoo/optee/Linux_for_Tegra/sources/tegra/optee-src/nv-optee/optee/optee_os/lib/libutee/tee_api.c:339
     974:	2a1303e1 	mov	w1, w19
     978:	aa1403e2 	mov	x2, x20
     97c:	aa1603e0 	mov	x0, x22
/home/seungwoo/optee/Linux_for_Tegra/sources/tegra/optee-src/nv-optee/optee/optee_os/lib/libutee/tee_api.c:340
     980:	9101c3fa 	add	x26, sp, #0x70
/home/seungwoo/optee/Linux_for_Tegra/sources/tegra/optee-src/nv-optee/optee/optee_os/lib/libutee/tee_api.c:339
     984:	97fffe10 	bl	1c4 <copy_param>
/home/seungwoo/optee/Linux_for_Tegra/sources/tegra/optee-src/nv-optee/optee/optee_os/lib/libutee/tee_api.c:340
     988:	aa1a03e3 	mov	x3, x26
     98c:	9101a3e2 	add	x2, sp, #0x68
     990:	910183e1 	add	x1, sp, #0x60
     994:	aa1603e0 	mov	x0, x22
     998:	97ffff6b 	bl	744 <map_tmp_param>
     99c:	2a0003f3 	mov	w19, w0
/home/seungwoo/optee/Linux_for_Tegra/sources/tegra/optee-src/nv-optee/optee/optee_os/lib/libutee/tee_api.c:341
     9a0:	35000260 	cbnz	w0, 9ec <TEE_OpenTASession+0x10c>
/home/seungwoo/optee/Linux_for_Tegra/sources/tegra/optee-src/nv-optee/optee/optee_os/lib/libutee/tee_api.c:343
     9a4:	aa1903e4 	mov	x4, x25
     9a8:	910173e3 	add	x3, sp, #0x5c
     9ac:	aa1603e2 	mov	x2, x22
     9b0:	2a1803e1 	mov	w1, w24
     9b4:	aa1703e0 	mov	x0, x23
     9b8:	94000563 	bl	1f44 <_utee_open_ta_session>
/home/seungwoo/optee/Linux_for_Tegra/sources/tegra/optee-src/nv-optee/optee/optee_os/lib/libutee/tee_api.c:345
     9bc:	aa1603e2 	mov	x2, x22
/home/seungwoo/optee/Linux_for_Tegra/sources/tegra/optee-src/nv-optee/optee/optee_os/lib/libutee/tee_api.c:343
     9c0:	2a0003f3 	mov	w19, w0
/home/seungwoo/optee/Linux_for_Tegra/sources/tegra/optee-src/nv-optee/optee/optee_os/lib/libutee/tee_api.c:345
     9c4:	aa1a03e1 	mov	x1, x26
     9c8:	aa1403e0 	mov	x0, x20
     9cc:	97fffe95 	bl	420 <update_out_param>
/home/seungwoo/optee/Linux_for_Tegra/sources/tegra/optee-src/nv-optee/optee/optee_os/lib/libutee/tee_api.c:346
     9d0:	f94033e0 	ldr	x0, [sp, #96]
     9d4:	b40000a0 	cbz	x0, 9e8 <TEE_OpenTASession+0x108>
/home/seungwoo/optee/Linux_for_Tegra/sources/tegra/optee-src/nv-optee/optee/optee_os/lib/libutee/tee_api.c:347
     9d8:	f94037e1 	ldr	x1, [sp, #104]
     9dc:	940002ff 	bl	15d8 <tee_unmap>
/home/seungwoo/optee/Linux_for_Tegra/sources/tegra/optee-src/nv-optee/optee/optee_os/lib/libutee/tee_api.c:349
     9e0:	34000040 	cbz	w0, 9e8 <TEE_OpenTASession+0x108>
/home/seungwoo/optee/Linux_for_Tegra/sources/tegra/optee-src/nv-optee/optee/optee_os/lib/libutee/tee_api.c:350
     9e4:	9400022f 	bl	12a0 <TEE_Panic>
/home/seungwoo/optee/Linux_for_Tegra/sources/tegra/optee-src/nv-optee/optee/optee_os/lib/libutee/tee_api.c:359
     9e8:	34000053 	cbz	w19, 9f0 <TEE_OpenTASession+0x110>
/home/seungwoo/optee/Linux_for_Tegra/sources/tegra/optee-src/nv-optee/optee/optee_os/lib/libutee/tee_api.c:360
     9ec:	b9005fff 	str	wzr, [sp, #92]
/home/seungwoo/optee/Linux_for_Tegra/sources/tegra/optee-src/nv-optee/optee/optee_os/lib/libutee/tee_api.c:364
     9f0:	b0000086 	adrp	x6, 11000 <_DYNAMIC>
/home/seungwoo/optee/Linux_for_Tegra/sources/tegra/optee-src/nv-optee/optee/optee_os/lib/libutee/tee_api.c:362
     9f4:	b9405fe0 	ldr	w0, [sp, #92]
     9f8:	f90002a0 	str	x0, [x21]
/home/seungwoo/optee/Linux_for_Tegra/sources/tegra/optee-src/nv-optee/optee/optee_os/lib/libutee/tee_api.c:364
     9fc:	f94098c6 	ldr	x6, [x6, #304]
     a00:	f9406fe0 	ldr	x0, [sp, #216]
     a04:	f94000c1 	ldr	x1, [x6]
     a08:	eb010000 	subs	x0, x0, x1
     a0c:	d2800001 	mov	x1, #0x0                   	// #0
     a10:	54000040 	b.eq	a18 <TEE_OpenTASession+0x138>  // b.none
     a14:	940029f3 	bl	b1e0 <__stack_chk_fail>
     a18:	2a1303e0 	mov	w0, w19
     a1c:	a94153f3 	ldp	x19, x20, [sp, #16]
     a20:	a9425bf5 	ldp	x21, x22, [sp, #32]
     a24:	a94363f7 	ldp	x23, x24, [sp, #48]
     a28:	a9446bf9 	ldp	x25, x26, [sp, #64]
     a2c:	a8ce7bfd 	ldp	x29, x30, [sp], #224
     a30:	d65f03c0 	ret

0000000000000a34 <__GP11_TEE_OpenTASession>:
__GP11_TEE_OpenTASession():
/home/seungwoo/optee/Linux_for_Tegra/sources/tegra/optee-src/nv-optee/optee/optee_os/lib/libutee/tee_api.c:372
     a34:	a9b27bfd 	stp	x29, x30, [sp, #-224]!
     a38:	b0000086 	adrp	x6, 11000 <_DYNAMIC>
     a3c:	910003fd 	mov	x29, sp
     a40:	f94098c6 	ldr	x6, [x6, #304]
     a44:	a90363f7 	stp	x23, x24, [sp, #48]
     a48:	aa0003f7 	mov	x23, x0
     a4c:	f94000c0 	ldr	x0, [x6]
     a50:	f9006fe0 	str	x0, [sp, #216]
     a54:	d2800000 	mov	x0, #0x0                   	// #0
     a58:	a90153f3 	stp	x19, x20, [sp, #16]
     a5c:	2a0103f8 	mov	w24, w1
     a60:	a9025bf5 	stp	x21, x22, [sp, #32]
     a64:	2a0203f3 	mov	w19, w2
     a68:	aa0303f4 	mov	x20, x3
     a6c:	a9046bf9 	stp	x25, x26, [sp, #64]
     a70:	aa0403f5 	mov	x21, x4
     a74:	aa0503f9 	mov	x25, x5
/home/seungwoo/optee/Linux_for_Tegra/sources/tegra/optee-src/nv-optee/optee/optee_os/lib/libutee/tee_api.c:375
     a78:	b9005fff 	str	wzr, [sp, #92]
/home/seungwoo/optee/Linux_for_Tegra/sources/tegra/optee-src/nv-optee/optee/optee_os/lib/libutee/tee_api.c:377
     a7c:	a9067fff 	stp	xzr, xzr, [sp, #96]
/home/seungwoo/optee/Linux_for_Tegra/sources/tegra/optee-src/nv-optee/optee/optee_os/lib/libutee/tee_api.c:378
     a80:	a9077fff 	stp	xzr, xzr, [sp, #112]
     a84:	a9087fff 	stp	xzr, xzr, [sp, #128]
/home/seungwoo/optee/Linux_for_Tegra/sources/tegra/optee-src/nv-optee/optee/optee_os/lib/libutee/tee_api.c:374
     a88:	a9097fff 	stp	xzr, xzr, [sp, #144]
     a8c:	a90a7fff 	stp	xzr, xzr, [sp, #160]
     a90:	a90b7fff 	stp	xzr, xzr, [sp, #176]
     a94:	a90c7fff 	stp	xzr, xzr, [sp, #192]
     a98:	f9006bff 	str	xzr, [sp, #208]
/home/seungwoo/optee/Linux_for_Tegra/sources/tegra/optee-src/nv-optee/optee/optee_os/lib/libutee/tee_api.c:380
     a9c:	34000082 	cbz	w2, aac <__GP11_TEE_OpenTASession+0x78>
/home/seungwoo/optee/Linux_for_Tegra/sources/tegra/optee-src/nv-optee/optee/optee_os/lib/libutee/tee_api.c:381
     aa0:	aa0303e0 	mov	x0, x3
     aa4:	d2800801 	mov	x1, #0x40                  	// #64
     aa8:	94000276 	bl	1480 <__utee_check_inout_annotation>
/home/seungwoo/optee/Linux_for_Tegra/sources/tegra/optee-src/nv-optee/optee/optee_os/lib/libutee/tee_api.c:384
     aac:	aa1503e0 	mov	x0, x21
/home/seungwoo/optee/Linux_for_Tegra/sources/tegra/optee-src/nv-optee/optee/optee_os/lib/libutee/tee_api.c:386
     ab0:	910243f6 	add	x22, sp, #0x90
/home/seungwoo/optee/Linux_for_Tegra/sources/tegra/optee-src/nv-optee/optee/optee_os/lib/libutee/tee_api.c:384
     ab4:	d2800101 	mov	x1, #0x8                   	// #8
     ab8:	94000258 	bl	1418 <__utee_check_out_annotation>
/home/seungwoo/optee/Linux_for_Tegra/sources/tegra/optee-src/nv-optee/optee/optee_os/lib/libutee/tee_api.c:386
     abc:	2a1303e1 	mov	w1, w19
     ac0:	aa1403e2 	mov	x2, x20
     ac4:	aa1603e0 	mov	x0, x22
/home/seungwoo/optee/Linux_for_Tegra/sources/tegra/optee-src/nv-optee/optee/optee_os/lib/libutee/tee_api.c:387
     ac8:	9101c3fa 	add	x26, sp, #0x70
/home/seungwoo/optee/Linux_for_Tegra/sources/tegra/optee-src/nv-optee/optee/optee_os/lib/libutee/tee_api.c:386
     acc:	97fffdd9 	bl	230 <copy_gp11_param>
/home/seungwoo/optee/Linux_for_Tegra/sources/tegra/optee-src/nv-optee/optee/optee_os/lib/libutee/tee_api.c:387
     ad0:	aa1a03e3 	mov	x3, x26
     ad4:	9101a3e2 	add	x2, sp, #0x68
     ad8:	910183e1 	add	x1, sp, #0x60
     adc:	aa1603e0 	mov	x0, x22
     ae0:	97ffff19 	bl	744 <map_tmp_param>
     ae4:	2a0003f3 	mov	w19, w0
/home/seungwoo/optee/Linux_for_Tegra/sources/tegra/optee-src/nv-optee/optee/optee_os/lib/libutee/tee_api.c:388
     ae8:	35000260 	cbnz	w0, b34 <__GP11_TEE_OpenTASession+0x100>
/home/seungwoo/optee/Linux_for_Tegra/sources/tegra/optee-src/nv-optee/optee/optee_os/lib/libutee/tee_api.c:390
     aec:	aa1903e4 	mov	x4, x25
     af0:	910173e3 	add	x3, sp, #0x5c
     af4:	aa1603e2 	mov	x2, x22
     af8:	2a1803e1 	mov	w1, w24
     afc:	aa1703e0 	mov	x0, x23
     b00:	94000511 	bl	1f44 <_utee_open_ta_session>
/home/seungwoo/optee/Linux_for_Tegra/sources/tegra/optee-src/nv-optee/optee/optee_os/lib/libutee/tee_api.c:392
     b04:	aa1603e2 	mov	x2, x22
/home/seungwoo/optee/Linux_for_Tegra/sources/tegra/optee-src/nv-optee/optee/optee_os/lib/libutee/tee_api.c:390
     b08:	2a0003f3 	mov	w19, w0
/home/seungwoo/optee/Linux_for_Tegra/sources/tegra/optee-src/nv-optee/optee/optee_os/lib/libutee/tee_api.c:392
     b0c:	aa1a03e1 	mov	x1, x26
     b10:	aa1403e0 	mov	x0, x20
     b14:	97fffe6d 	bl	4c8 <update_out_gp11_param>
/home/seungwoo/optee/Linux_for_Tegra/sources/tegra/optee-src/nv-optee/optee/optee_os/lib/libutee/tee_api.c:393
     b18:	f94033e0 	ldr	x0, [sp, #96]
     b1c:	b40000a0 	cbz	x0, b30 <__GP11_TEE_OpenTASession+0xfc>
/home/seungwoo/optee/Linux_for_Tegra/sources/tegra/optee-src/nv-optee/optee/optee_os/lib/libutee/tee_api.c:394
     b20:	f94037e1 	ldr	x1, [sp, #104]
     b24:	940002ad 	bl	15d8 <tee_unmap>
/home/seungwoo/optee/Linux_for_Tegra/sources/tegra/optee-src/nv-optee/optee/optee_os/lib/libutee/tee_api.c:396
     b28:	34000040 	cbz	w0, b30 <__GP11_TEE_OpenTASession+0xfc>
/home/seungwoo/optee/Linux_for_Tegra/sources/tegra/optee-src/nv-optee/optee/optee_os/lib/libutee/tee_api.c:397
     b2c:	940001dd 	bl	12a0 <TEE_Panic>
/home/seungwoo/optee/Linux_for_Tegra/sources/tegra/optee-src/nv-optee/optee/optee_os/lib/libutee/tee_api.c:406
     b30:	34000053 	cbz	w19, b38 <__GP11_TEE_OpenTASession+0x104>
/home/seungwoo/optee/Linux_for_Tegra/sources/tegra/optee-src/nv-optee/optee/optee_os/lib/libutee/tee_api.c:407
     b34:	b9005fff 	str	wzr, [sp, #92]
/home/seungwoo/optee/Linux_for_Tegra/sources/tegra/optee-src/nv-optee/optee/optee_os/lib/libutee/tee_api.c:411
     b38:	b0000086 	adrp	x6, 11000 <_DYNAMIC>
/home/seungwoo/optee/Linux_for_Tegra/sources/tegra/optee-src/nv-optee/optee/optee_os/lib/libutee/tee_api.c:409
     b3c:	b9405fe0 	ldr	w0, [sp, #92]
     b40:	f90002a0 	str	x0, [x21]
/home/seungwoo/optee/Linux_for_Tegra/sources/tegra/optee-src/nv-optee/optee/optee_os/lib/libutee/tee_api.c:411
     b44:	f94098c6 	ldr	x6, [x6, #304]
     b48:	f9406fe0 	ldr	x0, [sp, #216]
     b4c:	f94000c1 	ldr	x1, [x6]
     b50:	eb010000 	subs	x0, x0, x1
     b54:	d2800001 	mov	x1, #0x0                   	// #0
     b58:	54000040 	b.eq	b60 <__GP11_TEE_OpenTASession+0x12c>  // b.none
     b5c:	940029a1 	bl	b1e0 <__stack_chk_fail>
     b60:	2a1303e0 	mov	w0, w19
     b64:	a94153f3 	ldp	x19, x20, [sp, #16]
     b68:	a9425bf5 	ldp	x21, x22, [sp, #32]
     b6c:	a94363f7 	ldp	x23, x24, [sp, #48]
     b70:	a9446bf9 	ldp	x25, x26, [sp, #64]
     b74:	a8ce7bfd 	ldp	x29, x30, [sp], #224
     b78:	d65f03c0 	ret

0000000000000b7c <TEE_InvokeTACommand>:
TEE_InvokeTACommand():
/home/seungwoo/optee/Linux_for_Tegra/sources/tegra/optee-src/nv-optee/optee/optee_os/lib/libutee/tee_api.c:428
     b7c:	a9b27bfd 	stp	x29, x30, [sp, #-224]!
     b80:	b0000086 	adrp	x6, 11000 <_DYNAMIC>
     b84:	910003fd 	mov	x29, sp
     b88:	f94098c6 	ldr	x6, [x6, #304]
     b8c:	a9025bf5 	stp	x21, x22, [sp, #32]
     b90:	aa0003f6 	mov	x22, x0
     b94:	f94000c0 	ldr	x0, [x6]
     b98:	f9006fe0 	str	x0, [sp, #216]
     b9c:	d2800000 	mov	x0, #0x0                   	// #0
     ba0:	a90153f3 	stp	x19, x20, [sp, #16]
/home/seungwoo/optee/Linux_for_Tegra/sources/tegra/optee-src/nv-optee/optee/optee_os/lib/libutee/tee_api.c:430
     ba4:	52800060 	mov	w0, #0x3                   	// #3
/home/seungwoo/optee/Linux_for_Tegra/sources/tegra/optee-src/nv-optee/optee/optee_os/lib/libutee/tee_api.c:428
     ba8:	a90363f7 	stp	x23, x24, [sp, #48]
     bac:	2a0303f3 	mov	w19, w3
     bb0:	2a0103f7 	mov	w23, w1
     bb4:	a9046bf9 	stp	x25, x26, [sp, #64]
     bb8:	2a0203f8 	mov	w24, w2
     bbc:	aa0403f5 	mov	x21, x4
/home/seungwoo/optee/Linux_for_Tegra/sources/tegra/optee-src/nv-optee/optee/optee_os/lib/libutee/tee_api.c:430
     bc0:	b9005fe0 	str	w0, [sp, #92]
/home/seungwoo/optee/Linux_for_Tegra/sources/tegra/optee-src/nv-optee/optee/optee_os/lib/libutee/tee_api.c:428
     bc4:	aa0503f4 	mov	x20, x5
/home/seungwoo/optee/Linux_for_Tegra/sources/tegra/optee-src/nv-optee/optee/optee_os/lib/libutee/tee_api.c:433
     bc8:	a9067fff 	stp	xzr, xzr, [sp, #96]
/home/seungwoo/optee/Linux_for_Tegra/sources/tegra/optee-src/nv-optee/optee/optee_os/lib/libutee/tee_api.c:434
     bcc:	a9077fff 	stp	xzr, xzr, [sp, #112]
     bd0:	a9087fff 	stp	xzr, xzr, [sp, #128]
/home/seungwoo/optee/Linux_for_Tegra/sources/tegra/optee-src/nv-optee/optee/optee_os/lib/libutee/tee_api.c:431
     bd4:	a9097fff 	stp	xzr, xzr, [sp, #144]
     bd8:	a90a7fff 	stp	xzr, xzr, [sp, #160]
     bdc:	a90b7fff 	stp	xzr, xzr, [sp, #176]
     be0:	a90c7fff 	stp	xzr, xzr, [sp, #192]
     be4:	f9006bff 	str	xzr, [sp, #208]
/home/seungwoo/optee/Linux_for_Tegra/sources/tegra/optee-src/nv-optee/optee/optee_os/lib/libutee/tee_api.c:436
     be8:	340000e3 	cbz	w3, c04 <TEE_InvokeTACommand+0x88>
/home/seungwoo/optee/Linux_for_Tegra/sources/tegra/optee-src/nv-optee/optee/optee_os/lib/libutee/tee_api.c:437
     bec:	aa0403e0 	mov	x0, x4
     bf0:	d2800801 	mov	x1, #0x40                  	// #64
     bf4:	94000223 	bl	1480 <__utee_check_inout_annotation>
/home/seungwoo/optee/Linux_for_Tegra/sources/tegra/optee-src/nv-optee/optee/optee_os/lib/libutee/tee_api.c:440
     bf8:	aa1503e1 	mov	x1, x21
     bfc:	2a1303e0 	mov	w0, w19
     c00:	97fffdde 	bl	378 <check_invoke_param>
/home/seungwoo/optee/Linux_for_Tegra/sources/tegra/optee-src/nv-optee/optee/optee_os/lib/libutee/tee_api.c:442
     c04:	b4000094 	cbz	x20, c14 <TEE_InvokeTACommand+0x98>
/home/seungwoo/optee/Linux_for_Tegra/sources/tegra/optee-src/nv-optee/optee/optee_os/lib/libutee/tee_api.c:443
     c08:	aa1403e0 	mov	x0, x20
     c0c:	d2800081 	mov	x1, #0x4                   	// #4
     c10:	94000202 	bl	1418 <__utee_check_out_annotation>
/home/seungwoo/optee/Linux_for_Tegra/sources/tegra/optee-src/nv-optee/optee/optee_os/lib/libutee/tee_api.c:446
     c14:	910243f9 	add	x25, sp, #0x90
     c18:	2a1303e1 	mov	w1, w19
     c1c:	aa1503e2 	mov	x2, x21
     c20:	aa1903e0 	mov	x0, x25
/home/seungwoo/optee/Linux_for_Tegra/sources/tegra/optee-src/nv-optee/optee/optee_os/lib/libutee/tee_api.c:447
     c24:	9101c3fa 	add	x26, sp, #0x70
/home/seungwoo/optee/Linux_for_Tegra/sources/tegra/optee-src/nv-optee/optee/optee_os/lib/libutee/tee_api.c:446
     c28:	97fffd67 	bl	1c4 <copy_param>
/home/seungwoo/optee/Linux_for_Tegra/sources/tegra/optee-src/nv-optee/optee/optee_os/lib/libutee/tee_api.c:447
     c2c:	aa1a03e3 	mov	x3, x26
     c30:	9101a3e2 	add	x2, sp, #0x68
     c34:	910183e1 	add	x1, sp, #0x60
     c38:	aa1903e0 	mov	x0, x25
     c3c:	97fffec2 	bl	744 <map_tmp_param>
     c40:	2a0003f3 	mov	w19, w0
/home/seungwoo/optee/Linux_for_Tegra/sources/tegra/optee-src/nv-optee/optee/optee_os/lib/libutee/tee_api.c:448
     c44:	35000240 	cbnz	w0, c8c <TEE_InvokeTACommand+0x110>
/home/seungwoo/optee/Linux_for_Tegra/sources/tegra/optee-src/nv-optee/optee/optee_os/lib/libutee/tee_api.c:450
     c48:	910173e4 	add	x4, sp, #0x5c
     c4c:	aa1903e3 	mov	x3, x25
     c50:	2a1803e2 	mov	w2, w24
     c54:	2a1703e1 	mov	w1, w23
     c58:	aa1603e0 	mov	x0, x22
     c5c:	940004c0 	bl	1f5c <_utee_invoke_ta_command>
/home/seungwoo/optee/Linux_for_Tegra/sources/tegra/optee-src/nv-optee/optee/optee_os/lib/libutee/tee_api.c:453
     c60:	aa1903e2 	mov	x2, x25
/home/seungwoo/optee/Linux_for_Tegra/sources/tegra/optee-src/nv-optee/optee/optee_os/lib/libutee/tee_api.c:450
     c64:	2a0003f3 	mov	w19, w0
/home/seungwoo/optee/Linux_for_Tegra/sources/tegra/optee-src/nv-optee/optee/optee_os/lib/libutee/tee_api.c:453
     c68:	aa1a03e1 	mov	x1, x26
     c6c:	aa1503e0 	mov	x0, x21
     c70:	97fffdec 	bl	420 <update_out_param>
/home/seungwoo/optee/Linux_for_Tegra/sources/tegra/optee-src/nv-optee/optee/optee_os/lib/libutee/tee_api.c:454
     c74:	f94033e0 	ldr	x0, [sp, #96]
     c78:	b40000a0 	cbz	x0, c8c <TEE_InvokeTACommand+0x110>
/home/seungwoo/optee/Linux_for_Tegra/sources/tegra/optee-src/nv-optee/optee/optee_os/lib/libutee/tee_api.c:455
     c7c:	f94037e1 	ldr	x1, [sp, #104]
     c80:	94000256 	bl	15d8 <tee_unmap>
/home/seungwoo/optee/Linux_for_Tegra/sources/tegra/optee-src/nv-optee/optee/optee_os/lib/libutee/tee_api.c:457
     c84:	34000040 	cbz	w0, c8c <TEE_InvokeTACommand+0x110>
/home/seungwoo/optee/Linux_for_Tegra/sources/tegra/optee-src/nv-optee/optee/optee_os/lib/libutee/tee_api.c:458
     c88:	94000186 	bl	12a0 <TEE_Panic>
/home/seungwoo/optee/Linux_for_Tegra/sources/tegra/optee-src/nv-optee/optee/optee_os/lib/libutee/tee_api.c:462
     c8c:	b9405fe0 	ldr	w0, [sp, #92]
     c90:	b4000054 	cbz	x20, c98 <TEE_InvokeTACommand+0x11c>
/home/seungwoo/optee/Linux_for_Tegra/sources/tegra/optee-src/nv-optee/optee/optee_os/lib/libutee/tee_api.c:463
     c94:	b9000280 	str	w0, [x20]
/home/seungwoo/optee/Linux_for_Tegra/sources/tegra/optee-src/nv-optee/optee/optee_os/lib/libutee/tee_api.c:465
     c98:	7100101f 	cmp	w0, #0x4
     c9c:	54000140 	b.eq	cc4 <TEE_InvokeTACommand+0x148>  // b.none
/home/seungwoo/optee/Linux_for_Tegra/sources/tegra/optee-src/nv-optee/optee/optee_os/lib/libutee/tee_api.c:468
     ca0:	7100027f 	cmp	w19, #0x0
     ca4:	129ffe60 	mov	w0, #0xffff000c            	// #-65524
     ca8:	7a401264 	ccmp	w19, w0, #0x4, ne  // ne = any
     cac:	540000c0 	b.eq	cc4 <TEE_InvokeTACommand+0x148>  // b.none
/home/seungwoo/optee/Linux_for_Tegra/sources/tegra/optee-src/nv-optee/optee/optee_os/lib/libutee/tee_api.c:469
     cb0:	1299fb60 	mov	w0, #0xffff3024            	// #-53212
     cb4:	6b00027f 	cmp	w19, w0
     cb8:	54000060 	b.eq	cc4 <TEE_InvokeTACommand+0x148>  // b.none
/home/seungwoo/optee/Linux_for_Tegra/sources/tegra/optee-src/nv-optee/optee/optee_os/lib/libutee/tee_api.c:471
     cbc:	2a1303e0 	mov	w0, w19
     cc0:	94000178 	bl	12a0 <TEE_Panic>
/home/seungwoo/optee/Linux_for_Tegra/sources/tegra/optee-src/nv-optee/optee/optee_os/lib/libutee/tee_api.c:474
     cc4:	b0000086 	adrp	x6, 11000 <_DYNAMIC>
     cc8:	f94098c6 	ldr	x6, [x6, #304]
     ccc:	f9406fe0 	ldr	x0, [sp, #216]
     cd0:	f94000c1 	ldr	x1, [x6]
     cd4:	eb010000 	subs	x0, x0, x1
     cd8:	d2800001 	mov	x1, #0x0                   	// #0
     cdc:	54000040 	b.eq	ce4 <TEE_InvokeTACommand+0x168>  // b.none
     ce0:	94002940 	bl	b1e0 <__stack_chk_fail>
     ce4:	2a1303e0 	mov	w0, w19
     ce8:	a94153f3 	ldp	x19, x20, [sp, #16]
     cec:	a9425bf5 	ldp	x21, x22, [sp, #32]
     cf0:	a94363f7 	ldp	x23, x24, [sp, #48]
     cf4:	a9446bf9 	ldp	x25, x26, [sp, #64]
     cf8:	a8ce7bfd 	ldp	x29, x30, [sp], #224
     cfc:	d65f03c0 	ret

0000000000000d00 <__GP11_TEE_InvokeTACommand>:
__GP11_TEE_InvokeTACommand():
/home/seungwoo/optee/Linux_for_Tegra/sources/tegra/optee-src/nv-optee/optee/optee_os/lib/libutee/tee_api.c:481
     d00:	a9b27bfd 	stp	x29, x30, [sp, #-224]!
     d04:	b0000086 	adrp	x6, 11000 <_DYNAMIC>
     d08:	910003fd 	mov	x29, sp
     d0c:	f94098c6 	ldr	x6, [x6, #304]
     d10:	a90363f7 	stp	x23, x24, [sp, #48]
     d14:	aa0003f7 	mov	x23, x0
     d18:	f94000c0 	ldr	x0, [x6]
     d1c:	f9006fe0 	str	x0, [sp, #216]
     d20:	d2800000 	mov	x0, #0x0                   	// #0
     d24:	a90153f3 	stp	x19, x20, [sp, #16]
/home/seungwoo/optee/Linux_for_Tegra/sources/tegra/optee-src/nv-optee/optee/optee_os/lib/libutee/tee_api.c:483
     d28:	52800060 	mov	w0, #0x3                   	// #3
/home/seungwoo/optee/Linux_for_Tegra/sources/tegra/optee-src/nv-optee/optee/optee_os/lib/libutee/tee_api.c:481
     d2c:	a9025bf5 	stp	x21, x22, [sp, #32]
     d30:	2a0103f8 	mov	w24, w1
     d34:	2a0303f3 	mov	w19, w3
     d38:	a9046bf9 	stp	x25, x26, [sp, #64]
     d3c:	aa0403f5 	mov	x21, x4
     d40:	2a0203f9 	mov	w25, w2
/home/seungwoo/optee/Linux_for_Tegra/sources/tegra/optee-src/nv-optee/optee/optee_os/lib/libutee/tee_api.c:483
     d44:	b9005fe0 	str	w0, [sp, #92]
/home/seungwoo/optee/Linux_for_Tegra/sources/tegra/optee-src/nv-optee/optee/optee_os/lib/libutee/tee_api.c:481
     d48:	aa0503f4 	mov	x20, x5
/home/seungwoo/optee/Linux_for_Tegra/sources/tegra/optee-src/nv-optee/optee/optee_os/lib/libutee/tee_api.c:486
     d4c:	a9067fff 	stp	xzr, xzr, [sp, #96]
/home/seungwoo/optee/Linux_for_Tegra/sources/tegra/optee-src/nv-optee/optee/optee_os/lib/libutee/tee_api.c:487
     d50:	a9077fff 	stp	xzr, xzr, [sp, #112]
     d54:	a9087fff 	stp	xzr, xzr, [sp, #128]
/home/seungwoo/optee/Linux_for_Tegra/sources/tegra/optee-src/nv-optee/optee/optee_os/lib/libutee/tee_api.c:484
     d58:	a9097fff 	stp	xzr, xzr, [sp, #144]
     d5c:	a90a7fff 	stp	xzr, xzr, [sp, #160]
     d60:	a90b7fff 	stp	xzr, xzr, [sp, #176]
     d64:	a90c7fff 	stp	xzr, xzr, [sp, #192]
     d68:	f9006bff 	str	xzr, [sp, #208]
/home/seungwoo/optee/Linux_for_Tegra/sources/tegra/optee-src/nv-optee/optee/optee_os/lib/libutee/tee_api.c:489
     d6c:	34000083 	cbz	w3, d7c <__GP11_TEE_InvokeTACommand+0x7c>
/home/seungwoo/optee/Linux_for_Tegra/sources/tegra/optee-src/nv-optee/optee/optee_os/lib/libutee/tee_api.c:490
     d70:	aa0403e0 	mov	x0, x4
     d74:	d2800801 	mov	x1, #0x40                  	// #64
     d78:	940001c2 	bl	1480 <__utee_check_inout_annotation>
/home/seungwoo/optee/Linux_for_Tegra/sources/tegra/optee-src/nv-optee/optee/optee_os/lib/libutee/tee_api.c:493
     d7c:	b4000094 	cbz	x20, d8c <__GP11_TEE_InvokeTACommand+0x8c>
/home/seungwoo/optee/Linux_for_Tegra/sources/tegra/optee-src/nv-optee/optee/optee_os/lib/libutee/tee_api.c:494
     d80:	aa1403e0 	mov	x0, x20
     d84:	d2800081 	mov	x1, #0x4                   	// #4
     d88:	940001a4 	bl	1418 <__utee_check_out_annotation>
/home/seungwoo/optee/Linux_for_Tegra/sources/tegra/optee-src/nv-optee/optee/optee_os/lib/libutee/tee_api.c:497
     d8c:	910243f6 	add	x22, sp, #0x90
     d90:	2a1303e1 	mov	w1, w19
     d94:	aa1503e2 	mov	x2, x21
     d98:	aa1603e0 	mov	x0, x22
/home/seungwoo/optee/Linux_for_Tegra/sources/tegra/optee-src/nv-optee/optee/optee_os/lib/libutee/tee_api.c:498
     d9c:	9101c3fa 	add	x26, sp, #0x70
/home/seungwoo/optee/Linux_for_Tegra/sources/tegra/optee-src/nv-optee/optee/optee_os/lib/libutee/tee_api.c:497
     da0:	97fffd24 	bl	230 <copy_gp11_param>
/home/seungwoo/optee/Linux_for_Tegra/sources/tegra/optee-src/nv-optee/optee/optee_os/lib/libutee/tee_api.c:498
     da4:	aa1a03e3 	mov	x3, x26
     da8:	9101a3e2 	add	x2, sp, #0x68
     dac:	910183e1 	add	x1, sp, #0x60
     db0:	aa1603e0 	mov	x0, x22
     db4:	97fffe64 	bl	744 <map_tmp_param>
     db8:	2a0003f3 	mov	w19, w0
/home/seungwoo/optee/Linux_for_Tegra/sources/tegra/optee-src/nv-optee/optee/optee_os/lib/libutee/tee_api.c:499
     dbc:	35000240 	cbnz	w0, e04 <__GP11_TEE_InvokeTACommand+0x104>
/home/seungwoo/optee/Linux_for_Tegra/sources/tegra/optee-src/nv-optee/optee/optee_os/lib/libutee/tee_api.c:501
     dc0:	910173e4 	add	x4, sp, #0x5c
     dc4:	aa1603e3 	mov	x3, x22
     dc8:	2a1903e2 	mov	w2, w25
     dcc:	2a1803e1 	mov	w1, w24
     dd0:	aa1703e0 	mov	x0, x23
     dd4:	94000462 	bl	1f5c <_utee_invoke_ta_command>
/home/seungwoo/optee/Linux_for_Tegra/sources/tegra/optee-src/nv-optee/optee/optee_os/lib/libutee/tee_api.c:504
     dd8:	aa1603e2 	mov	x2, x22
/home/seungwoo/optee/Linux_for_Tegra/sources/tegra/optee-src/nv-optee/optee/optee_os/lib/libutee/tee_api.c:501
     ddc:	2a0003f3 	mov	w19, w0
/home/seungwoo/optee/Linux_for_Tegra/sources/tegra/optee-src/nv-optee/optee/optee_os/lib/libutee/tee_api.c:504
     de0:	aa1a03e1 	mov	x1, x26
     de4:	aa1503e0 	mov	x0, x21
     de8:	97fffdb8 	bl	4c8 <update_out_gp11_param>
/home/seungwoo/optee/Linux_for_Tegra/sources/tegra/optee-src/nv-optee/optee/optee_os/lib/libutee/tee_api.c:505
     dec:	f94033e0 	ldr	x0, [sp, #96]
     df0:	b40000a0 	cbz	x0, e04 <__GP11_TEE_InvokeTACommand+0x104>
/home/seungwoo/optee/Linux_for_Tegra/sources/tegra/optee-src/nv-optee/optee/optee_os/lib/libutee/tee_api.c:506
     df4:	f94037e1 	ldr	x1, [sp, #104]
     df8:	940001f8 	bl	15d8 <tee_unmap>
/home/seungwoo/optee/Linux_for_Tegra/sources/tegra/optee-src/nv-optee/optee/optee_os/lib/libutee/tee_api.c:508
     dfc:	34000040 	cbz	w0, e04 <__GP11_TEE_InvokeTACommand+0x104>
/home/seungwoo/optee/Linux_for_Tegra/sources/tegra/optee-src/nv-optee/optee/optee_os/lib/libutee/tee_api.c:509
     e00:	94000128 	bl	12a0 <TEE_Panic>
/home/seungwoo/optee/Linux_for_Tegra/sources/tegra/optee-src/nv-optee/optee/optee_os/lib/libutee/tee_api.c:513
     e04:	b9405fe0 	ldr	w0, [sp, #92]
     e08:	b4000054 	cbz	x20, e10 <__GP11_TEE_InvokeTACommand+0x110>
/home/seungwoo/optee/Linux_for_Tegra/sources/tegra/optee-src/nv-optee/optee/optee_os/lib/libutee/tee_api.c:514
     e0c:	b9000280 	str	w0, [x20]
/home/seungwoo/optee/Linux_for_Tegra/sources/tegra/optee-src/nv-optee/optee/optee_os/lib/libutee/tee_api.c:516
     e10:	7100101f 	cmp	w0, #0x4
     e14:	54000140 	b.eq	e3c <__GP11_TEE_InvokeTACommand+0x13c>  // b.none
/home/seungwoo/optee/Linux_for_Tegra/sources/tegra/optee-src/nv-optee/optee/optee_os/lib/libutee/tee_api.c:519
     e18:	7100027f 	cmp	w19, #0x0
     e1c:	129ffe60 	mov	w0, #0xffff000c            	// #-65524
     e20:	7a401264 	ccmp	w19, w0, #0x4, ne  // ne = any
     e24:	540000c0 	b.eq	e3c <__GP11_TEE_InvokeTACommand+0x13c>  // b.none
/home/seungwoo/optee/Linux_for_Tegra/sources/tegra/optee-src/nv-optee/optee/optee_os/lib/libutee/tee_api.c:520
     e28:	1299fb60 	mov	w0, #0xffff3024            	// #-53212
     e2c:	6b00027f 	cmp	w19, w0
     e30:	54000060 	b.eq	e3c <__GP11_TEE_InvokeTACommand+0x13c>  // b.none
/home/seungwoo/optee/Linux_for_Tegra/sources/tegra/optee-src/nv-optee/optee/optee_os/lib/libutee/tee_api.c:522
     e34:	2a1303e0 	mov	w0, w19
     e38:	9400011a 	bl	12a0 <TEE_Panic>
/home/seungwoo/optee/Linux_for_Tegra/sources/tegra/optee-src/nv-optee/optee/optee_os/lib/libutee/tee_api.c:525
     e3c:	b0000086 	adrp	x6, 11000 <_DYNAMIC>
     e40:	f94098c6 	ldr	x6, [x6, #304]
     e44:	f9406fe0 	ldr	x0, [sp, #216]
     e48:	f94000c1 	ldr	x1, [x6]
     e4c:	eb010000 	subs	x0, x0, x1
     e50:	d2800001 	mov	x1, #0x0                   	// #0
     e54:	54000040 	b.eq	e5c <__GP11_TEE_InvokeTACommand+0x15c>  // b.none
     e58:	940028e2 	bl	b1e0 <__stack_chk_fail>
     e5c:	2a1303e0 	mov	w0, w19
     e60:	a94153f3 	ldp	x19, x20, [sp, #16]
     e64:	a9425bf5 	ldp	x21, x22, [sp, #32]
     e68:	a94363f7 	ldp	x23, x24, [sp, #48]
     e6c:	a9446bf9 	ldp	x25, x26, [sp, #64]
     e70:	a8ce7bfd 	ldp	x29, x30, [sp], #224
     e74:	d65f03c0 	ret

0000000000000e78 <__GP11_TEE_CheckMemoryAccessRights>:
__GP11_TEE_CheckMemoryAccessRights():
/home/seungwoo/optee/Linux_for_Tegra/sources/tegra/optee-src/nv-optee/optee/optee_os/lib/libutee/tee_api.c:597
     e78:	2a0203e2 	mov	w2, w2
     e7c:	17fffe10 	b	6bc <TEE_CheckMemoryAccessRights>

0000000000000e80 <TEE_SetInstanceData>:
TEE_SetInstanceData():
/home/seungwoo/optee/Linux_for_Tegra/sources/tegra/optee-src/nv-optee/optee/optee_os/lib/libutee/tee_api.c:602
     e80:	b0000081 	adrp	x1, 11000 <_DYNAMIC>
     e84:	f902c020 	str	x0, [x1, #1408]
/home/seungwoo/optee/Linux_for_Tegra/sources/tegra/optee-src/nv-optee/optee/optee_os/lib/libutee/tee_api.c:603
     e88:	d65f03c0 	ret

0000000000000e8c <TEE_GetInstanceData>:
TEE_GetInstanceData():
/home/seungwoo/optee/Linux_for_Tegra/sources/tegra/optee-src/nv-optee/optee/optee_os/lib/libutee/tee_api.c:608
     e8c:	b0000080 	adrp	x0, 11000 <_DYNAMIC>
     e90:	f942c000 	ldr	x0, [x0, #1408]
     e94:	d65f03c0 	ret

0000000000000e98 <TEE_MemMove>:
TEE_MemMove():
/home/seungwoo/optee/Linux_for_Tegra/sources/tegra/optee-src/nv-optee/optee/optee_os/lib/libutee/tee_api.c:612
     e98:	140028de 	b	b210 <memmove>

0000000000000e9c <__GP11_TEE_MemMove>:
__GP11_TEE_MemMove():
/home/seungwoo/optee/Linux_for_Tegra/sources/tegra/optee-src/nv-optee/optee/optee_os/lib/libutee/tee_api.c:617
     e9c:	2a0203e2 	mov	w2, w2
     ea0:	17fffffe 	b	e98 <TEE_MemMove>

0000000000000ea4 <TEE_MemCompare>:
TEE_MemCompare():
/home/seungwoo/optee/Linux_for_Tegra/sources/tegra/optee-src/nv-optee/optee/optee_os/lib/libutee/tee_api.c:622
     ea4:	14002dd2 	b	c5ec <consttime_memcmp>

0000000000000ea8 <__GP11_TEE_MemCompare>:
__GP11_TEE_MemCompare():
/home/seungwoo/optee/Linux_for_Tegra/sources/tegra/optee-src/nv-optee/optee/optee_os/lib/libutee/tee_api.c:628
     ea8:	2a0203e2 	mov	w2, w2
     eac:	17fffffe 	b	ea4 <TEE_MemCompare>

0000000000000eb0 <TEE_MemFill>:
TEE_MemFill():
/home/seungwoo/optee/Linux_for_Tegra/sources/tegra/optee-src/nv-optee/optee/optee_os/lib/libutee/tee_api.c:633
     eb0:	140028ef 	b	b26c <memset>

0000000000000eb4 <__GP11_TEE_MemFill>:
__GP11_TEE_MemFill():
/home/seungwoo/optee/Linux_for_Tegra/sources/tegra/optee-src/nv-optee/optee/optee_os/lib/libutee/tee_api.c:638
     eb4:	2a0203e2 	mov	w2, w2
     eb8:	17fffffe 	b	eb0 <TEE_MemFill>

0000000000000ebc <TEE_GetSystemTime>:
TEE_GetSystemTime():
/home/seungwoo/optee/Linux_for_Tegra/sources/tegra/optee-src/nv-optee/optee/optee_os/lib/libutee/tee_api.c:644
     ebc:	a9bf7bfd 	stp	x29, x30, [sp, #-16]!
/home/seungwoo/optee/Linux_for_Tegra/sources/tegra/optee-src/nv-optee/optee/optee_os/lib/libutee/tee_api.c:645
     ec0:	aa0003e1 	mov	x1, x0
     ec4:	d2800000 	mov	x0, #0x0                   	// #0
/home/seungwoo/optee/Linux_for_Tegra/sources/tegra/optee-src/nv-optee/optee/optee_os/lib/libutee/tee_api.c:644
     ec8:	910003fd 	mov	x29, sp
/home/seungwoo/optee/Linux_for_Tegra/sources/tegra/optee-src/nv-optee/optee/optee_os/lib/libutee/tee_api.c:645
     ecc:	94000436 	bl	1fa4 <_utee_get_time>
/home/seungwoo/optee/Linux_for_Tegra/sources/tegra/optee-src/nv-optee/optee/optee_os/lib/libutee/tee_api.c:647
     ed0:	34000060 	cbz	w0, edc <TEE_GetSystemTime+0x20>
/home/seungwoo/optee/Linux_for_Tegra/sources/tegra/optee-src/nv-optee/optee/optee_os/lib/libutee/tee_api.c:649
     ed4:	a8c17bfd 	ldp	x29, x30, [sp], #16
/home/seungwoo/optee/Linux_for_Tegra/sources/tegra/optee-src/nv-optee/optee/optee_os/lib/libutee/tee_api.c:648
     ed8:	140000f2 	b	12a0 <TEE_Panic>
/home/seungwoo/optee/Linux_for_Tegra/sources/tegra/optee-src/nv-optee/optee/optee_os/lib/libutee/tee_api.c:649
     edc:	a8c17bfd 	ldp	x29, x30, [sp], #16
     ee0:	d65f03c0 	ret

0000000000000ee4 <TEE_Wait>:
TEE_Wait():
/home/seungwoo/optee/Linux_for_Tegra/sources/tegra/optee-src/nv-optee/optee/optee_os/lib/libutee/tee_api.c:652
     ee4:	a9be7bfd 	stp	x29, x30, [sp, #-32]!
/home/seungwoo/optee/Linux_for_Tegra/sources/tegra/optee-src/nv-optee/optee/optee_os/lib/libutee/tee_api.c:653
     ee8:	2a0003e0 	mov	w0, w0
/home/seungwoo/optee/Linux_for_Tegra/sources/tegra/optee-src/nv-optee/optee/optee_os/lib/libutee/tee_api.c:652
     eec:	910003fd 	mov	x29, sp
     ef0:	f9000bf3 	str	x19, [sp, #16]
/home/seungwoo/optee/Linux_for_Tegra/sources/tegra/optee-src/nv-optee/optee/optee_os/lib/libutee/tee_api.c:653
     ef4:	94000429 	bl	1f98 <_utee_wait>
/home/seungwoo/optee/Linux_for_Tegra/sources/tegra/optee-src/nv-optee/optee/optee_os/lib/libutee/tee_api.c:655
     ef8:	7100001f 	cmp	w0, #0x0
     efc:	129fffa1 	mov	w1, #0xffff0002            	// #-65534
/home/seungwoo/optee/Linux_for_Tegra/sources/tegra/optee-src/nv-optee/optee/optee_os/lib/libutee/tee_api.c:653
     f00:	2a0003f3 	mov	w19, w0
/home/seungwoo/optee/Linux_for_Tegra/sources/tegra/optee-src/nv-optee/optee/optee_os/lib/libutee/tee_api.c:655
     f04:	7a411004 	ccmp	w0, w1, #0x4, ne  // ne = any
     f08:	54000040 	b.eq	f10 <TEE_Wait+0x2c>  // b.none
/home/seungwoo/optee/Linux_for_Tegra/sources/tegra/optee-src/nv-optee/optee/optee_os/lib/libutee/tee_api.c:656
     f0c:	940000e5 	bl	12a0 <TEE_Panic>
/home/seungwoo/optee/Linux_for_Tegra/sources/tegra/optee-src/nv-optee/optee/optee_os/lib/libutee/tee_api.c:659
     f10:	2a1303e0 	mov	w0, w19
     f14:	f9400bf3 	ldr	x19, [sp, #16]
     f18:	a8c27bfd 	ldp	x29, x30, [sp], #32
     f1c:	d65f03c0 	ret

0000000000000f20 <TEE_GetTAPersistentTime>:
TEE_GetTAPersistentTime():
/home/seungwoo/optee/Linux_for_Tegra/sources/tegra/optee-src/nv-optee/optee/optee_os/lib/libutee/tee_api.c:662
     f20:	a9be7bfd 	stp	x29, x30, [sp, #-32]!
/home/seungwoo/optee/Linux_for_Tegra/sources/tegra/optee-src/nv-optee/optee/optee_os/lib/libutee/tee_api.c:665
     f24:	aa0003e1 	mov	x1, x0
/home/seungwoo/optee/Linux_for_Tegra/sources/tegra/optee-src/nv-optee/optee/optee_os/lib/libutee/tee_api.c:662
     f28:	910003fd 	mov	x29, sp
     f2c:	a90153f3 	stp	x19, x20, [sp, #16]
     f30:	aa0003f4 	mov	x20, x0
/home/seungwoo/optee/Linux_for_Tegra/sources/tegra/optee-src/nv-optee/optee/optee_os/lib/libutee/tee_api.c:665
     f34:	d2800020 	mov	x0, #0x1                   	// #1
     f38:	9400041b 	bl	1fa4 <_utee_get_time>
/home/seungwoo/optee/Linux_for_Tegra/sources/tegra/optee-src/nv-optee/optee/optee_os/lib/libutee/tee_api.c:667
     f3c:	7100001f 	cmp	w0, #0x0
/home/seungwoo/optee/Linux_for_Tegra/sources/tegra/optee-src/nv-optee/optee/optee_os/lib/libutee/tee_api.c:665
     f40:	2a0003f3 	mov	w19, w0
/home/seungwoo/optee/Linux_for_Tegra/sources/tegra/optee-src/nv-optee/optee/optee_os/lib/libutee/tee_api.c:667
     f44:	1a9f07e2 	cset	w2, ne  // ne = any
     f48:	1299fe00 	mov	w0, #0xffff300f            	// #-53233
     f4c:	6b00027f 	cmp	w19, w0
     f50:	1a9f1041 	csel	w1, w2, wzr, ne  // ne = any
     f54:	34000041 	cbz	w1, f5c <TEE_GetTAPersistentTime+0x3c>
/home/seungwoo/optee/Linux_for_Tegra/sources/tegra/optee-src/nv-optee/optee/optee_os/lib/libutee/tee_api.c:669
     f58:	29007e9f 	stp	wzr, wzr, [x20]
/home/seungwoo/optee/Linux_for_Tegra/sources/tegra/optee-src/nv-optee/optee/optee_os/lib/libutee/tee_api.c:673
     f5c:	11402e60 	add	w0, w19, #0xb, lsl #12
/home/seungwoo/optee/Linux_for_Tegra/sources/tegra/optee-src/nv-optee/optee/optee_os/lib/libutee/tee_api.c:672
     f60:	7100005f 	cmp	w2, #0x0
     f64:	7a411800 	ccmp	w0, #0x1, #0x0, ne  // ne = any
     f68:	540000e9 	b.ls	f84 <TEE_GetTAPersistentTime+0x64>  // b.plast
/home/seungwoo/optee/Linux_for_Tegra/sources/tegra/optee-src/nv-optee/optee/optee_os/lib/libutee/tee_api.c:674
     f6c:	340000c1 	cbz	w1, f84 <TEE_GetTAPersistentTime+0x64>
/home/seungwoo/optee/Linux_for_Tegra/sources/tegra/optee-src/nv-optee/optee/optee_os/lib/libutee/tee_api.c:675
     f70:	129ffe60 	mov	w0, #0xffff000c            	// #-65524
     f74:	6b00027f 	cmp	w19, w0
     f78:	54000060 	b.eq	f84 <TEE_GetTAPersistentTime+0x64>  // b.none
/home/seungwoo/optee/Linux_for_Tegra/sources/tegra/optee-src/nv-optee/optee/optee_os/lib/libutee/tee_api.c:677
     f7c:	2a1303e0 	mov	w0, w19
     f80:	940000c8 	bl	12a0 <TEE_Panic>
/home/seungwoo/optee/Linux_for_Tegra/sources/tegra/optee-src/nv-optee/optee/optee_os/lib/libutee/tee_api.c:680
     f84:	2a1303e0 	mov	w0, w19
     f88:	a94153f3 	ldp	x19, x20, [sp, #16]
     f8c:	a8c27bfd 	ldp	x29, x30, [sp], #32
     f90:	d65f03c0 	ret

0000000000000f94 <TEE_SetTAPersistentTime>:
TEE_SetTAPersistentTime():
/home/seungwoo/optee/Linux_for_Tegra/sources/tegra/optee-src/nv-optee/optee/optee_os/lib/libutee/tee_api.c:683
     f94:	a9be7bfd 	stp	x29, x30, [sp, #-32]!
     f98:	910003fd 	mov	x29, sp
     f9c:	f9000bf3 	str	x19, [sp, #16]
/home/seungwoo/optee/Linux_for_Tegra/sources/tegra/optee-src/nv-optee/optee/optee_os/lib/libutee/tee_api.c:686
     fa0:	94000404 	bl	1fb0 <_utee_set_ta_time>
/home/seungwoo/optee/Linux_for_Tegra/sources/tegra/optee-src/nv-optee/optee/optee_os/lib/libutee/tee_api.c:688
     fa4:	7100001f 	cmp	w0, #0x0
     fa8:	129ffe61 	mov	w1, #0xffff000c            	// #-65524
/home/seungwoo/optee/Linux_for_Tegra/sources/tegra/optee-src/nv-optee/optee/optee_os/lib/libutee/tee_api.c:686
     fac:	2a0003f3 	mov	w19, w0
/home/seungwoo/optee/Linux_for_Tegra/sources/tegra/optee-src/nv-optee/optee/optee_os/lib/libutee/tee_api.c:688
     fb0:	7a411004 	ccmp	w0, w1, #0x4, ne  // ne = any
     fb4:	540000a0 	b.eq	fc8 <TEE_SetTAPersistentTime+0x34>  // b.none
/home/seungwoo/optee/Linux_for_Tegra/sources/tegra/optee-src/nv-optee/optee/optee_os/lib/libutee/tee_api.c:689
     fb8:	1299f7c1 	mov	w1, #0xffff3041            	// #-53183
     fbc:	6b01001f 	cmp	w0, w1
     fc0:	54000040 	b.eq	fc8 <TEE_SetTAPersistentTime+0x34>  // b.none
/home/seungwoo/optee/Linux_for_Tegra/sources/tegra/optee-src/nv-optee/optee/optee_os/lib/libutee/tee_api.c:691
     fc4:	940000b7 	bl	12a0 <TEE_Panic>
/home/seungwoo/optee/Linux_for_Tegra/sources/tegra/optee-src/nv-optee/optee/optee_os/lib/libutee/tee_api.c:694
     fc8:	2a1303e0 	mov	w0, w19
     fcc:	f9400bf3 	ldr	x19, [sp, #16]
     fd0:	a8c27bfd 	ldp	x29, x30, [sp], #32
     fd4:	d65f03c0 	ret

0000000000000fd8 <TEE_GetREETime>:
TEE_GetREETime():
/home/seungwoo/optee/Linux_for_Tegra/sources/tegra/optee-src/nv-optee/optee/optee_os/lib/libutee/tee_api.c:697
     fd8:	a9bf7bfd 	stp	x29, x30, [sp, #-16]!
/home/seungwoo/optee/Linux_for_Tegra/sources/tegra/optee-src/nv-optee/optee/optee_os/lib/libutee/tee_api.c:698
     fdc:	aa0003e1 	mov	x1, x0
     fe0:	d2800040 	mov	x0, #0x2                   	// #2
/home/seungwoo/optee/Linux_for_Tegra/sources/tegra/optee-src/nv-optee/optee/optee_os/lib/libutee/tee_api.c:697
     fe4:	910003fd 	mov	x29, sp
/home/seungwoo/optee/Linux_for_Tegra/sources/tegra/optee-src/nv-optee/optee/optee_os/lib/libutee/tee_api.c:698
     fe8:	940003ef 	bl	1fa4 <_utee_get_time>
/home/seungwoo/optee/Linux_for_Tegra/sources/tegra/optee-src/nv-optee/optee/optee_os/lib/libutee/tee_api.c:700
     fec:	34000060 	cbz	w0, ff8 <TEE_GetREETime+0x20>
/home/seungwoo/optee/Linux_for_Tegra/sources/tegra/optee-src/nv-optee/optee/optee_os/lib/libutee/tee_api.c:702
     ff0:	a8c17bfd 	ldp	x29, x30, [sp], #16
/home/seungwoo/optee/Linux_for_Tegra/sources/tegra/optee-src/nv-optee/optee/optee_os/lib/libutee/tee_api.c:701
     ff4:	140000ab 	b	12a0 <TEE_Panic>
/home/seungwoo/optee/Linux_for_Tegra/sources/tegra/optee-src/nv-optee/optee/optee_os/lib/libutee/tee_api.c:702
     ff8:	a8c17bfd 	ldp	x29, x30, [sp], #16
     ffc:	d65f03c0 	ret

0000000000001000 <TEE_Malloc>:
TEE_Malloc():
/home/seungwoo/optee/Linux_for_Tegra/sources/tegra/optee-src/nv-optee/optee/optee_os/lib/libutee/tee_api.c:705
    1000:	a9be7bfd 	stp	x29, x30, [sp, #-32]!
    1004:	aa0003e2 	mov	x2, x0
/home/seungwoo/optee/Linux_for_Tegra/sources/tegra/optee-src/nv-optee/optee/optee_os/lib/libutee/tee_api.c:706
    1008:	71000c3f 	cmp	w1, #0x3
/home/seungwoo/optee/Linux_for_Tegra/sources/tegra/optee-src/nv-optee/optee/optee_os/lib/libutee/tee_api.c:705
    100c:	910003fd 	mov	x29, sp
    1010:	f9000bf3 	str	x19, [sp, #16]
    1014:	2a0103f3 	mov	w19, w1
/home/seungwoo/optee/Linux_for_Tegra/sources/tegra/optee-src/nv-optee/optee/optee_os/lib/libutee/tee_api.c:706
    1018:	54000148 	b.hi	1040 <TEE_Malloc+0x40>  // b.pmore
    101c:	51000421 	sub	w1, w1, #0x1
    1020:	7100083f 	cmp	w1, #0x2
    1024:	54000308 	b.hi	1084 <TEE_Malloc+0x84>  // b.pmore
    1028:	b0000060 	adrp	x0, e000 <__text_end+0x1978>
    102c:	913c0000 	add	x0, x0, #0xf00
    1030:	38614800 	ldrb	w0, [x0, w1, uxtw]
    1034:	10000061 	adr	x1, 1040 <TEE_Malloc+0x40>
    1038:	8b208820 	add	x0, x1, w0, sxtb #2
    103c:	d61f0000 	br	x0
    1040:	52b00001 	mov	w1, #0x80000000            	// #-2147483648
    1044:	6b01027f 	cmp	w19, w1
    1048:	540005e0 	b.eq	1104 <TEE_Malloc+0x104>  // b.none
/home/seungwoo/optee/Linux_for_Tegra/sources/tegra/optee-src/nv-optee/optee/optee_os/lib/libutee/tee_api.c:739
    104c:	52800023 	mov	w3, #0x1                   	// #1
    1050:	2a1303e5 	mov	w5, w19
    1054:	d0000064 	adrp	x4, f000 <small_prime+0x44>
    1058:	91128884 	add	x4, x4, #0x4a2
    105c:	52800022 	mov	w2, #0x1                   	// #1
    1060:	52805c61 	mov	w1, #0x2e3                 	// #739
    1064:	b0000060 	adrp	x0, e000 <__text_end+0x1978>
    1068:	913c2000 	add	x0, x0, #0xf08
    106c:	94002cc3 	bl	c378 <trace_printf>
/home/seungwoo/optee/Linux_for_Tegra/sources/tegra/optee-src/nv-optee/optee/optee_os/lib/libutee/tee_api.c:741
    1070:	d2800003 	mov	x3, #0x0                   	// #0
/home/seungwoo/optee/Linux_for_Tegra/sources/tegra/optee-src/nv-optee/optee/optee_os/lib/libutee/tee_api.c:742
    1074:	aa0303e0 	mov	x0, x3
    1078:	f9400bf3 	ldr	x19, [sp, #16]
    107c:	a8c27bfd 	ldp	x29, x30, [sp], #32
    1080:	d65f03c0 	ret
/home/seungwoo/optee/Linux_for_Tegra/sources/tegra/optee-src/nv-optee/optee/optee_os/lib/libutee/tee_api.c:708
    1084:	b40004c0 	cbz	x0, 111c <TEE_Malloc+0x11c>
/home/seungwoo/optee/Linux_for_Tegra/sources/tegra/optee-src/nv-optee/optee/optee_os/lib/libutee/tee_api.c:742
    1088:	f9400bf3 	ldr	x19, [sp, #16]
/home/seungwoo/optee/Linux_for_Tegra/sources/tegra/optee-src/nv-optee/optee/optee_os/lib/libutee/tee_api.c:710
    108c:	aa0003e1 	mov	x1, x0
/home/seungwoo/optee/Linux_for_Tegra/sources/tegra/optee-src/nv-optee/optee/optee_os/lib/libutee/tee_api.c:742
    1090:	a8c27bfd 	ldp	x29, x30, [sp], #32
/home/seungwoo/optee/Linux_for_Tegra/sources/tegra/optee-src/nv-optee/optee/optee_os/lib/libutee/tee_api.c:710
    1094:	d2800020 	mov	x0, #0x1                   	// #1
    1098:	14002724 	b	ad28 <calloc>
/home/seungwoo/optee/Linux_for_Tegra/sources/tegra/optee-src/nv-optee/optee/optee_os/lib/libutee/tee_api.c:713
    109c:	52800000 	mov	w0, #0x0                   	// #0
    10a0:	94000080 	bl	12a0 <TEE_Panic>
/home/seungwoo/optee/Linux_for_Tegra/sources/tegra/optee-src/nv-optee/optee/optee_os/lib/libutee/tee_api.c:714
    10a4:	17ffffea 	b	104c <TEE_Malloc+0x4c>
/home/seungwoo/optee/Linux_for_Tegra/sources/tegra/optee-src/nv-optee/optee/optee_os/lib/libutee/tee_api.c:717
    10a8:	b4000362 	cbz	x2, 1114 <TEE_Malloc+0x114>
/home/seungwoo/optee/Linux_for_Tegra/sources/tegra/optee-src/nv-optee/optee/optee_os/lib/libutee/tee_api.c:719
    10ac:	90000080 	adrp	x0, 11000 <_DYNAMIC>
    10b0:	f940d000 	ldr	x0, [x0, #416]
    10b4:	f9400003 	ldr	x3, [x0]
    10b8:	b4fffde3 	cbz	x3, 1074 <TEE_Malloc+0x74>
/home/seungwoo/optee/Linux_for_Tegra/sources/tegra/optee-src/nv-optee/optee/optee_os/lib/libutee/tee_api.c:742
    10bc:	f9400bf3 	ldr	x19, [sp, #16]
/home/seungwoo/optee/Linux_for_Tegra/sources/tegra/optee-src/nv-optee/optee/optee_os/lib/libutee/tee_api.c:721
    10c0:	aa0303e4 	mov	x4, x3
/home/seungwoo/optee/Linux_for_Tegra/sources/tegra/optee-src/nv-optee/optee/optee_os/lib/libutee/tee_api.c:742
    10c4:	a8c27bfd 	ldp	x29, x30, [sp], #32
/home/seungwoo/optee/Linux_for_Tegra/sources/tegra/optee-src/nv-optee/optee/optee_os/lib/libutee/tee_api.c:721
    10c8:	aa0203e3 	mov	x3, x2
    10cc:	d2800001 	mov	x1, #0x0                   	// #0
    10d0:	d2800022 	mov	x2, #0x1                   	// #1
    10d4:	d2800000 	mov	x0, #0x0                   	// #0
    10d8:	140026c0 	b	abd8 <raw_calloc>
/home/seungwoo/optee/Linux_for_Tegra/sources/tegra/optee-src/nv-optee/optee/optee_os/lib/libutee/tee_api.c:724
    10dc:	b40001c2 	cbz	x2, 1114 <TEE_Malloc+0x114>
/home/seungwoo/optee/Linux_for_Tegra/sources/tegra/optee-src/nv-optee/optee/optee_os/lib/libutee/tee_api.c:726
    10e0:	90000080 	adrp	x0, 11000 <_DYNAMIC>
    10e4:	f940d000 	ldr	x0, [x0, #416]
    10e8:	f9400003 	ldr	x3, [x0]
    10ec:	b4fffc43 	cbz	x3, 1074 <TEE_Malloc+0x74>
/home/seungwoo/optee/Linux_for_Tegra/sources/tegra/optee-src/nv-optee/optee/optee_os/lib/libutee/tee_api.c:742
    10f0:	f9400bf3 	ldr	x19, [sp, #16]
/home/seungwoo/optee/Linux_for_Tegra/sources/tegra/optee-src/nv-optee/optee/optee_os/lib/libutee/tee_api.c:728
    10f4:	d2800001 	mov	x1, #0x0                   	// #0
/home/seungwoo/optee/Linux_for_Tegra/sources/tegra/optee-src/nv-optee/optee/optee_os/lib/libutee/tee_api.c:742
    10f8:	a8c27bfd 	ldp	x29, x30, [sp], #32
/home/seungwoo/optee/Linux_for_Tegra/sources/tegra/optee-src/nv-optee/optee/optee_os/lib/libutee/tee_api.c:728
    10fc:	d2800000 	mov	x0, #0x0                   	// #0
    1100:	140026ae 	b	abb8 <raw_malloc>
/home/seungwoo/optee/Linux_for_Tegra/sources/tegra/optee-src/nv-optee/optee/optee_os/lib/libutee/tee_api.c:731
    1104:	b40000c0 	cbz	x0, 111c <TEE_Malloc+0x11c>
/home/seungwoo/optee/Linux_for_Tegra/sources/tegra/optee-src/nv-optee/optee/optee_os/lib/libutee/tee_api.c:742
    1108:	f9400bf3 	ldr	x19, [sp, #16]
    110c:	a8c27bfd 	ldp	x29, x30, [sp], #32
/home/seungwoo/optee/Linux_for_Tegra/sources/tegra/optee-src/nv-optee/optee/optee_os/lib/libutee/tee_api.c:733
    1110:	14002700 	b	ad10 <malloc>
/home/seungwoo/optee/Linux_for_Tegra/sources/tegra/optee-src/nv-optee/optee/optee_os/lib/libutee/tee_api.c:718
    1114:	d2800043 	mov	x3, #0x2                   	// #2
    1118:	17ffffd7 	b	1074 <TEE_Malloc+0x74>
/home/seungwoo/optee/Linux_for_Tegra/sources/tegra/optee-src/nv-optee/optee/optee_os/lib/libutee/tee_api.c:709
    111c:	d2800023 	mov	x3, #0x1                   	// #1
    1120:	17ffffd5 	b	1074 <TEE_Malloc+0x74>

0000000000001124 <__GP11_TEE_Malloc>:
__GP11_TEE_Malloc():
/home/seungwoo/optee/Linux_for_Tegra/sources/tegra/optee-src/nv-optee/optee/optee_os/lib/libutee/tee_api.c:746
    1124:	2a0003e0 	mov	w0, w0
    1128:	17ffffb6 	b	1000 <TEE_Malloc>

000000000000112c <TEE_Free>:
TEE_Free():
/home/seungwoo/optee/Linux_for_Tegra/sources/tegra/optee-src/nv-optee/optee/optee_os/lib/libutee/tee_api.c:787
    112c:	d1000401 	sub	x1, x0, #0x1
    1130:	f100043f 	cmp	x1, #0x1
    1134:	540002a9 	b.ls	1188 <TEE_Free+0x5c>  // b.plast
/home/seungwoo/optee/Linux_for_Tegra/sources/tegra/optee-src/nv-optee/optee/optee_os/lib/libutee/tee_api.c:786
    1138:	a9be7bfd 	stp	x29, x30, [sp, #-32]!
addr_is_in_no_share_heap():
/home/seungwoo/optee/Linux_for_Tegra/sources/tegra/optee-src/nv-optee/optee/optee_os/lib/libutee/tee_api.c:751
    113c:	d2800021 	mov	x1, #0x1                   	// #1
TEE_Free():
/home/seungwoo/optee/Linux_for_Tegra/sources/tegra/optee-src/nv-optee/optee/optee_os/lib/libutee/tee_api.c:786
    1140:	910003fd 	mov	x29, sp
    1144:	f9000bf3 	str	x19, [sp, #16]
    1148:	aa0003f3 	mov	x19, x0
addr_is_in_no_share_heap():
/home/seungwoo/optee/Linux_for_Tegra/sources/tegra/optee-src/nv-optee/optee/optee_os/lib/libutee/tee_api.c:751
    114c:	97fffc7a 	bl	334 <buf_overlaps_no_share_heap>
TEE_Free():
/home/seungwoo/optee/Linux_for_Tegra/sources/tegra/optee-src/nv-optee/optee/optee_os/lib/libutee/tee_api.c:789
    1150:	72001c1f 	tst	w0, #0xff
    1154:	54000120 	b.eq	1178 <TEE_Free+0x4c>  // b.none
/home/seungwoo/optee/Linux_for_Tegra/sources/tegra/optee-src/nv-optee/optee/optee_os/lib/libutee/tee_api.c:790
    1158:	90000080 	adrp	x0, 11000 <_DYNAMIC>
    115c:	52800002 	mov	w2, #0x0                   	// #0
    1160:	f940d000 	ldr	x0, [x0, #416]
    1164:	f9400001 	ldr	x1, [x0]
    1168:	aa1303e0 	mov	x0, x19
/home/seungwoo/optee/Linux_for_Tegra/sources/tegra/optee-src/nv-optee/optee/optee_os/lib/libutee/tee_api.c:794
    116c:	f9400bf3 	ldr	x19, [sp, #16]
    1170:	a8c27bfd 	ldp	x29, x30, [sp], #32
/home/seungwoo/optee/Linux_for_Tegra/sources/tegra/optee-src/nv-optee/optee/optee_os/lib/libutee/tee_api.c:790
    1174:	14002695 	b	abc8 <raw_free>
/home/seungwoo/optee/Linux_for_Tegra/sources/tegra/optee-src/nv-optee/optee/optee_os/lib/libutee/tee_api.c:792
    1178:	aa1303e0 	mov	x0, x19
/home/seungwoo/optee/Linux_for_Tegra/sources/tegra/optee-src/nv-optee/optee/optee_os/lib/libutee/tee_api.c:794
    117c:	f9400bf3 	ldr	x19, [sp, #16]
    1180:	a8c27bfd 	ldp	x29, x30, [sp], #32
/home/seungwoo/optee/Linux_for_Tegra/sources/tegra/optee-src/nv-optee/optee/optee_os/lib/libutee/tee_api.c:792
    1184:	14002703 	b	ad90 <free>
    1188:	d65f03c0 	ret

000000000000118c <TEE_Realloc>:
TEE_Realloc():
/home/seungwoo/optee/Linux_for_Tegra/sources/tegra/optee-src/nv-optee/optee/optee_os/lib/libutee/tee_api.c:755
    118c:	a9be7bfd 	stp	x29, x30, [sp, #-32]!
    1190:	910003fd 	mov	x29, sp
    1194:	a90153f3 	stp	x19, x20, [sp, #16]
    1198:	aa0003f3 	mov	x19, x0
/home/seungwoo/optee/Linux_for_Tegra/sources/tegra/optee-src/nv-optee/optee/optee_os/lib/libutee/tee_api.c:756
    119c:	b5000161 	cbnz	x1, 11c8 <TEE_Realloc+0x3c>
/home/seungwoo/optee/Linux_for_Tegra/sources/tegra/optee-src/nv-optee/optee/optee_os/lib/libutee/tee_api.c:757
    11a0:	97ffffe3 	bl	112c <TEE_Free>
addr_is_in_no_share_heap():
/home/seungwoo/optee/Linux_for_Tegra/sources/tegra/optee-src/nv-optee/optee/optee_os/lib/libutee/tee_api.c:751
    11a4:	aa1303e0 	mov	x0, x19
    11a8:	d2800021 	mov	x1, #0x1                   	// #1
    11ac:	97fffc62 	bl	334 <buf_overlaps_no_share_heap>
TEE_Realloc():
/home/seungwoo/optee/Linux_for_Tegra/sources/tegra/optee-src/nv-optee/optee/optee_os/lib/libutee/tee_api.c:762
    11b0:	72001c1f 	tst	w0, #0xff
    11b4:	9a9f07e0 	cset	x0, ne  // ne = any
    11b8:	91000400 	add	x0, x0, #0x1
/home/seungwoo/optee/Linux_for_Tegra/sources/tegra/optee-src/nv-optee/optee/optee_os/lib/libutee/tee_api.c:778
    11bc:	a94153f3 	ldp	x19, x20, [sp, #16]
    11c0:	a8c27bfd 	ldp	x29, x30, [sp], #32
    11c4:	d65f03c0 	ret
/home/seungwoo/optee/Linux_for_Tegra/sources/tegra/optee-src/nv-optee/optee/optee_os/lib/libutee/tee_api.c:765
    11c8:	f100041f 	cmp	x0, #0x1
    11cc:	54000081 	b.ne	11dc <TEE_Realloc+0x50>  // b.any
/home/seungwoo/optee/Linux_for_Tegra/sources/tegra/optee-src/nv-optee/optee/optee_os/lib/libutee/tee_api.c:778
    11d0:	a94153f3 	ldp	x19, x20, [sp, #16]
    11d4:	a8c27bfd 	ldp	x29, x30, [sp], #32
/home/seungwoo/optee/Linux_for_Tegra/sources/tegra/optee-src/nv-optee/optee/optee_os/lib/libutee/tee_api.c:766
    11d8:	140026d4 	b	ad28 <calloc>
    11dc:	aa0103f4 	mov	x20, x1
/home/seungwoo/optee/Linux_for_Tegra/sources/tegra/optee-src/nv-optee/optee/optee_os/lib/libutee/tee_api.c:767
    11e0:	f100081f 	cmp	x0, #0x2
    11e4:	540001a1 	b.ne	1218 <TEE_Realloc+0x8c>  // b.any
/home/seungwoo/optee/Linux_for_Tegra/sources/tegra/optee-src/nv-optee/optee/optee_os/lib/libutee/tee_api.c:768
    11e8:	90000080 	adrp	x0, 11000 <_DYNAMIC>
    11ec:	f940d000 	ldr	x0, [x0, #416]
    11f0:	f9400000 	ldr	x0, [x0]
    11f4:	b4fffe40 	cbz	x0, 11bc <TEE_Realloc+0x30>
/home/seungwoo/optee/Linux_for_Tegra/sources/tegra/optee-src/nv-optee/optee/optee_os/lib/libutee/tee_api.c:778
    11f8:	a94153f3 	ldp	x19, x20, [sp, #16]
/home/seungwoo/optee/Linux_for_Tegra/sources/tegra/optee-src/nv-optee/optee/optee_os/lib/libutee/tee_api.c:770
    11fc:	aa0003e4 	mov	x4, x0
/home/seungwoo/optee/Linux_for_Tegra/sources/tegra/optee-src/nv-optee/optee/optee_os/lib/libutee/tee_api.c:778
    1200:	a8c27bfd 	ldp	x29, x30, [sp], #32
/home/seungwoo/optee/Linux_for_Tegra/sources/tegra/optee-src/nv-optee/optee/optee_os/lib/libutee/tee_api.c:770
    1204:	aa0103e3 	mov	x3, x1
    1208:	d2800022 	mov	x2, #0x1                   	// #1
    120c:	d2800001 	mov	x1, #0x0                   	// #0
    1210:	d2800000 	mov	x0, #0x0                   	// #0
    1214:	14002671 	b	abd8 <raw_calloc>
addr_is_in_no_share_heap():
/home/seungwoo/optee/Linux_for_Tegra/sources/tegra/optee-src/nv-optee/optee/optee_os/lib/libutee/tee_api.c:751
    1218:	d2800021 	mov	x1, #0x1                   	// #1
    121c:	97fffc46 	bl	334 <buf_overlaps_no_share_heap>
TEE_Realloc():
/home/seungwoo/optee/Linux_for_Tegra/sources/tegra/optee-src/nv-optee/optee/optee_os/lib/libutee/tee_api.c:773
    1220:	72001c1f 	tst	w0, #0xff
    1224:	54000160 	b.eq	1250 <TEE_Realloc+0xc4>  // b.none
/home/seungwoo/optee/Linux_for_Tegra/sources/tegra/optee-src/nv-optee/optee/optee_os/lib/libutee/tee_api.c:774
    1228:	90000080 	adrp	x0, 11000 <_DYNAMIC>
    122c:	aa1403e3 	mov	x3, x20
    1230:	d2800002 	mov	x2, #0x0                   	// #0
    1234:	d2800001 	mov	x1, #0x0                   	// #0
    1238:	f940d000 	ldr	x0, [x0, #416]
    123c:	f9400004 	ldr	x4, [x0]
    1240:	aa1303e0 	mov	x0, x19
/home/seungwoo/optee/Linux_for_Tegra/sources/tegra/optee-src/nv-optee/optee/optee_os/lib/libutee/tee_api.c:778
    1244:	a94153f3 	ldp	x19, x20, [sp, #16]
    1248:	a8c27bfd 	ldp	x29, x30, [sp], #32
/home/seungwoo/optee/Linux_for_Tegra/sources/tegra/optee-src/nv-optee/optee/optee_os/lib/libutee/tee_api.c:774
    124c:	14002677 	b	ac28 <raw_realloc>
/home/seungwoo/optee/Linux_for_Tegra/sources/tegra/optee-src/nv-optee/optee/optee_os/lib/libutee/tee_api.c:777
    1250:	aa1403e1 	mov	x1, x20
    1254:	aa1303e0 	mov	x0, x19
/home/seungwoo/optee/Linux_for_Tegra/sources/tegra/optee-src/nv-optee/optee/optee_os/lib/libutee/tee_api.c:778
    1258:	a94153f3 	ldp	x19, x20, [sp, #16]
    125c:	a8c27bfd 	ldp	x29, x30, [sp], #32
/home/seungwoo/optee/Linux_for_Tegra/sources/tegra/optee-src/nv-optee/optee/optee_os/lib/libutee/tee_api.c:777
    1260:	140026b9 	b	ad44 <realloc>

0000000000001264 <__GP11_TEE_Realloc>:
__GP11_TEE_Realloc():
/home/seungwoo/optee/Linux_for_Tegra/sources/tegra/optee-src/nv-optee/optee/optee_os/lib/libutee/tee_api.c:782
    1264:	2a0103e1 	mov	w1, w1
    1268:	17ffffc9 	b	118c <TEE_Realloc>

000000000000126c <TEE_CacheClean>:
TEE_CacheClean():
/home/seungwoo/optee/Linux_for_Tegra/sources/tegra/optee-src/nv-optee/optee/optee_os/lib/libutee/tee_api.c:799
    126c:	d2800002 	mov	x2, #0x0                   	// #0
    1270:	140003cb 	b	219c <_utee_cache_operation>

0000000000001274 <TEE_CacheFlush>:
TEE_CacheFlush():
/home/seungwoo/optee/Linux_for_Tegra/sources/tegra/optee-src/nv-optee/optee/optee_os/lib/libutee/tee_api.c:803
    1274:	d2800022 	mov	x2, #0x1                   	// #1
    1278:	140003c9 	b	219c <_utee_cache_operation>

000000000000127c <TEE_CacheInvalidate>:
TEE_CacheInvalidate():
/home/seungwoo/optee/Linux_for_Tegra/sources/tegra/optee-src/nv-optee/optee/optee_os/lib/libutee/tee_api.c:808
    127c:	d2800042 	mov	x2, #0x2                   	// #2
    1280:	140003c7 	b	219c <_utee_cache_operation>

0000000000001284 <check_access>:
check_access():
/home/seungwoo/optee/Linux_for_Tegra/sources/tegra/optee-src/nv-optee/optee/optee_os/lib/libutee/tee_api_panic.c:40
    1284:	b4000062 	cbz	x2, 1290 <check_access+0xc>
/home/seungwoo/optee/Linux_for_Tegra/sources/tegra/optee-src/nv-optee/optee/optee_os/lib/libutee/tee_api_panic.c:43
    1288:	b4000081 	cbz	x1, 1298 <check_access+0x14>
/home/seungwoo/optee/Linux_for_Tegra/sources/tegra/optee-src/nv-optee/optee/optee_os/lib/libutee/tee_api_panic.c:47
    128c:	17fffd0c 	b	6bc <TEE_CheckMemoryAccessRights>
/home/seungwoo/optee/Linux_for_Tegra/sources/tegra/optee-src/nv-optee/optee/optee_os/lib/libutee/tee_api_panic.c:41
    1290:	52800000 	mov	w0, #0x0                   	// #0
/home/seungwoo/optee/Linux_for_Tegra/sources/tegra/optee-src/nv-optee/optee/optee_os/lib/libutee/tee_api_panic.c:50
    1294:	d65f03c0 	ret
/home/seungwoo/optee/Linux_for_Tegra/sources/tegra/optee-src/nv-optee/optee/optee_os/lib/libutee/tee_api_panic.c:44
    1298:	129ffe00 	mov	w0, #0xffff000f            	// #-65521
    129c:	17fffffe 	b	1294 <check_access+0x10>

00000000000012a0 <TEE_Panic>:
TEE_Panic():
/home/seungwoo/optee/Linux_for_Tegra/sources/tegra/optee-src/nv-optee/optee/optee_os/lib/libutee/tee_api_panic.c:24
    12a0:	2a0003e0 	mov	w0, w0
    12a4:	14000316 	b	1efc <_utee_panic>

00000000000012a8 <check_res.isra.0>:
check_res():
/home/seungwoo/optee/Linux_for_Tegra/sources/tegra/optee-src/nv-optee/optee/optee_os/lib/libutee/tee_api_panic.c:32
    12a8:	34000060 	cbz	w0, 12b4 <check_res.isra.0+0xc>
/home/seungwoo/optee/Linux_for_Tegra/sources/tegra/optee-src/nv-optee/optee/optee_os/lib/libutee/tee_api_panic.c:34
    12ac:	52800000 	mov	w0, #0x0                   	// #0
    12b0:	17fffffc 	b	12a0 <TEE_Panic>
/home/seungwoo/optee/Linux_for_Tegra/sources/tegra/optee-src/nv-optee/optee/optee_os/lib/libutee/tee_api_panic.c:36
    12b4:	d65f03c0 	ret

00000000000012b8 <__utee_check_outbuf_annotation>:
__utee_check_outbuf_annotation():
/home/seungwoo/optee/Linux_for_Tegra/sources/tegra/optee-src/nv-optee/optee/optee_os/lib/libutee/tee_api_panic.c:53
    12b8:	a9be7bfd 	stp	x29, x30, [sp, #-32]!
    12bc:	910003fd 	mov	x29, sp
    12c0:	a90153f3 	stp	x19, x20, [sp, #16]
    12c4:	aa0003f4 	mov	x20, x0
    12c8:	aa0103f3 	mov	x19, x1
check_access():
/home/seungwoo/optee/Linux_for_Tegra/sources/tegra/optee-src/nv-optee/optee/optee_os/lib/libutee/tee_api_panic.c:43
    12cc:	b4000181 	cbz	x1, 12fc <__utee_check_outbuf_annotation+0x44>
/home/seungwoo/optee/Linux_for_Tegra/sources/tegra/optee-src/nv-optee/optee/optee_os/lib/libutee/tee_api_panic.c:47
    12d0:	d2800102 	mov	x2, #0x8                   	// #8
    12d4:	52800060 	mov	w0, #0x3                   	// #3
    12d8:	97fffcf9 	bl	6bc <TEE_CheckMemoryAccessRights>
__utee_check_outbuf_annotation():
/home/seungwoo/optee/Linux_for_Tegra/sources/tegra/optee-src/nv-optee/optee/optee_os/lib/libutee/tee_api_panic.c:54
    12dc:	97fffff3 	bl	12a8 <check_res.isra.0>
/home/seungwoo/optee/Linux_for_Tegra/sources/tegra/optee-src/nv-optee/optee/optee_os/lib/libutee/tee_api_panic.c:56
    12e0:	f9400262 	ldr	x2, [x19]
    12e4:	aa1403e1 	mov	x1, x20
    12e8:	528000c0 	mov	w0, #0x6                   	// #6
    12ec:	97ffffe6 	bl	1284 <check_access>
/home/seungwoo/optee/Linux_for_Tegra/sources/tegra/optee-src/nv-optee/optee/optee_os/lib/libutee/tee_api_panic.c:58
    12f0:	a94153f3 	ldp	x19, x20, [sp, #16]
    12f4:	a8c27bfd 	ldp	x29, x30, [sp], #32
/home/seungwoo/optee/Linux_for_Tegra/sources/tegra/optee-src/nv-optee/optee/optee_os/lib/libutee/tee_api_panic.c:56
    12f8:	17ffffec 	b	12a8 <check_res.isra.0>
check_access():
/home/seungwoo/optee/Linux_for_Tegra/sources/tegra/optee-src/nv-optee/optee/optee_os/lib/libutee/tee_api_panic.c:44
    12fc:	129ffe00 	mov	w0, #0xffff000f            	// #-65521
    1300:	17fffff7 	b	12dc <__utee_check_outbuf_annotation+0x24>

0000000000001304 <__utee_check_gp11_outbuf_annotation>:
__utee_check_gp11_outbuf_annotation():
/home/seungwoo/optee/Linux_for_Tegra/sources/tegra/optee-src/nv-optee/optee/optee_os/lib/libutee/tee_api_panic.c:61
    1304:	a9be7bfd 	stp	x29, x30, [sp, #-32]!
    1308:	910003fd 	mov	x29, sp
    130c:	a90153f3 	stp	x19, x20, [sp, #16]
    1310:	aa0003f4 	mov	x20, x0
    1314:	aa0103f3 	mov	x19, x1
check_access():
/home/seungwoo/optee/Linux_for_Tegra/sources/tegra/optee-src/nv-optee/optee/optee_os/lib/libutee/tee_api_panic.c:43
    1318:	b4000181 	cbz	x1, 1348 <__utee_check_gp11_outbuf_annotation+0x44>
/home/seungwoo/optee/Linux_for_Tegra/sources/tegra/optee-src/nv-optee/optee/optee_os/lib/libutee/tee_api_panic.c:47
    131c:	d2800082 	mov	x2, #0x4                   	// #4
    1320:	52800060 	mov	w0, #0x3                   	// #3
    1324:	97fffce6 	bl	6bc <TEE_CheckMemoryAccessRights>
__utee_check_gp11_outbuf_annotation():
/home/seungwoo/optee/Linux_for_Tegra/sources/tegra/optee-src/nv-optee/optee/optee_os/lib/libutee/tee_api_panic.c:62
    1328:	97ffffe0 	bl	12a8 <check_res.isra.0>
/home/seungwoo/optee/Linux_for_Tegra/sources/tegra/optee-src/nv-optee/optee/optee_os/lib/libutee/tee_api_panic.c:64
    132c:	b9400262 	ldr	w2, [x19]
    1330:	aa1403e1 	mov	x1, x20
    1334:	528000c0 	mov	w0, #0x6                   	// #6
    1338:	97ffffd3 	bl	1284 <check_access>
/home/seungwoo/optee/Linux_for_Tegra/sources/tegra/optee-src/nv-optee/optee/optee_os/lib/libutee/tee_api_panic.c:66
    133c:	a94153f3 	ldp	x19, x20, [sp, #16]
    1340:	a8c27bfd 	ldp	x29, x30, [sp], #32
/home/seungwoo/optee/Linux_for_Tegra/sources/tegra/optee-src/nv-optee/optee/optee_os/lib/libutee/tee_api_panic.c:64
    1344:	17ffffd9 	b	12a8 <check_res.isra.0>
check_access():
/home/seungwoo/optee/Linux_for_Tegra/sources/tegra/optee-src/nv-optee/optee/optee_os/lib/libutee/tee_api_panic.c:44
    1348:	129ffe00 	mov	w0, #0xffff000f            	// #-65521
    134c:	17fffff7 	b	1328 <__utee_check_gp11_outbuf_annotation+0x24>

0000000000001350 <__utee_check_instring_annotation>:
__utee_check_instring_annotation():
/home/seungwoo/optee/Linux_for_Tegra/sources/tegra/optee-src/nv-optee/optee/optee_os/lib/libutee/tee_api_panic.c:69
    1350:	a9be7bfd 	stp	x29, x30, [sp, #-32]!
    1354:	910003fd 	mov	x29, sp
    1358:	f9000bf3 	str	x19, [sp, #16]
    135c:	aa0003f3 	mov	x19, x0
/home/seungwoo/optee/Linux_for_Tegra/sources/tegra/optee-src/nv-optee/optee/optee_os/lib/libutee/tee_api_panic.c:71
    1360:	940027d3 	bl	b2ac <strlen>
/home/seungwoo/optee/Linux_for_Tegra/sources/tegra/optee-src/nv-optee/optee/optee_os/lib/libutee/tee_api_panic.c:70
    1364:	91000402 	add	x2, x0, #0x1
    1368:	aa1303e1 	mov	x1, x19
    136c:	52800020 	mov	w0, #0x1                   	// #1
    1370:	97ffffc5 	bl	1284 <check_access>
/home/seungwoo/optee/Linux_for_Tegra/sources/tegra/optee-src/nv-optee/optee/optee_os/lib/libutee/tee_api_panic.c:72
    1374:	f9400bf3 	ldr	x19, [sp, #16]
    1378:	a8c27bfd 	ldp	x29, x30, [sp], #32
/home/seungwoo/optee/Linux_for_Tegra/sources/tegra/optee-src/nv-optee/optee/optee_os/lib/libutee/tee_api_panic.c:70
    137c:	17ffffcb 	b	12a8 <check_res.isra.0>

0000000000001380 <__utee_check_outstring_annotation>:
__utee_check_outstring_annotation():
/home/seungwoo/optee/Linux_for_Tegra/sources/tegra/optee-src/nv-optee/optee/optee_os/lib/libutee/tee_api_panic.c:75
    1380:	a9be7bfd 	stp	x29, x30, [sp, #-32]!
    1384:	910003fd 	mov	x29, sp
    1388:	a90153f3 	stp	x19, x20, [sp, #16]
    138c:	aa0003f4 	mov	x20, x0
    1390:	aa0103f3 	mov	x19, x1
check_access():
/home/seungwoo/optee/Linux_for_Tegra/sources/tegra/optee-src/nv-optee/optee/optee_os/lib/libutee/tee_api_panic.c:43
    1394:	b4000181 	cbz	x1, 13c4 <__utee_check_outstring_annotation+0x44>
/home/seungwoo/optee/Linux_for_Tegra/sources/tegra/optee-src/nv-optee/optee/optee_os/lib/libutee/tee_api_panic.c:47
    1398:	d2800102 	mov	x2, #0x8                   	// #8
    139c:	52800060 	mov	w0, #0x3                   	// #3
    13a0:	97fffcc7 	bl	6bc <TEE_CheckMemoryAccessRights>
__utee_check_outstring_annotation():
/home/seungwoo/optee/Linux_for_Tegra/sources/tegra/optee-src/nv-optee/optee/optee_os/lib/libutee/tee_api_panic.c:76
    13a4:	97ffffc1 	bl	12a8 <check_res.isra.0>
/home/seungwoo/optee/Linux_for_Tegra/sources/tegra/optee-src/nv-optee/optee/optee_os/lib/libutee/tee_api_panic.c:78
    13a8:	f9400262 	ldr	x2, [x19]
    13ac:	aa1403e1 	mov	x1, x20
    13b0:	528000c0 	mov	w0, #0x6                   	// #6
    13b4:	97ffffb4 	bl	1284 <check_access>
/home/seungwoo/optee/Linux_for_Tegra/sources/tegra/optee-src/nv-optee/optee/optee_os/lib/libutee/tee_api_panic.c:80
    13b8:	a94153f3 	ldp	x19, x20, [sp, #16]
    13bc:	a8c27bfd 	ldp	x29, x30, [sp], #32
/home/seungwoo/optee/Linux_for_Tegra/sources/tegra/optee-src/nv-optee/optee/optee_os/lib/libutee/tee_api_panic.c:78
    13c0:	17ffffba 	b	12a8 <check_res.isra.0>
check_access():
/home/seungwoo/optee/Linux_for_Tegra/sources/tegra/optee-src/nv-optee/optee/optee_os/lib/libutee/tee_api_panic.c:44
    13c4:	129ffe00 	mov	w0, #0xffff000f            	// #-65521
    13c8:	17fffff7 	b	13a4 <__utee_check_outstring_annotation+0x24>

00000000000013cc <__utee_check_gp11_outstring_annotation>:
__utee_check_gp11_outstring_annotation():
/home/seungwoo/optee/Linux_for_Tegra/sources/tegra/optee-src/nv-optee/optee/optee_os/lib/libutee/tee_api_panic.c:83
    13cc:	a9be7bfd 	stp	x29, x30, [sp, #-32]!
    13d0:	910003fd 	mov	x29, sp
    13d4:	a90153f3 	stp	x19, x20, [sp, #16]
    13d8:	aa0003f4 	mov	x20, x0
    13dc:	aa0103f3 	mov	x19, x1
check_access():
/home/seungwoo/optee/Linux_for_Tegra/sources/tegra/optee-src/nv-optee/optee/optee_os/lib/libutee/tee_api_panic.c:43
    13e0:	b4000181 	cbz	x1, 1410 <__utee_check_gp11_outstring_annotation+0x44>
/home/seungwoo/optee/Linux_for_Tegra/sources/tegra/optee-src/nv-optee/optee/optee_os/lib/libutee/tee_api_panic.c:47
    13e4:	d2800082 	mov	x2, #0x4                   	// #4
    13e8:	52800060 	mov	w0, #0x3                   	// #3
    13ec:	97fffcb4 	bl	6bc <TEE_CheckMemoryAccessRights>
__utee_check_gp11_outstring_annotation():
/home/seungwoo/optee/Linux_for_Tegra/sources/tegra/optee-src/nv-optee/optee/optee_os/lib/libutee/tee_api_panic.c:84
    13f0:	97ffffae 	bl	12a8 <check_res.isra.0>
/home/seungwoo/optee/Linux_for_Tegra/sources/tegra/optee-src/nv-optee/optee/optee_os/lib/libutee/tee_api_panic.c:86
    13f4:	b9400262 	ldr	w2, [x19]
    13f8:	aa1403e1 	mov	x1, x20
    13fc:	528000c0 	mov	w0, #0x6                   	// #6
    1400:	97ffffa1 	bl	1284 <check_access>
/home/seungwoo/optee/Linux_for_Tegra/sources/tegra/optee-src/nv-optee/optee/optee_os/lib/libutee/tee_api_panic.c:88
    1404:	a94153f3 	ldp	x19, x20, [sp, #16]
    1408:	a8c27bfd 	ldp	x29, x30, [sp], #32
/home/seungwoo/optee/Linux_for_Tegra/sources/tegra/optee-src/nv-optee/optee/optee_os/lib/libutee/tee_api_panic.c:86
    140c:	17ffffa7 	b	12a8 <check_res.isra.0>
check_access():
/home/seungwoo/optee/Linux_for_Tegra/sources/tegra/optee-src/nv-optee/optee/optee_os/lib/libutee/tee_api_panic.c:44
    1410:	129ffe00 	mov	w0, #0xffff000f            	// #-65521
    1414:	17fffff7 	b	13f0 <__utee_check_gp11_outstring_annotation+0x24>

0000000000001418 <__utee_check_out_annotation>:
__utee_check_out_annotation():
/home/seungwoo/optee/Linux_for_Tegra/sources/tegra/optee-src/nv-optee/optee/optee_os/lib/libutee/tee_api_panic.c:91
    1418:	a9bf7bfd 	stp	x29, x30, [sp, #-16]!
/home/seungwoo/optee/Linux_for_Tegra/sources/tegra/optee-src/nv-optee/optee/optee_os/lib/libutee/tee_api_panic.c:92
    141c:	aa0103e2 	mov	x2, x1
    1420:	aa0003e1 	mov	x1, x0
/home/seungwoo/optee/Linux_for_Tegra/sources/tegra/optee-src/nv-optee/optee/optee_os/lib/libutee/tee_api_panic.c:91
    1424:	910003fd 	mov	x29, sp
/home/seungwoo/optee/Linux_for_Tegra/sources/tegra/optee-src/nv-optee/optee/optee_os/lib/libutee/tee_api_panic.c:92
    1428:	52800040 	mov	w0, #0x2                   	// #2
    142c:	97ffff96 	bl	1284 <check_access>
/home/seungwoo/optee/Linux_for_Tegra/sources/tegra/optee-src/nv-optee/optee/optee_os/lib/libutee/tee_api_panic.c:94
    1430:	a8c17bfd 	ldp	x29, x30, [sp], #16
/home/seungwoo/optee/Linux_for_Tegra/sources/tegra/optee-src/nv-optee/optee/optee_os/lib/libutee/tee_api_panic.c:92
    1434:	17ffff9d 	b	12a8 <check_res.isra.0>

0000000000001438 <__utee_check_attr_in_annotation>:
__utee_check_attr_in_annotation():
/home/seungwoo/optee/Linux_for_Tegra/sources/tegra/optee-src/nv-optee/optee/optee_os/lib/libutee/tee_api_panic.c:98
    1438:	d2800302 	mov	x2, #0x18                  	// #24
/home/seungwoo/optee/Linux_for_Tegra/sources/tegra/optee-src/nv-optee/optee/optee_os/lib/libutee/tee_api_panic.c:97
    143c:	a9bf7bfd 	stp	x29, x30, [sp, #-16]!
/home/seungwoo/optee/Linux_for_Tegra/sources/tegra/optee-src/nv-optee/optee/optee_os/lib/libutee/tee_api_panic.c:98
    1440:	9b027c22 	mul	x2, x1, x2
/home/seungwoo/optee/Linux_for_Tegra/sources/tegra/optee-src/nv-optee/optee/optee_os/lib/libutee/tee_api_panic.c:97
    1444:	910003fd 	mov	x29, sp
/home/seungwoo/optee/Linux_for_Tegra/sources/tegra/optee-src/nv-optee/optee/optee_os/lib/libutee/tee_api_panic.c:98
    1448:	aa0003e1 	mov	x1, x0
    144c:	52800020 	mov	w0, #0x1                   	// #1
    1450:	97ffff8d 	bl	1284 <check_access>
/home/seungwoo/optee/Linux_for_Tegra/sources/tegra/optee-src/nv-optee/optee/optee_os/lib/libutee/tee_api_panic.c:100
    1454:	a8c17bfd 	ldp	x29, x30, [sp], #16
/home/seungwoo/optee/Linux_for_Tegra/sources/tegra/optee-src/nv-optee/optee/optee_os/lib/libutee/tee_api_panic.c:98
    1458:	17ffff94 	b	12a8 <check_res.isra.0>

000000000000145c <__utee_check_gp11_attr_in_annotation>:
__utee_check_gp11_attr_in_annotation():
/home/seungwoo/optee/Linux_for_Tegra/sources/tegra/optee-src/nv-optee/optee/optee_os/lib/libutee/tee_api_panic.c:106
    145c:	d2800302 	mov	x2, #0x18                  	// #24
/home/seungwoo/optee/Linux_for_Tegra/sources/tegra/optee-src/nv-optee/optee/optee_os/lib/libutee/tee_api_panic.c:105
    1460:	a9bf7bfd 	stp	x29, x30, [sp, #-16]!
/home/seungwoo/optee/Linux_for_Tegra/sources/tegra/optee-src/nv-optee/optee/optee_os/lib/libutee/tee_api_panic.c:106
    1464:	9b027c22 	mul	x2, x1, x2
/home/seungwoo/optee/Linux_for_Tegra/sources/tegra/optee-src/nv-optee/optee/optee_os/lib/libutee/tee_api_panic.c:105
    1468:	910003fd 	mov	x29, sp
/home/seungwoo/optee/Linux_for_Tegra/sources/tegra/optee-src/nv-optee/optee/optee_os/lib/libutee/tee_api_panic.c:106
    146c:	aa0003e1 	mov	x1, x0
    1470:	52800020 	mov	w0, #0x1                   	// #1
    1474:	97ffff84 	bl	1284 <check_access>
/home/seungwoo/optee/Linux_for_Tegra/sources/tegra/optee-src/nv-optee/optee/optee_os/lib/libutee/tee_api_panic.c:108
    1478:	a8c17bfd 	ldp	x29, x30, [sp], #16
/home/seungwoo/optee/Linux_for_Tegra/sources/tegra/optee-src/nv-optee/optee/optee_os/lib/libutee/tee_api_panic.c:106
    147c:	17ffff8b 	b	12a8 <check_res.isra.0>

0000000000001480 <__utee_check_inout_annotation>:
__utee_check_inout_annotation():
/home/seungwoo/optee/Linux_for_Tegra/sources/tegra/optee-src/nv-optee/optee/optee_os/lib/libutee/tee_api_panic.c:111
    1480:	a9bf7bfd 	stp	x29, x30, [sp, #-16]!
/home/seungwoo/optee/Linux_for_Tegra/sources/tegra/optee-src/nv-optee/optee/optee_os/lib/libutee/tee_api_panic.c:112
    1484:	aa0103e2 	mov	x2, x1
    1488:	aa0003e1 	mov	x1, x0
/home/seungwoo/optee/Linux_for_Tegra/sources/tegra/optee-src/nv-optee/optee/optee_os/lib/libutee/tee_api_panic.c:111
    148c:	910003fd 	mov	x29, sp
/home/seungwoo/optee/Linux_for_Tegra/sources/tegra/optee-src/nv-optee/optee/optee_os/lib/libutee/tee_api_panic.c:112
    1490:	52800060 	mov	w0, #0x3                   	// #3
    1494:	97ffff7c 	bl	1284 <check_access>
/home/seungwoo/optee/Linux_for_Tegra/sources/tegra/optee-src/nv-optee/optee/optee_os/lib/libutee/tee_api_panic.c:114
    1498:	a8c17bfd 	ldp	x29, x30, [sp], #16
/home/seungwoo/optee/Linux_for_Tegra/sources/tegra/optee-src/nv-optee/optee/optee_os/lib/libutee/tee_api_panic.c:112
    149c:	17ffff83 	b	12a8 <check_res.isra.0>

00000000000014a0 <invoke_system_pta>:
invoke_system_pta():
/home/seungwoo/optee/Linux_for_Tegra/sources/tegra/optee-src/nv-optee/optee/optee_os/lib/libutee/tee_system_pta.c:16
    14a0:	a9bd7bfd 	stp	x29, x30, [sp, #-48]!
    14a4:	910003fd 	mov	x29, sp
    14a8:	a90153f3 	stp	x19, x20, [sp, #16]
    14ac:	2a0003f4 	mov	w20, w0
/home/seungwoo/optee/Linux_for_Tegra/sources/tegra/optee-src/nv-optee/optee/optee_os/lib/libutee/tee_system_pta.c:20
    14b0:	90000083 	adrp	x3, 11000 <_DYNAMIC>
    14b4:	f942c860 	ldr	x0, [x3, #1424]
/home/seungwoo/optee/Linux_for_Tegra/sources/tegra/optee-src/nv-optee/optee/optee_os/lib/libutee/tee_system_pta.c:16
    14b8:	a9025bf5 	stp	x21, x22, [sp, #32]
    14bc:	aa0303f3 	mov	x19, x3
    14c0:	2a0103f5 	mov	w21, w1
    14c4:	aa0203f6 	mov	x22, x2
/home/seungwoo/optee/Linux_for_Tegra/sources/tegra/optee-src/nv-optee/optee/optee_os/lib/libutee/tee_system_pta.c:20
    14c8:	b4000160 	cbz	x0, 14f4 <invoke_system_pta+0x54>
/home/seungwoo/optee/Linux_for_Tegra/sources/tegra/optee-src/nv-optee/optee/optee_os/lib/libutee/tee_system_pta.c:28
    14cc:	f942ca60 	ldr	x0, [x19, #1424]
    14d0:	aa1603e4 	mov	x4, x22
    14d4:	2a1503e3 	mov	w3, w21
    14d8:	2a1403e2 	mov	w2, w20
/home/seungwoo/optee/Linux_for_Tegra/sources/tegra/optee-src/nv-optee/optee/optee_os/lib/libutee/tee_system_pta.c:30
    14dc:	a94153f3 	ldp	x19, x20, [sp, #16]
/home/seungwoo/optee/Linux_for_Tegra/sources/tegra/optee-src/nv-optee/optee/optee_os/lib/libutee/tee_system_pta.c:28
    14e0:	d2800005 	mov	x5, #0x0                   	// #0
/home/seungwoo/optee/Linux_for_Tegra/sources/tegra/optee-src/nv-optee/optee/optee_os/lib/libutee/tee_system_pta.c:30
    14e4:	a9425bf5 	ldp	x21, x22, [sp, #32]
/home/seungwoo/optee/Linux_for_Tegra/sources/tegra/optee-src/nv-optee/optee/optee_os/lib/libutee/tee_system_pta.c:28
    14e8:	12800001 	mov	w1, #0xffffffff            	// #-1
/home/seungwoo/optee/Linux_for_Tegra/sources/tegra/optee-src/nv-optee/optee/optee_os/lib/libutee/tee_system_pta.c:30
    14ec:	a8c37bfd 	ldp	x29, x30, [sp], #48
/home/seungwoo/optee/Linux_for_Tegra/sources/tegra/optee-src/nv-optee/optee/optee_os/lib/libutee/tee_system_pta.c:28
    14f0:	17fffda3 	b	b7c <TEE_InvokeTACommand>
    14f4:	91164064 	add	x4, x3, #0x590
/home/seungwoo/optee/Linux_for_Tegra/sources/tegra/optee-src/nv-optee/optee/optee_os/lib/libutee/tee_system_pta.c:21
    14f8:	b0000060 	adrp	x0, e000 <__text_end+0x1978>
    14fc:	913c8000 	add	x0, x0, #0xf20
    1500:	d2800005 	mov	x5, #0x0                   	// #0
    1504:	d2800003 	mov	x3, #0x0                   	// #0
    1508:	52800002 	mov	w2, #0x0                   	// #0
    150c:	12800001 	mov	w1, #0xffffffff            	// #-1
    1510:	97fffcf4 	bl	8e0 <TEE_OpenTASession>
/home/seungwoo/optee/Linux_for_Tegra/sources/tegra/optee-src/nv-optee/optee/optee_os/lib/libutee/tee_system_pta.c:24
    1514:	34fffdc0 	cbz	w0, 14cc <invoke_system_pta+0x2c>
/home/seungwoo/optee/Linux_for_Tegra/sources/tegra/optee-src/nv-optee/optee/optee_os/lib/libutee/tee_system_pta.c:30
    1518:	a94153f3 	ldp	x19, x20, [sp, #16]
    151c:	a9425bf5 	ldp	x21, x22, [sp, #32]
    1520:	a8c37bfd 	ldp	x29, x30, [sp], #48
    1524:	d65f03c0 	ret

0000000000001528 <tee_map_zi>:
tee_map_zi():
/home/seungwoo/optee/Linux_for_Tegra/sources/tegra/optee-src/nv-optee/optee/optee_os/lib/libutee/tee_system_pta.c:33
    1528:	a9b97bfd 	stp	x29, x30, [sp, #-112]!
    152c:	90000082 	adrp	x2, 11000 <_DYNAMIC>
    1530:	910003fd 	mov	x29, sp
    1534:	f9409842 	ldr	x2, [x2, #304]
/home/seungwoo/optee/Linux_for_Tegra/sources/tegra/optee-src/nv-optee/optee/optee_os/lib/libutee/tee_system_pta.c:38
    1538:	9100a3e3 	add	x3, sp, #0x28
/home/seungwoo/optee/Linux_for_Tegra/sources/tegra/optee-src/nv-optee/optee/optee_os/lib/libutee/tee_system_pta.c:33
    153c:	a90153f3 	stp	x19, x20, [sp, #16]
    1540:	aa0003f4 	mov	x20, x0
    1544:	f9400040 	ldr	x0, [x2]
    1548:	f90037e0 	str	x0, [sp, #104]
    154c:	d2800000 	mov	x0, #0x0                   	// #0
    1550:	2a0103f3 	mov	w19, w1
/home/seungwoo/optee/Linux_for_Tegra/sources/tegra/optee-src/nv-optee/optee/optee_os/lib/libutee/tee_system_pta.c:38
    1554:	aa0303e0 	mov	x0, x3
    1558:	d2800802 	mov	x2, #0x40                  	// #64
    155c:	52800001 	mov	w1, #0x0                   	// #0
    1560:	94002743 	bl	b26c <memset>
/home/seungwoo/optee/Linux_for_Tegra/sources/tegra/optee-src/nv-optee/optee/optee_os/lib/libutee/tee_system_pta.c:41
    1564:	b9002bf4 	str	w20, [sp, #40]
/home/seungwoo/optee/Linux_for_Tegra/sources/tegra/optee-src/nv-optee/optee/optee_os/lib/libutee/tee_system_pta.c:42
    1568:	f2607e9f 	tst	x20, #0xffffffff00000000
    156c:	54000060 	b.eq	1578 <tee_map_zi+0x50>  // b.none
/home/seungwoo/optee/Linux_for_Tegra/sources/tegra/optee-src/nv-optee/optee/optee_os/lib/libutee/tee_system_pta.c:44
    1570:	d2800000 	mov	x0, #0x0                   	// #0
    1574:	1400000e 	b	15ac <tee_map_zi+0x84>
    1578:	aa0003e3 	mov	x3, x0
    157c:	340000b3 	cbz	w19, 1590 <tee_map_zi+0x68>
    1580:	7100127f 	cmp	w19, #0x4
    1584:	54ffff61 	b.ne	1570 <tee_map_zi+0x48>  // b.any
/home/seungwoo/optee/Linux_for_Tegra/sources/tegra/optee-src/nv-optee/optee/optee_os/lib/libutee/tee_system_pta.c:48
    1588:	52800020 	mov	w0, #0x1                   	// #1
    158c:	b9002fe0 	str	w0, [sp, #44]
/home/seungwoo/optee/Linux_for_Tegra/sources/tegra/optee-src/nv-optee/optee/optee_os/lib/libutee/tee_system_pta.c:54
    1590:	aa0303e2 	mov	x2, x3
    1594:	52802621 	mov	w1, #0x131                 	// #305
    1598:	52800040 	mov	w0, #0x2                   	// #2
    159c:	97ffffc1 	bl	14a0 <invoke_system_pta>
/home/seungwoo/optee/Linux_for_Tegra/sources/tegra/optee-src/nv-optee/optee/optee_os/lib/libutee/tee_system_pta.c:55
    15a0:	35fffe80 	cbnz	w0, 1570 <tee_map_zi+0x48>
reg_pair_to_64():
/home/seungwoo/optee/Linux_for_Tegra/sources/tegra/optee-src/nv-optee/optee/optee_os/lib/libutils/ext/include/util.h:166
    15a4:	294707e0 	ldp	w0, w1, [sp, #56]
    15a8:	aa008020 	orr	x0, x1, x0, lsl #32
tee_map_zi():
/home/seungwoo/optee/Linux_for_Tegra/sources/tegra/optee-src/nv-optee/optee/optee_os/lib/libutee/tee_system_pta.c:60
    15ac:	90000082 	adrp	x2, 11000 <_DYNAMIC>
    15b0:	f9409842 	ldr	x2, [x2, #304]
    15b4:	f94037e1 	ldr	x1, [sp, #104]
    15b8:	f9400043 	ldr	x3, [x2]
    15bc:	eb030021 	subs	x1, x1, x3
    15c0:	d2800003 	mov	x3, #0x0                   	// #0
    15c4:	54000040 	b.eq	15cc <tee_map_zi+0xa4>  // b.none
    15c8:	94002706 	bl	b1e0 <__stack_chk_fail>
    15cc:	a94153f3 	ldp	x19, x20, [sp, #16]
    15d0:	a8c77bfd 	ldp	x29, x30, [sp], #112
    15d4:	d65f03c0 	ret

00000000000015d8 <tee_unmap>:
tee_unmap():
/home/seungwoo/optee/Linux_for_Tegra/sources/tegra/optee-src/nv-optee/optee/optee_os/lib/libutee/tee_system_pta.c:63
    15d8:	a9b87bfd 	stp	x29, x30, [sp, #-128]!
    15dc:	90000082 	adrp	x2, 11000 <_DYNAMIC>
    15e0:	910003fd 	mov	x29, sp
    15e4:	f9409842 	ldr	x2, [x2, #304]
/home/seungwoo/optee/Linux_for_Tegra/sources/tegra/optee-src/nv-optee/optee/optee_os/lib/libutee/tee_system_pta.c:69
    15e8:	9100e3e3 	add	x3, sp, #0x38
/home/seungwoo/optee/Linux_for_Tegra/sources/tegra/optee-src/nv-optee/optee/optee_os/lib/libutee/tee_system_pta.c:63
    15ec:	a90153f3 	stp	x19, x20, [sp, #16]
    15f0:	aa0003f3 	mov	x19, x0
    15f4:	f9400040 	ldr	x0, [x2]
    15f8:	f9003fe0 	str	x0, [sp, #120]
    15fc:	d2800000 	mov	x0, #0x0                   	// #0
/home/seungwoo/optee/Linux_for_Tegra/sources/tegra/optee-src/nv-optee/optee/optee_os/lib/libutee/tee_system_pta.c:69
    1600:	aa0303e0 	mov	x0, x3
    1604:	d2800802 	mov	x2, #0x40                  	// #64
/home/seungwoo/optee/Linux_for_Tegra/sources/tegra/optee-src/nv-optee/optee/optee_os/lib/libutee/tee_system_pta.c:63
    1608:	f90013f5 	str	x21, [sp, #32]
    160c:	aa0103f5 	mov	x21, x1
/home/seungwoo/optee/Linux_for_Tegra/sources/tegra/optee-src/nv-optee/optee/optee_os/lib/libutee/tee_system_pta.c:69
    1610:	52800001 	mov	w1, #0x0                   	// #0
    1614:	94002716 	bl	b26c <memset>
    1618:	aa0003e3 	mov	x3, x0
reg_pair_from_64():
/home/seungwoo/optee/Linux_for_Tegra/sources/tegra/optee-src/nv-optee/optee/optee_os/lib/libutils/ext/include/util.h:172
    161c:	d360fe60 	lsr	x0, x19, #32
tee_unmap():
/home/seungwoo/optee/Linux_for_Tegra/sources/tegra/optee-src/nv-optee/optee/optee_os/lib/libutee/tee_system_pta.c:74
    1620:	aa0303e2 	mov	x2, x3
    1624:	52800221 	mov	w1, #0x11                  	// #17
/home/seungwoo/optee/Linux_for_Tegra/sources/tegra/optee-src/nv-optee/optee/optee_os/lib/libutee/tee_system_pta.c:71
    1628:	b9003bf5 	str	w21, [sp, #56]
reg_pair_from_64():
/home/seungwoo/optee/Linux_for_Tegra/sources/tegra/optee-src/nv-optee/optee/optee_os/lib/libutils/ext/include/util.h:173
    162c:	29094fe0 	stp	w0, w19, [sp, #72]
tee_unmap():
/home/seungwoo/optee/Linux_for_Tegra/sources/tegra/optee-src/nv-optee/optee/optee_os/lib/libutee/tee_system_pta.c:74
    1630:	52800060 	mov	w0, #0x3                   	// #3
    1634:	97ffff9b 	bl	14a0 <invoke_system_pta>
    1638:	2a0003f4 	mov	w20, w0
/home/seungwoo/optee/Linux_for_Tegra/sources/tegra/optee-src/nv-optee/optee/optee_os/lib/libutee/tee_system_pta.c:75
    163c:	34000180 	cbz	w0, 166c <tee_unmap+0x94>
/home/seungwoo/optee/Linux_for_Tegra/sources/tegra/optee-src/nv-optee/optee/optee_os/lib/libutee/tee_system_pta.c:76
    1640:	b0000060 	adrp	x0, e000 <__text_end+0x1978>
    1644:	913c8000 	add	x0, x0, #0xf20
    1648:	d0000064 	adrp	x4, f000 <small_prime+0x44>
    164c:	9112cc84 	add	x4, x4, #0x4b3
    1650:	aa1503e6 	mov	x6, x21
    1654:	aa1303e5 	mov	x5, x19
    1658:	91004000 	add	x0, x0, #0x10
    165c:	52800023 	mov	w3, #0x1                   	// #1
    1660:	52800022 	mov	w2, #0x1                   	// #1
    1664:	52800981 	mov	w1, #0x4c                  	// #76
    1668:	94002b44 	bl	c378 <trace_printf>
/home/seungwoo/optee/Linux_for_Tegra/sources/tegra/optee-src/nv-optee/optee/optee_os/lib/libutee/tee_system_pta.c:79
    166c:	90000082 	adrp	x2, 11000 <_DYNAMIC>
    1670:	f9409842 	ldr	x2, [x2, #304]
    1674:	f9403fe0 	ldr	x0, [sp, #120]
    1678:	f9400041 	ldr	x1, [x2]
    167c:	eb010000 	subs	x0, x0, x1
    1680:	d2800001 	mov	x1, #0x0                   	// #0
    1684:	54000040 	b.eq	168c <tee_unmap+0xb4>  // b.none
    1688:	940026d6 	bl	b1e0 <__stack_chk_fail>
    168c:	2a1403e0 	mov	w0, w20
    1690:	a94153f3 	ldp	x19, x20, [sp, #16]
    1694:	f94013f5 	ldr	x21, [sp, #32]
    1698:	a8c87bfd 	ldp	x29, x30, [sp], #128
    169c:	d65f03c0 	ret

00000000000016a0 <tee_invoke_supp_plugin>:
tee_invoke_supp_plugin():
/home/seungwoo/optee/Linux_for_Tegra/sources/tegra/optee-src/nv-optee/optee/optee_os/lib/libutee/tee_system_pta.c:84
    16a0:	a9b77bfd 	stp	x29, x30, [sp, #-144]!
    16a4:	90000086 	adrp	x6, 11000 <_DYNAMIC>
    16a8:	910003fd 	mov	x29, sp
    16ac:	f94098c6 	ldr	x6, [x6, #304]
    16b0:	a90153f3 	stp	x19, x20, [sp, #16]
    16b4:	aa0303f4 	mov	x20, x3
/home/seungwoo/optee/Linux_for_Tegra/sources/tegra/optee-src/nv-optee/optee/optee_os/lib/libutee/tee_system_pta.c:90
    16b8:	910123e3 	add	x3, sp, #0x48
/home/seungwoo/optee/Linux_for_Tegra/sources/tegra/optee-src/nv-optee/optee/optee_os/lib/libutee/tee_system_pta.c:84
    16bc:	a9025bf5 	stp	x21, x22, [sp, #32]
    16c0:	aa0003f6 	mov	x22, x0
    16c4:	f94000c0 	ldr	x0, [x6]
    16c8:	f90047e0 	str	x0, [sp, #136]
    16cc:	d2800000 	mov	x0, #0x0                   	// #0
    16d0:	aa0403f3 	mov	x19, x4
    16d4:	aa0503f5 	mov	x21, x5
/home/seungwoo/optee/Linux_for_Tegra/sources/tegra/optee-src/nv-optee/optee/optee_os/lib/libutee/tee_system_pta.c:90
    16d8:	aa0303e0 	mov	x0, x3
/home/seungwoo/optee/Linux_for_Tegra/sources/tegra/optee-src/nv-optee/optee/optee_os/lib/libutee/tee_system_pta.c:84
    16dc:	a90363f7 	stp	x23, x24, [sp, #48]
    16e0:	2a0103f8 	mov	w24, w1
    16e4:	2a0203f7 	mov	w23, w2
/home/seungwoo/optee/Linux_for_Tegra/sources/tegra/optee-src/nv-optee/optee/optee_os/lib/libutee/tee_system_pta.c:90
    16e8:	52800001 	mov	w1, #0x0                   	// #0
    16ec:	d2800802 	mov	x2, #0x40                  	// #64
    16f0:	940026df 	bl	b26c <memset>
/home/seungwoo/optee/Linux_for_Tegra/sources/tegra/optee-src/nv-optee/optee/optee_os/lib/libutee/tee_system_pta.c:92
    16f4:	b40004f6 	cbz	x22, 1790 <tee_invoke_supp_plugin+0xf0>
/home/seungwoo/optee/Linux_for_Tegra/sources/tegra/optee-src/nv-optee/optee/optee_os/lib/libutee/tee_system_pta.c:92 (discriminator 1)
    16f8:	f100027f 	cmp	x19, #0x0
    16fc:	fa401a80 	ccmp	x20, #0x0, #0x0, ne  // ne = any
    1700:	54000480 	b.eq	1790 <tee_invoke_supp_plugin+0xf0>  // b.none
/home/seungwoo/optee/Linux_for_Tegra/sources/tegra/optee-src/nv-optee/optee/optee_os/lib/libutee/tee_system_pta.c:92 (discriminator 2)
    1704:	f100027f 	cmp	x19, #0x0
    1708:	fa400a84 	ccmp	x20, #0x0, #0x4, eq  // eq = none
    170c:	54000421 	b.ne	1790 <tee_invoke_supp_plugin+0xf0>  // b.any
    1710:	aa0003e3 	mov	x3, x0
/home/seungwoo/optee/Linux_for_Tegra/sources/tegra/optee-src/nv-optee/optee/optee_os/lib/libutee/tee_system_pta.c:96
    1714:	d2800200 	mov	x0, #0x10                  	// #16
/home/seungwoo/optee/Linux_for_Tegra/sources/tegra/optee-src/nv-optee/optee/optee_os/lib/libutee/tee_system_pta.c:102
    1718:	aa0303e2 	mov	x2, x3
    171c:	5284e2a1 	mov	w1, #0x2715                	// #10005
/home/seungwoo/optee/Linux_for_Tegra/sources/tegra/optee-src/nv-optee/optee/optee_os/lib/libutee/tee_system_pta.c:96
    1720:	a90483f6 	stp	x22, x0, [sp, #72]
/home/seungwoo/optee/Linux_for_Tegra/sources/tegra/optee-src/nv-optee/optee/optee_os/lib/libutee/tee_system_pta.c:102
    1724:	528001a0 	mov	w0, #0xd                   	// #13
/home/seungwoo/optee/Linux_for_Tegra/sources/tegra/optee-src/nv-optee/optee/optee_os/lib/libutee/tee_system_pta.c:98
    1728:	290b5ff8 	stp	w24, w23, [sp, #88]
/home/seungwoo/optee/Linux_for_Tegra/sources/tegra/optee-src/nv-optee/optee/optee_os/lib/libutee/tee_system_pta.c:100
    172c:	a906cff4 	stp	x20, x19, [sp, #104]
/home/seungwoo/optee/Linux_for_Tegra/sources/tegra/optee-src/nv-optee/optee/optee_os/lib/libutee/tee_system_pta.c:102
    1730:	97ffff5c 	bl	14a0 <invoke_system_pta>
    1734:	2a0003f3 	mov	w19, w0
/home/seungwoo/optee/Linux_for_Tegra/sources/tegra/optee-src/nv-optee/optee/optee_os/lib/libutee/tee_system_pta.c:104
    1738:	34000160 	cbz	w0, 1764 <tee_invoke_supp_plugin+0xc4>
/home/seungwoo/optee/Linux_for_Tegra/sources/tegra/optee-src/nv-optee/optee/optee_os/lib/libutee/tee_system_pta.c:105
    173c:	2a0003e5 	mov	w5, w0
    1740:	b0000060 	adrp	x0, e000 <__text_end+0x1978>
    1744:	913c8000 	add	x0, x0, #0xf20
    1748:	d0000064 	adrp	x4, f000 <small_prime+0x44>
    174c:	91137484 	add	x4, x4, #0x4dd
    1750:	91006800 	add	x0, x0, #0x1a
    1754:	52800023 	mov	w3, #0x1                   	// #1
    1758:	52800022 	mov	w2, #0x1                   	// #1
    175c:	52800d21 	mov	w1, #0x69                  	// #105
    1760:	94002b06 	bl	c378 <trace_printf>
/home/seungwoo/optee/Linux_for_Tegra/sources/tegra/optee-src/nv-optee/optee/optee_os/lib/libutee/tee_system_pta.c:107
    1764:	b4000075 	cbz	x21, 1770 <tee_invoke_supp_plugin+0xd0>
/home/seungwoo/optee/Linux_for_Tegra/sources/tegra/optee-src/nv-optee/optee/optee_os/lib/libutee/tee_system_pta.c:108
    1768:	b9407be0 	ldr	w0, [sp, #120]
    176c:	f90002a0 	str	x0, [x21]
/home/seungwoo/optee/Linux_for_Tegra/sources/tegra/optee-src/nv-optee/optee/optee_os/lib/libutee/tee_system_pta.c:111
    1770:	90000086 	adrp	x6, 11000 <_DYNAMIC>
    1774:	f94098c6 	ldr	x6, [x6, #304]
    1778:	f94047e0 	ldr	x0, [sp, #136]
    177c:	f94000c1 	ldr	x1, [x6]
    1780:	eb010000 	subs	x0, x0, x1
    1784:	d2800001 	mov	x1, #0x0                   	// #0
    1788:	54000080 	b.eq	1798 <tee_invoke_supp_plugin+0xf8>  // b.none
    178c:	94002695 	bl	b1e0 <__stack_chk_fail>
/home/seungwoo/optee/Linux_for_Tegra/sources/tegra/optee-src/nv-optee/optee/optee_os/lib/libutee/tee_system_pta.c:93
    1790:	129fff33 	mov	w19, #0xffff0006            	// #-65530
    1794:	17fffff7 	b	1770 <tee_invoke_supp_plugin+0xd0>
/home/seungwoo/optee/Linux_for_Tegra/sources/tegra/optee-src/nv-optee/optee/optee_os/lib/libutee/tee_system_pta.c:111
    1798:	2a1303e0 	mov	w0, w19
    179c:	a94153f3 	ldp	x19, x20, [sp, #16]
    17a0:	a9425bf5 	ldp	x21, x22, [sp, #32]
    17a4:	a94363f7 	ldp	x23, x24, [sp, #48]
    17a8:	a8c97bfd 	ldp	x29, x30, [sp], #144
    17ac:	d65f03c0 	ret

00000000000017b0 <_get_fn_array>:
_get_fn_array():
/home/seungwoo/optee/Linux_for_Tegra/sources/tegra/optee-src/nv-optee/optee/optee_os/lib/libutee/user_ta_entry.c:84
    17b0:	79403009 	ldrh	w9, [x0, #24]
/home/seungwoo/optee/Linux_for_Tegra/sources/tegra/optee-src/nv-optee/optee/optee_os/lib/libutee/user_ta_entry.c:95
    17b4:	93407c21 	sxtw	x1, w1
/home/seungwoo/optee/Linux_for_Tegra/sources/tegra/optee-src/nv-optee/optee/optee_os/lib/libutee/user_ta_entry.c:98
    17b8:	93407c42 	sxtw	x2, w2
/home/seungwoo/optee/Linux_for_Tegra/sources/tegra/optee-src/nv-optee/optee/optee_os/lib/libutee/user_ta_entry.c:84
    17bc:	d2800007 	mov	x7, #0x0                   	// #0
/home/seungwoo/optee/Linux_for_Tegra/sources/tegra/optee-src/nv-optee/optee/optee_os/lib/libutee/user_ta_entry.c:85
    17c0:	d280070a 	mov	x10, #0x38                  	// #56
/home/seungwoo/optee/Linux_for_Tegra/sources/tegra/optee-src/nv-optee/optee/optee_os/lib/libutee/user_ta_entry.c:84 (discriminator 1)
    17c4:	eb07013f 	cmp	x9, x7
    17c8:	54000048 	b.hi	17d0 <_get_fn_array+0x20>  // b.pmore
/home/seungwoo/optee/Linux_for_Tegra/sources/tegra/optee-src/nv-optee/optee/optee_os/lib/libutee/user_ta_entry.c:104
    17cc:	d65f03c0 	ret
/home/seungwoo/optee/Linux_for_Tegra/sources/tegra/optee-src/nv-optee/optee/optee_os/lib/libutee/user_ta_entry.c:85
    17d0:	9b0a7ce5 	mul	x5, x7, x10
    17d4:	f9400808 	ldr	x8, [x0, #16]
    17d8:	8b050106 	add	x6, x8, x5
/home/seungwoo/optee/Linux_for_Tegra/sources/tegra/optee-src/nv-optee/optee/optee_os/lib/libutee/user_ta_entry.c:86
    17dc:	b8656905 	ldr	w5, [x8, x5]
    17e0:	710008bf 	cmp	w5, #0x2
    17e4:	54000060 	b.eq	17f0 <_get_fn_array+0x40>  // b.none
/home/seungwoo/optee/Linux_for_Tegra/sources/tegra/optee-src/nv-optee/optee/optee_os/lib/libutee/user_ta_entry.c:84
    17e8:	910004e7 	add	x7, x7, #0x1
    17ec:	17fffff6 	b	17c4 <_get_fn_array+0x14>
/home/seungwoo/optee/Linux_for_Tegra/sources/tegra/optee-src/nv-optee/optee/optee_os/lib/libutee/user_ta_entry.c:89
    17f0:	f9400008 	ldr	x8, [x0]
    17f4:	f94008c5 	ldr	x5, [x6, #16]
/home/seungwoo/optee/Linux_for_Tegra/sources/tegra/optee-src/nv-optee/optee/optee_os/lib/libutee/user_ta_entry.c:88
    17f8:	f94014c6 	ldr	x6, [x6, #40]
/home/seungwoo/optee/Linux_for_Tegra/sources/tegra/optee-src/nv-optee/optee/optee_os/lib/libutee/user_ta_entry.c:89
    17fc:	8b0800a5 	add	x5, x5, x8
/home/seungwoo/optee/Linux_for_Tegra/sources/tegra/optee-src/nv-optee/optee/optee_os/lib/libutee/user_ta_entry.c:90
    1800:	927cecc6 	and	x6, x6, #0xfffffffffffffff0
    1804:	8b0500c6 	add	x6, x6, x5
/home/seungwoo/optee/Linux_for_Tegra/sources/tegra/optee-src/nv-optee/optee/optee_os/lib/libutee/user_ta_entry.c:90 (discriminator 1)
    1808:	eb0600bf 	cmp	x5, x6
    180c:	54fffee0 	b.eq	17e8 <_get_fn_array+0x38>  // b.none
/home/seungwoo/optee/Linux_for_Tegra/sources/tegra/optee-src/nv-optee/optee/optee_os/lib/libutee/user_ta_entry.c:91
    1810:	f9400068 	ldr	x8, [x3]
    1814:	b4000068 	cbz	x8, 1820 <_get_fn_array+0x70>
/home/seungwoo/optee/Linux_for_Tegra/sources/tegra/optee-src/nv-optee/optee/optee_os/lib/libutee/user_ta_entry.c:91 (discriminator 1)
    1818:	f9400088 	ldr	x8, [x4]
    181c:	b5fffe68 	cbnz	x8, 17e8 <_get_fn_array+0x38>
/home/seungwoo/optee/Linux_for_Tegra/sources/tegra/optee-src/nv-optee/optee/optee_os/lib/libutee/user_ta_entry.c:93
    1820:	f94000a8 	ldr	x8, [x5]
    1824:	b4fffe28 	cbz	x8, 17e8 <_get_fn_array+0x38>
/home/seungwoo/optee/Linux_for_Tegra/sources/tegra/optee-src/nv-optee/optee/optee_os/lib/libutee/user_ta_entry.c:95
    1828:	eb01011f 	cmp	x8, x1
    182c:	540000e1 	b.ne	1848 <_get_fn_array+0x98>  // b.any
/home/seungwoo/optee/Linux_for_Tegra/sources/tegra/optee-src/nv-optee/optee/optee_os/lib/libutee/user_ta_entry.c:96
    1830:	f940000b 	ldr	x11, [x0]
    1834:	f94004a8 	ldr	x8, [x5, #8]
    1838:	8b0b0108 	add	x8, x8, x11
    183c:	f9000068 	str	x8, [x3]
/home/seungwoo/optee/Linux_for_Tegra/sources/tegra/optee-src/nv-optee/optee/optee_os/lib/libutee/user_ta_entry.c:101 (discriminator 2)
    1840:	910040a5 	add	x5, x5, #0x10
/home/seungwoo/optee/Linux_for_Tegra/sources/tegra/optee-src/nv-optee/optee/optee_os/lib/libutee/user_ta_entry.c:90 (discriminator 2)
    1844:	17fffff1 	b	1808 <_get_fn_array+0x58>
/home/seungwoo/optee/Linux_for_Tegra/sources/tegra/optee-src/nv-optee/optee/optee_os/lib/libutee/user_ta_entry.c:98
    1848:	eb02011f 	cmp	x8, x2
    184c:	54ffffa1 	b.ne	1840 <_get_fn_array+0x90>  // b.any
/home/seungwoo/optee/Linux_for_Tegra/sources/tegra/optee-src/nv-optee/optee/optee_os/lib/libutee/user_ta_entry.c:99
    1850:	f94004a8 	ldr	x8, [x5, #8]
    1854:	d343fd08 	lsr	x8, x8, #3
    1858:	f9000088 	str	x8, [x4]
    185c:	17fffff9 	b	1840 <_get_fn_array+0x90>

0000000000001860 <_fini_iterate_phdr_cb>:
_fini_iterate_phdr_cb():
/home/seungwoo/optee/Linux_for_Tegra/sources/tegra/optee-src/nv-optee/optee/optee_os/lib/libutee/user_ta_entry.c:140
    1860:	a9bc7bfd 	stp	x29, x30, [sp, #-64]!
    1864:	90000081 	adrp	x1, 11000 <_DYNAMIC>
    1868:	910003fd 	mov	x29, sp
    186c:	f9409821 	ldr	x1, [x1, #304]
/home/seungwoo/optee/Linux_for_Tegra/sources/tegra/optee-src/nv-optee/optee/optee_os/lib/libutee/user_ta_entry.c:145
    1870:	9100c3e4 	add	x4, sp, #0x30
    1874:	9100a3e3 	add	x3, sp, #0x28
/home/seungwoo/optee/Linux_for_Tegra/sources/tegra/optee-src/nv-optee/optee/optee_os/lib/libutee/user_ta_entry.c:142
    1878:	a902ffff 	stp	xzr, xzr, [sp, #40]
/home/seungwoo/optee/Linux_for_Tegra/sources/tegra/optee-src/nv-optee/optee/optee_os/lib/libutee/user_ta_entry.c:140
    187c:	f9400022 	ldr	x2, [x1]
    1880:	f9001fe2 	str	x2, [sp, #56]
    1884:	d2800002 	mov	x2, #0x0                   	// #0
    1888:	f9000bf3 	str	x19, [sp, #16]
/home/seungwoo/optee/Linux_for_Tegra/sources/tegra/optee-src/nv-optee/optee/optee_os/lib/libutee/user_ta_entry.c:147
    188c:	d2800033 	mov	x19, #0x1                   	// #1
/home/seungwoo/optee/Linux_for_Tegra/sources/tegra/optee-src/nv-optee/optee/optee_os/lib/libutee/user_ta_entry.c:145
    1890:	52800382 	mov	w2, #0x1c                  	// #28
    1894:	52800341 	mov	w1, #0x1a                  	// #26
    1898:	97ffffc6 	bl	17b0 <_get_fn_array>
/home/seungwoo/optee/Linux_for_Tegra/sources/tegra/optee-src/nv-optee/optee/optee_os/lib/libutee/user_ta_entry.c:147 (discriminator 1)
    189c:	f9401be0 	ldr	x0, [sp, #48]
    18a0:	eb13001f 	cmp	x0, x19
    18a4:	54000122 	b.cs	18c8 <_fini_iterate_phdr_cb+0x68>  // b.hs, b.nlast
/home/seungwoo/optee/Linux_for_Tegra/sources/tegra/optee-src/nv-optee/optee/optee_os/lib/libutee/user_ta_entry.c:151
    18a8:	90000081 	adrp	x1, 11000 <_DYNAMIC>
    18ac:	f9409821 	ldr	x1, [x1, #304]
    18b0:	f9401fe0 	ldr	x0, [sp, #56]
    18b4:	f9400022 	ldr	x2, [x1]
    18b8:	eb020000 	subs	x0, x0, x2
    18bc:	d2800002 	mov	x2, #0x0                   	// #0
    18c0:	54000100 	b.eq	18e0 <_fini_iterate_phdr_cb+0x80>  // b.none
    18c4:	94002647 	bl	b1e0 <__stack_chk_fail>
/home/seungwoo/optee/Linux_for_Tegra/sources/tegra/optee-src/nv-optee/optee/optee_os/lib/libutee/user_ta_entry.c:148 (discriminator 3)
    18c8:	f94017e1 	ldr	x1, [sp, #40]
    18cc:	cb130000 	sub	x0, x0, x19
/home/seungwoo/optee/Linux_for_Tegra/sources/tegra/optee-src/nv-optee/optee/optee_os/lib/libutee/user_ta_entry.c:147 (discriminator 3)
    18d0:	91000673 	add	x19, x19, #0x1
/home/seungwoo/optee/Linux_for_Tegra/sources/tegra/optee-src/nv-optee/optee/optee_os/lib/libutee/user_ta_entry.c:148 (discriminator 3)
    18d4:	f8607820 	ldr	x0, [x1, x0, lsl #3]
    18d8:	d63f0000 	blr	x0
/home/seungwoo/optee/Linux_for_Tegra/sources/tegra/optee-src/nv-optee/optee/optee_os/lib/libutee/user_ta_entry.c:147 (discriminator 3)
    18dc:	17fffff0 	b	189c <_fini_iterate_phdr_cb+0x3c>
/home/seungwoo/optee/Linux_for_Tegra/sources/tegra/optee-src/nv-optee/optee/optee_os/lib/libutee/user_ta_entry.c:151
    18e0:	52800000 	mov	w0, #0x0                   	// #0
    18e4:	f9400bf3 	ldr	x19, [sp, #16]
    18e8:	a8c47bfd 	ldp	x29, x30, [sp], #64
    18ec:	d65f03c0 	ret

00000000000018f0 <ta_header_get_session>:
ta_header_get_session():
/home/seungwoo/optee/Linux_for_Tegra/sources/tegra/optee-src/nv-optee/optee/optee_os/lib/libutee/user_ta_entry.c:208
    18f0:	2a0003e1 	mov	w1, w0
/home/seungwoo/optee/Linux_for_Tegra/sources/tegra/optee-src/nv-optee/optee/optee_os/lib/libutee/user_ta_entry.c:211
    18f4:	90000080 	adrp	x0, 11000 <_DYNAMIC>
    18f8:	f9425c00 	ldr	x0, [x0, #1208]
/home/seungwoo/optee/Linux_for_Tegra/sources/tegra/optee-src/nv-optee/optee/optee_os/lib/libutee/user_ta_entry.c:211 (discriminator 1)
    18fc:	b5000040 	cbnz	x0, 1904 <ta_header_get_session+0x14>
/home/seungwoo/optee/Linux_for_Tegra/sources/tegra/optee-src/nv-optee/optee/optee_os/lib/libutee/user_ta_entry.c:216
    1900:	d65f03c0 	ret
/home/seungwoo/optee/Linux_for_Tegra/sources/tegra/optee-src/nv-optee/optee/optee_os/lib/libutee/user_ta_entry.c:212
    1904:	b9400002 	ldr	w2, [x0]
    1908:	6b01005f 	cmp	w2, w1
    190c:	54ffffa0 	b.eq	1900 <ta_header_get_session+0x10>  // b.none
/home/seungwoo/optee/Linux_for_Tegra/sources/tegra/optee-src/nv-optee/optee/optee_os/lib/libutee/user_ta_entry.c:211 (discriminator 2)
    1910:	f9400800 	ldr	x0, [x0, #16]
    1914:	17fffffa 	b	18fc <ta_header_get_session+0xc>

0000000000001918 <to_utee_params>:
to_utee_params():
/home/seungwoo/optee/Linux_for_Tegra/sources/tegra/optee-src/nv-optee/optee/optee_os/lib/libutee/user_ta_entry.c:270
    1918:	2a0103e3 	mov	w3, w1
    191c:	f8008403 	str	x3, [x0], #8
    1920:	52800003 	mov	w3, #0x0                   	// #0
/home/seungwoo/optee/Linux_for_Tegra/sources/tegra/optee-src/nv-optee/optee/optee_os/lib/libutee/user_ta_entry.c:272
    1924:	1ac32425 	lsr	w5, w1, w3
    1928:	12000ca4 	and	w4, w5, #0xf
    192c:	721e04bf 	tst	w5, #0xc
    1930:	54000181 	b.ne	1960 <to_utee_params+0x48>  // b.any
    1934:	340001c4 	cbz	w4, 196c <to_utee_params+0x54>
/home/seungwoo/optee/Linux_for_Tegra/sources/tegra/optee-src/nv-optee/optee/optee_os/lib/libutee/user_ta_entry.c:276
    1938:	b9400044 	ldr	w4, [x2]
    193c:	f9000004 	str	x4, [x0]
/home/seungwoo/optee/Linux_for_Tegra/sources/tegra/optee-src/nv-optee/optee/optee_os/lib/libutee/user_ta_entry.c:277
    1940:	b9400444 	ldr	w4, [x2, #4]
/home/seungwoo/optee/Linux_for_Tegra/sources/tegra/optee-src/nv-optee/optee/optee_os/lib/libutee/user_ta_entry.c:283
    1944:	f9000404 	str	x4, [x0, #8]
/home/seungwoo/optee/Linux_for_Tegra/sources/tegra/optee-src/nv-optee/optee/optee_os/lib/libutee/user_ta_entry.c:271 (discriminator 2)
    1948:	11001063 	add	w3, w3, #0x4
    194c:	91004042 	add	x2, x2, #0x10
    1950:	91004000 	add	x0, x0, #0x10
    1954:	7100407f 	cmp	w3, #0x10
    1958:	54fffe61 	b.ne	1924 <to_utee_params+0xc>  // b.any
/home/seungwoo/optee/Linux_for_Tegra/sources/tegra/optee-src/nv-optee/optee/optee_os/lib/libutee/user_ta_entry.c:291
    195c:	d65f03c0 	ret
/home/seungwoo/optee/Linux_for_Tegra/sources/tegra/optee-src/nv-optee/optee/optee_os/lib/libutee/user_ta_entry.c:272
    1960:	51001484 	sub	w4, w4, #0x5
    1964:	7100089f 	cmp	w4, #0x2
    1968:	54000069 	b.ls	1974 <to_utee_params+0x5c>  // b.plast
/home/seungwoo/optee/Linux_for_Tegra/sources/tegra/optee-src/nv-optee/optee/optee_os/lib/libutee/user_ta_entry.c:287
    196c:	a9007c1f 	stp	xzr, xzr, [x0]
/home/seungwoo/optee/Linux_for_Tegra/sources/tegra/optee-src/nv-optee/optee/optee_os/lib/libutee/user_ta_entry.c:288
    1970:	17fffff6 	b	1948 <to_utee_params+0x30>
/home/seungwoo/optee/Linux_for_Tegra/sources/tegra/optee-src/nv-optee/optee/optee_os/lib/libutee/user_ta_entry.c:282
    1974:	f9400044 	ldr	x4, [x2]
    1978:	f9000004 	str	x4, [x0]
/home/seungwoo/optee/Linux_for_Tegra/sources/tegra/optee-src/nv-optee/optee/optee_os/lib/libutee/user_ta_entry.c:283
    197c:	f9400444 	ldr	x4, [x2, #8]
    1980:	17fffff1 	b	1944 <to_utee_params+0x2c>

0000000000001984 <from_utee_params>:
from_utee_params():
/home/seungwoo/optee/Linux_for_Tegra/sources/tegra/optee-src/nv-optee/optee/optee_os/lib/libutee/user_ta_entry.c:298
    1984:	f8408445 	ldr	x5, [x2], #8
    1988:	52800003 	mov	w3, #0x0                   	// #0
    198c:	2a0503e9 	mov	w9, w5
/home/seungwoo/optee/Linux_for_Tegra/sources/tegra/optee-src/nv-optee/optee/optee_os/lib/libutee/user_ta_entry.c:304
    1990:	1ac32528 	lsr	w8, w9, w3
    1994:	12000d04 	and	w4, w8, #0xf
    1998:	721e051f 	tst	w8, #0xc
/home/seungwoo/optee/Linux_for_Tegra/sources/tegra/optee-src/nv-optee/optee/optee_os/lib/libutee/user_ta_entry.c:302
    199c:	a9401847 	ldp	x7, x6, [x2]
/home/seungwoo/optee/Linux_for_Tegra/sources/tegra/optee-src/nv-optee/optee/optee_os/lib/libutee/user_ta_entry.c:304
    19a0:	54000081 	b.ne	19b0 <from_utee_params+0x2c>  // b.any
    19a4:	340000c4 	cbz	w4, 19bc <from_utee_params+0x38>
/home/seungwoo/optee/Linux_for_Tegra/sources/tegra/optee-src/nv-optee/optee/optee_os/lib/libutee/user_ta_entry.c:309
    19a8:	29001807 	stp	w7, w6, [x0]
/home/seungwoo/optee/Linux_for_Tegra/sources/tegra/optee-src/nv-optee/optee/optee_os/lib/libutee/user_ta_entry.c:310
    19ac:	14000004 	b	19bc <from_utee_params+0x38>
/home/seungwoo/optee/Linux_for_Tegra/sources/tegra/optee-src/nv-optee/optee/optee_os/lib/libutee/user_ta_entry.c:304
    19b0:	51001484 	sub	w4, w4, #0x5
    19b4:	7100089f 	cmp	w4, #0x2
    19b8:	54000109 	b.ls	19d8 <from_utee_params+0x54>  // b.plast
/home/seungwoo/optee/Linux_for_Tegra/sources/tegra/optee-src/nv-optee/optee/optee_os/lib/libutee/user_ta_entry.c:300 (discriminator 2)
    19bc:	11001063 	add	w3, w3, #0x4
    19c0:	91004042 	add	x2, x2, #0x10
    19c4:	91004000 	add	x0, x0, #0x10
    19c8:	7100407f 	cmp	w3, #0x10
    19cc:	54fffe21 	b.ne	1990 <from_utee_params+0xc>  // b.any
/home/seungwoo/optee/Linux_for_Tegra/sources/tegra/optee-src/nv-optee/optee/optee_os/lib/libutee/user_ta_entry.c:323
    19d0:	b9000025 	str	w5, [x1]
/home/seungwoo/optee/Linux_for_Tegra/sources/tegra/optee-src/nv-optee/optee/optee_os/lib/libutee/user_ta_entry.c:324
    19d4:	d65f03c0 	ret
/home/seungwoo/optee/Linux_for_Tegra/sources/tegra/optee-src/nv-optee/optee/optee_os/lib/libutee/user_ta_entry.c:315
    19d8:	a9001807 	stp	x7, x6, [x0]
/home/seungwoo/optee/Linux_for_Tegra/sources/tegra/optee-src/nv-optee/optee/optee_os/lib/libutee/user_ta_entry.c:316
    19dc:	17fffff8 	b	19bc <from_utee_params+0x38>

00000000000019e0 <_init_iterate_phdr_cb>:
_init_iterate_phdr_cb():
/home/seungwoo/optee/Linux_for_Tegra/sources/tegra/optee-src/nv-optee/optee/optee_os/lib/libutee/user_ta_entry.c:60
    19e0:	a9bd7bfd 	stp	x29, x30, [sp, #-48]!
    19e4:	910003fd 	mov	x29, sp
    19e8:	a90153f3 	stp	x19, x20, [sp, #16]
    19ec:	aa0203f4 	mov	x20, x2
    19f0:	f90013f5 	str	x21, [sp, #32]
    19f4:	aa0003f5 	mov	x21, x0
/home/seungwoo/optee/Linux_for_Tegra/sources/tegra/optee-src/nv-optee/optee/optee_os/lib/libutee/user_ta_entry.c:64
    19f8:	d2800a00 	mov	x0, #0x50                  	// #80
    19fc:	940024c5 	bl	ad10 <malloc>
/home/seungwoo/optee/Linux_for_Tegra/sources/tegra/optee-src/nv-optee/optee/optee_os/lib/libutee/user_ta_entry.c:65
    1a00:	b5000140 	cbnz	x0, 1a28 <_init_iterate_phdr_cb+0x48>
/home/seungwoo/optee/Linux_for_Tegra/sources/tegra/optee-src/nv-optee/optee/optee_os/lib/libutee/user_ta_entry.c:66
    1a04:	d0000064 	adrp	x4, f000 <small_prime+0x44>
    1a08:	91142084 	add	x4, x4, #0x508
    1a0c:	d0000060 	adrp	x0, f000 <small_prime+0x44>
    1a10:	91155c00 	add	x0, x0, #0x557
    1a14:	52800023 	mov	w3, #0x1                   	// #1
    1a18:	52800022 	mov	w2, #0x1                   	// #1
    1a1c:	52800841 	mov	w1, #0x42                  	// #66
    1a20:	94002a56 	bl	c378 <trace_printf>
/home/seungwoo/optee/Linux_for_Tegra/sources/tegra/optee-src/nv-optee/optee/optee_os/lib/libutee/user_ta_entry.c:67
    1a24:	940001e1 	bl	21a8 <abort>
    1a28:	aa0003f3 	mov	x19, x0
/home/seungwoo/optee/Linux_for_Tegra/sources/tegra/optee-src/nv-optee/optee/optee_os/lib/libutee/user_ta_entry.c:69
    1a2c:	aa1503e1 	mov	x1, x21
    1a30:	d2800802 	mov	x2, #0x40                  	// #64
    1a34:	97fff97b 	bl	20 <memcpy>
/home/seungwoo/optee/Linux_for_Tegra/sources/tegra/optee-src/nv-optee/optee/optee_os/lib/libutee/user_ta_entry.c:70
    1a38:	90000080 	adrp	x0, 11000 <_DYNAMIC>
    1a3c:	9112e000 	add	x0, x0, #0x4b8
/home/seungwoo/optee/Linux_for_Tegra/sources/tegra/optee-src/nv-optee/optee/optee_os/lib/libutee/user_ta_entry.c:73
    1a40:	f94013f5 	ldr	x21, [sp, #32]
/home/seungwoo/optee/Linux_for_Tegra/sources/tegra/optee-src/nv-optee/optee/optee_os/lib/libutee/user_ta_entry.c:70
    1a44:	f9400c01 	ldr	x1, [x0, #24]
    1a48:	a904067f 	stp	xzr, x1, [x19, #64]
    1a4c:	f9000033 	str	x19, [x1]
    1a50:	91010273 	add	x19, x19, #0x40
    1a54:	f9000c13 	str	x19, [x0, #24]
/home/seungwoo/optee/Linux_for_Tegra/sources/tegra/optee-src/nv-optee/optee/optee_os/lib/libutee/user_ta_entry.c:71
    1a58:	f9400280 	ldr	x0, [x20]
    1a5c:	91000400 	add	x0, x0, #0x1
    1a60:	f9000280 	str	x0, [x20]
/home/seungwoo/optee/Linux_for_Tegra/sources/tegra/optee-src/nv-optee/optee/optee_os/lib/libutee/user_ta_entry.c:73
    1a64:	52800000 	mov	w0, #0x0                   	// #0
    1a68:	a94153f3 	ldp	x19, x20, [sp, #16]
    1a6c:	a8c37bfd 	ldp	x29, x30, [sp], #48
    1a70:	d65f03c0 	ret

0000000000001a74 <__utee_call_elf_init_fn>:
__utee_call_elf_init_fn():
/home/seungwoo/optee/Linux_for_Tegra/sources/tegra/optee-src/nv-optee/optee/optee_os/lib/libutee/user_ta_entry.c:107
    1a74:	a9b97bfd 	stp	x29, x30, [sp, #-112]!
    1a78:	90000080 	adrp	x0, 11000 <_DYNAMIC>
    1a7c:	910003fd 	mov	x29, sp
    1a80:	f9409800 	ldr	x0, [x0, #304]
    1a84:	a90153f3 	stp	x19, x20, [sp, #16]
/home/seungwoo/optee/Linux_for_Tegra/sources/tegra/optee-src/nv-optee/optee/optee_os/lib/libutee/user_ta_entry.c:111
    1a88:	d2800014 	mov	x20, #0x0                   	// #0
/home/seungwoo/optee/Linux_for_Tegra/sources/tegra/optee-src/nv-optee/optee/optee_os/lib/libutee/user_ta_entry.c:107
    1a8c:	f9400001 	ldr	x1, [x0]
    1a90:	f90037e1 	str	x1, [sp, #104]
    1a94:	d2800001 	mov	x1, #0x0                   	// #0
/home/seungwoo/optee/Linux_for_Tegra/sources/tegra/optee-src/nv-optee/optee/optee_os/lib/libutee/user_ta_entry.c:116
    1a98:	90000000 	adrp	x0, 1000 <TEE_Malloc>
    1a9c:	91278000 	add	x0, x0, #0x9e0
    1aa0:	910163e1 	add	x1, sp, #0x58
/home/seungwoo/optee/Linux_for_Tegra/sources/tegra/optee-src/nv-optee/optee/optee_os/lib/libutee/user_ta_entry.c:107
    1aa4:	a9025bf5 	stp	x21, x22, [sp, #32]
    1aa8:	a90363f7 	stp	x23, x24, [sp, #48]
    1aac:	90000097 	adrp	x23, 11000 <_DYNAMIC>
    1ab0:	aa1703f8 	mov	x24, x23
    1ab4:	a9046bf9 	stp	x25, x26, [sp, #64]
/home/seungwoo/optee/Linux_for_Tegra/sources/tegra/optee-src/nv-optee/optee/optee_os/lib/libutee/user_ta_entry.c:122
    1ab8:	910183f9 	add	x25, sp, #0x60
    1abc:	910143fa 	add	x26, sp, #0x50
/home/seungwoo/optee/Linux_for_Tegra/sources/tegra/optee-src/nv-optee/optee/optee_os/lib/libutee/user_ta_entry.c:109
    1ac0:	a9057fff 	stp	xzr, xzr, [sp, #80]
/home/seungwoo/optee/Linux_for_Tegra/sources/tegra/optee-src/nv-optee/optee/optee_os/lib/libutee/user_ta_entry.c:110
    1ac4:	f90033ff 	str	xzr, [sp, #96]
/home/seungwoo/optee/Linux_for_Tegra/sources/tegra/optee-src/nv-optee/optee/optee_os/lib/libutee/user_ta_entry.c:116
    1ac8:	94000ef8 	bl	56a8 <dl_iterate_phdr>
/home/seungwoo/optee/Linux_for_Tegra/sources/tegra/optee-src/nv-optee/optee/optee_os/lib/libutee/user_ta_entry.c:119
    1acc:	90000081 	adrp	x1, 11000 <_DYNAMIC>
    1ad0:	9112e020 	add	x0, x1, #0x4b8
    1ad4:	aa0103f3 	mov	x19, x1
    1ad8:	f9400c00 	ldr	x0, [x0, #24]
    1adc:	f9400400 	ldr	x0, [x0, #8]
    1ae0:	f9400015 	ldr	x21, [x0]
/home/seungwoo/optee/Linux_for_Tegra/sources/tegra/optee-src/nv-optee/optee/optee_os/lib/libutee/user_ta_entry.c:119 (discriminator 1)
    1ae4:	f942cee1 	ldr	x1, [x23, #1432]
    1ae8:	b5000175 	cbnz	x21, 1b14 <__utee_call_elf_init_fn+0xa0>
/home/seungwoo/optee/Linux_for_Tegra/sources/tegra/optee-src/nv-optee/optee/optee_os/lib/libutee/user_ta_entry.c:130
    1aec:	8b010294 	add	x20, x20, x1
/home/seungwoo/optee/Linux_for_Tegra/sources/tegra/optee-src/nv-optee/optee/optee_os/lib/libutee/user_ta_entry.c:132
    1af0:	9112e261 	add	x1, x19, #0x4b8
/home/seungwoo/optee/Linux_for_Tegra/sources/tegra/optee-src/nv-optee/optee/optee_os/lib/libutee/user_ta_entry.c:133
    1af4:	aa0103f3 	mov	x19, x1
/home/seungwoo/optee/Linux_for_Tegra/sources/tegra/optee-src/nv-optee/optee/optee_os/lib/libutee/user_ta_entry.c:130
    1af8:	f902cf14 	str	x20, [x24, #1432]
/home/seungwoo/optee/Linux_for_Tegra/sources/tegra/optee-src/nv-optee/optee/optee_os/lib/libutee/user_ta_entry.c:132
    1afc:	f9400820 	ldr	x0, [x1, #16]
/home/seungwoo/optee/Linux_for_Tegra/sources/tegra/optee-src/nv-optee/optee/optee_os/lib/libutee/user_ta_entry.c:132 (discriminator 2)
    1b00:	b40004a0 	cbz	x0, 1b94 <__utee_call_elf_init_fn+0x120>
    1b04:	a9440414 	ldp	x20, x1, [x0, #64]
/home/seungwoo/optee/Linux_for_Tegra/sources/tegra/optee-src/nv-optee/optee/optee_os/lib/libutee/user_ta_entry.c:133 (discriminator 3)
    1b08:	b50003b4 	cbnz	x20, 1b7c <__utee_call_elf_init_fn+0x108>
/home/seungwoo/optee/Linux_for_Tegra/sources/tegra/optee-src/nv-optee/optee/optee_os/lib/libutee/user_ta_entry.c:133 (discriminator 2)
    1b0c:	f9000e61 	str	x1, [x19, #24]
    1b10:	1400001c 	b	1b80 <__utee_call_elf_init_fn+0x10c>
/home/seungwoo/optee/Linux_for_Tegra/sources/tegra/optee-src/nv-optee/optee/optee_os/lib/libutee/user_ta_entry.c:120
    1b14:	f9402fe0 	ldr	x0, [sp, #88]
    1b18:	cb010000 	sub	x0, x0, x1
    1b1c:	eb14001f 	cmp	x0, x20
    1b20:	54fffe60 	b.eq	1aec <__utee_call_elf_init_fn+0x78>  // b.none
/home/seungwoo/optee/Linux_for_Tegra/sources/tegra/optee-src/nv-optee/optee/optee_os/lib/libutee/user_ta_entry.c:124
    1b24:	d2800016 	mov	x22, #0x0                   	// #0
/home/seungwoo/optee/Linux_for_Tegra/sources/tegra/optee-src/nv-optee/optee/optee_os/lib/libutee/user_ta_entry.c:122
    1b28:	aa1903e4 	mov	x4, x25
    1b2c:	aa1a03e3 	mov	x3, x26
    1b30:	aa1503e0 	mov	x0, x21
    1b34:	52800362 	mov	w2, #0x1b                  	// #27
    1b38:	52800321 	mov	w1, #0x19                  	// #25
    1b3c:	97ffff1d 	bl	17b0 <_get_fn_array>
/home/seungwoo/optee/Linux_for_Tegra/sources/tegra/optee-src/nv-optee/optee/optee_os/lib/libutee/user_ta_entry.c:124 (discriminator 1)
    1b40:	f94033e0 	ldr	x0, [sp, #96]
    1b44:	eb16001f 	cmp	x0, x22
    1b48:	54000108 	b.hi	1b68 <__utee_call_elf_init_fn+0xf4>  // b.pmore
/home/seungwoo/optee/Linux_for_Tegra/sources/tegra/optee-src/nv-optee/optee/optee_os/lib/libutee/user_ta_entry.c:119 (discriminator 2)
    1b4c:	f94026a0 	ldr	x0, [x21, #72]
/home/seungwoo/optee/Linux_for_Tegra/sources/tegra/optee-src/nv-optee/optee/optee_os/lib/libutee/user_ta_entry.c:128 (discriminator 2)
    1b50:	91000694 	add	x20, x20, #0x1
/home/seungwoo/optee/Linux_for_Tegra/sources/tegra/optee-src/nv-optee/optee/optee_os/lib/libutee/user_ta_entry.c:119 (discriminator 2)
    1b54:	f9400400 	ldr	x0, [x0, #8]
    1b58:	f9400015 	ldr	x21, [x0]
/home/seungwoo/optee/Linux_for_Tegra/sources/tegra/optee-src/nv-optee/optee/optee_os/lib/libutee/user_ta_entry.c:126 (discriminator 2)
    1b5c:	f9002bff 	str	xzr, [sp, #80]
/home/seungwoo/optee/Linux_for_Tegra/sources/tegra/optee-src/nv-optee/optee/optee_os/lib/libutee/user_ta_entry.c:127 (discriminator 2)
    1b60:	f90033ff 	str	xzr, [sp, #96]
/home/seungwoo/optee/Linux_for_Tegra/sources/tegra/optee-src/nv-optee/optee/optee_os/lib/libutee/user_ta_entry.c:119 (discriminator 2)
    1b64:	17ffffe0 	b	1ae4 <__utee_call_elf_init_fn+0x70>
/home/seungwoo/optee/Linux_for_Tegra/sources/tegra/optee-src/nv-optee/optee/optee_os/lib/libutee/user_ta_entry.c:125 (discriminator 3)
    1b68:	f9402be0 	ldr	x0, [sp, #80]
    1b6c:	f8767800 	ldr	x0, [x0, x22, lsl #3]
/home/seungwoo/optee/Linux_for_Tegra/sources/tegra/optee-src/nv-optee/optee/optee_os/lib/libutee/user_ta_entry.c:124 (discriminator 3)
    1b70:	910006d6 	add	x22, x22, #0x1
/home/seungwoo/optee/Linux_for_Tegra/sources/tegra/optee-src/nv-optee/optee/optee_os/lib/libutee/user_ta_entry.c:125 (discriminator 3)
    1b74:	d63f0000 	blr	x0
/home/seungwoo/optee/Linux_for_Tegra/sources/tegra/optee-src/nv-optee/optee/optee_os/lib/libutee/user_ta_entry.c:124 (discriminator 3)
    1b78:	17fffff2 	b	1b40 <__utee_call_elf_init_fn+0xcc>
/home/seungwoo/optee/Linux_for_Tegra/sources/tegra/optee-src/nv-optee/optee/optee_os/lib/libutee/user_ta_entry.c:133 (discriminator 1)
    1b7c:	f9002681 	str	x1, [x20, #72]
/home/seungwoo/optee/Linux_for_Tegra/sources/tegra/optee-src/nv-optee/optee/optee_os/lib/libutee/user_ta_entry.c:133 (discriminator 4)
    1b80:	f9402401 	ldr	x1, [x0, #72]
    1b84:	f9000034 	str	x20, [x1]
/home/seungwoo/optee/Linux_for_Tegra/sources/tegra/optee-src/nv-optee/optee/optee_os/lib/libutee/user_ta_entry.c:134 (discriminator 4)
    1b88:	94002482 	bl	ad90 <free>
/home/seungwoo/optee/Linux_for_Tegra/sources/tegra/optee-src/nv-optee/optee/optee_os/lib/libutee/user_ta_entry.c:132 (discriminator 4)
    1b8c:	aa1403e0 	mov	x0, x20
    1b90:	17ffffdc 	b	1b00 <__utee_call_elf_init_fn+0x8c>
/home/seungwoo/optee/Linux_for_Tegra/sources/tegra/optee-src/nv-optee/optee/optee_os/lib/libutee/user_ta_entry.c:136
    1b94:	90000080 	adrp	x0, 11000 <_DYNAMIC>
    1b98:	f9409800 	ldr	x0, [x0, #304]
    1b9c:	f94037e1 	ldr	x1, [sp, #104]
    1ba0:	f9400002 	ldr	x2, [x0]
    1ba4:	eb020021 	subs	x1, x1, x2
    1ba8:	d2800002 	mov	x2, #0x0                   	// #0
    1bac:	54000040 	b.eq	1bb4 <__utee_call_elf_init_fn+0x140>  // b.none
    1bb0:	9400258c 	bl	b1e0 <__stack_chk_fail>
    1bb4:	a94153f3 	ldp	x19, x20, [sp, #16]
    1bb8:	a9425bf5 	ldp	x21, x22, [sp, #32]
    1bbc:	a94363f7 	ldp	x23, x24, [sp, #48]
    1bc0:	a9446bf9 	ldp	x25, x26, [sp, #64]
    1bc4:	a8c77bfd 	ldp	x29, x30, [sp], #112
    1bc8:	d65f03c0 	ret

0000000000001bcc <__utee_call_elf_fini_fn>:
__utee_call_elf_fini_fn():
/home/seungwoo/optee/Linux_for_Tegra/sources/tegra/optee-src/nv-optee/optee/optee_os/lib/libutee/user_ta_entry.c:155
    1bcc:	d2800001 	mov	x1, #0x0                   	// #0
    1bd0:	90000000 	adrp	x0, 1000 <TEE_Malloc>
    1bd4:	91218000 	add	x0, x0, #0x860
    1bd8:	14000eb4 	b	56a8 <dl_iterate_phdr>

0000000000001bdc <ta_header_remove_session>:
ta_header_remove_session():
/home/seungwoo/optee/Linux_for_Tegra/sources/tegra/optee-src/nv-optee/optee/optee_os/lib/libutee/user_ta_entry.c:245
    1bdc:	a9be7bfd 	stp	x29, x30, [sp, #-32]!
    1be0:	2a0003e2 	mov	w2, w0
    1be4:	910003fd 	mov	x29, sp
    1be8:	f9000bf3 	str	x19, [sp, #16]
/home/seungwoo/optee/Linux_for_Tegra/sources/tegra/optee-src/nv-optee/optee/optee_os/lib/libutee/user_ta_entry.c:249
    1bec:	90000093 	adrp	x19, 11000 <_DYNAMIC>
    1bf0:	f9425e60 	ldr	x0, [x19, #1208]
/home/seungwoo/optee/Linux_for_Tegra/sources/tegra/optee-src/nv-optee/optee/optee_os/lib/libutee/user_ta_entry.c:249 (discriminator 1)
    1bf4:	b5000080 	cbnz	x0, 1c04 <ta_header_remove_session+0x28>
/home/seungwoo/optee/Linux_for_Tegra/sources/tegra/optee-src/nv-optee/optee/optee_os/lib/libutee/user_ta_entry.c:263
    1bf8:	f9400bf3 	ldr	x19, [sp, #16]
    1bfc:	a8c27bfd 	ldp	x29, x30, [sp], #32
    1c00:	d65f03c0 	ret
/home/seungwoo/optee/Linux_for_Tegra/sources/tegra/optee-src/nv-optee/optee/optee_os/lib/libutee/user_ta_entry.c:250
    1c04:	b9400003 	ldr	w3, [x0]
    1c08:	f9400801 	ldr	x1, [x0, #16]
    1c0c:	6b02007f 	cmp	w3, w2
    1c10:	540002e1 	b.ne	1c6c <ta_header_remove_session+0x90>  // b.any
/home/seungwoo/optee/Linux_for_Tegra/sources/tegra/optee-src/nv-optee/optee/optee_os/lib/libutee/user_ta_entry.c:251
    1c14:	f9400c02 	ldr	x2, [x0, #24]
    1c18:	b4000241 	cbz	x1, 1c60 <ta_header_remove_session+0x84>
/home/seungwoo/optee/Linux_for_Tegra/sources/tegra/optee-src/nv-optee/optee/optee_os/lib/libutee/user_ta_entry.c:251 (discriminator 1)
    1c1c:	f9000c22 	str	x2, [x1, #24]
/home/seungwoo/optee/Linux_for_Tegra/sources/tegra/optee-src/nv-optee/optee/optee_os/lib/libutee/user_ta_entry.c:251 (discriminator 4)
    1c20:	f9400c02 	ldr	x2, [x0, #24]
    1c24:	f9000041 	str	x1, [x2]
/home/seungwoo/optee/Linux_for_Tegra/sources/tegra/optee-src/nv-optee/optee/optee_os/lib/libutee/user_ta_entry.c:252 (discriminator 4)
    1c28:	97fffd41 	bl	112c <TEE_Free>
/home/seungwoo/optee/Linux_for_Tegra/sources/tegra/optee-src/nv-optee/optee/optee_os/lib/libutee/user_ta_entry.c:257 (discriminator 4)
    1c2c:	f9425e60 	ldr	x0, [x19, #1208]
    1c30:	b5fffe40 	cbnz	x0, 1bf8 <ta_header_remove_session+0x1c>
/home/seungwoo/optee/Linux_for_Tegra/sources/tegra/optee-src/nv-optee/optee/optee_os/lib/libutee/user_ta_entry.c:255 (discriminator 1)
    1c34:	90000080 	adrp	x0, 11000 <_DYNAMIC>
    1c38:	52800281 	mov	w1, #0x14                  	// #20
    1c3c:	f940e000 	ldr	x0, [x0, #448]
    1c40:	b9401400 	ldr	w0, [x0, #20]
    1c44:	0a010000 	and	w0, w0, w1
/home/seungwoo/optee/Linux_for_Tegra/sources/tegra/optee-src/nv-optee/optee/optee_os/lib/libutee/user_ta_entry.c:257 (discriminator 1)
    1c48:	6b01001f 	cmp	w0, w1
    1c4c:	54fffd60 	b.eq	1bf8 <ta_header_remove_session+0x1c>  // b.none
uninit_instance():
/home/seungwoo/optee/Linux_for_Tegra/sources/tegra/optee-src/nv-optee/optee/optee_os/lib/libutee/user_ta_entry.c:192
    1c50:	97fff931 	bl	114 <TA_DestroyEntryPoint>
ta_header_remove_session():
/home/seungwoo/optee/Linux_for_Tegra/sources/tegra/optee-src/nv-optee/optee/optee_os/lib/libutee/user_ta_entry.c:263
    1c54:	f9400bf3 	ldr	x19, [sp, #16]
    1c58:	a8c27bfd 	ldp	x29, x30, [sp], #32
uninit_instance():
/home/seungwoo/optee/Linux_for_Tegra/sources/tegra/optee-src/nv-optee/optee/optee_os/lib/libutee/user_ta_entry.c:193
    1c5c:	17ffffdc 	b	1bcc <__utee_call_elf_fini_fn>
ta_header_remove_session():
/home/seungwoo/optee/Linux_for_Tegra/sources/tegra/optee-src/nv-optee/optee/optee_os/lib/libutee/user_ta_entry.c:251 (discriminator 2)
    1c60:	9112e263 	add	x3, x19, #0x4b8
    1c64:	f9000462 	str	x2, [x3, #8]
    1c68:	17ffffee 	b	1c20 <ta_header_remove_session+0x44>
    1c6c:	aa0103e0 	mov	x0, x1
    1c70:	17ffffe1 	b	1bf4 <ta_header_remove_session+0x18>

0000000000001c74 <__utee_entry>:
__utee_entry():
/home/seungwoo/optee/Linux_for_Tegra/sources/tegra/optee-src/nv-optee/optee/optee_os/lib/libutee/user_ta_entry.c:421
    1c74:	a9b77bfd 	stp	x29, x30, [sp, #-144]!
/home/seungwoo/optee/Linux_for_Tegra/sources/tegra/optee-src/nv-optee/optee/optee_os/lib/libutee/user_ta_entry.c:424
    1c78:	f100041f 	cmp	x0, #0x1
/home/seungwoo/optee/Linux_for_Tegra/sources/tegra/optee-src/nv-optee/optee/optee_os/lib/libutee/user_ta_entry.c:421
    1c7c:	910003fd 	mov	x29, sp
    1c80:	a9025bf5 	stp	x21, x22, [sp, #32]
    1c84:	aa0103f5 	mov	x21, x1
    1c88:	90000081 	adrp	x1, 11000 <_DYNAMIC>
    1c8c:	aa0203f6 	mov	x22, x2
    1c90:	a90363f7 	stp	x23, x24, [sp, #48]
    1c94:	aa0303f7 	mov	x23, x3
    1c98:	f9409822 	ldr	x2, [x1, #304]
    1c9c:	a90153f3 	stp	x19, x20, [sp, #16]
    1ca0:	aa0103f4 	mov	x20, x1
    1ca4:	f9400043 	ldr	x3, [x2]
    1ca8:	f90047e3 	str	x3, [sp, #136]
    1cac:	d2800003 	mov	x3, #0x0                   	// #0
/home/seungwoo/optee/Linux_for_Tegra/sources/tegra/optee-src/nv-optee/optee/optee_os/lib/libutee/user_ta_entry.c:424
    1cb0:	54000ca0 	b.eq	1e44 <__utee_entry+0x1d0>  // b.none
    1cb4:	f100081f 	cmp	x0, #0x2
    1cb8:	54000d80 	b.eq	1e68 <__utee_entry+0x1f4>  // b.none
    1cbc:	b50010c0 	cbnz	x0, 1ed4 <__utee_entry+0x260>
ta_header_add_session():
/home/seungwoo/optee/Linux_for_Tegra/sources/tegra/optee-src/nv-optee/optee/optee_os/lib/libutee/user_ta_entry.c:220
    1cc0:	2a1503e0 	mov	w0, w21
    1cc4:	97ffff0b 	bl	18f0 <ta_header_get_session>
/home/seungwoo/optee/Linux_for_Tegra/sources/tegra/optee-src/nv-optee/optee/optee_os/lib/libutee/user_ta_entry.c:223
    1cc8:	b5000840 	cbnz	x0, 1dd0 <__utee_entry+0x15c>
/home/seungwoo/optee/Linux_for_Tegra/sources/tegra/optee-src/nv-optee/optee/optee_os/lib/libutee/user_ta_entry.c:226
    1ccc:	90000080 	adrp	x0, 11000 <_DYNAMIC>
    1cd0:	91166000 	add	x0, x0, #0x598
    1cd4:	39402001 	ldrb	w1, [x0, #8]
    1cd8:	340000e1 	cbz	w1, 1cf4 <__utee_entry+0x80>
/home/seungwoo/optee/Linux_for_Tegra/sources/tegra/optee-src/nv-optee/optee/optee_os/lib/libutee/user_ta_entry.c:233
    1cdc:	52b00001 	mov	w1, #0x80000000            	// #-2147483648
    1ce0:	d2800400 	mov	x0, #0x20                  	// #32
    1ce4:	97fffcc7 	bl	1000 <TEE_Malloc>
/home/seungwoo/optee/Linux_for_Tegra/sources/tegra/optee-src/nv-optee/optee/optee_os/lib/libutee/user_ta_entry.c:235
    1ce8:	b5000620 	cbnz	x0, 1dac <__utee_entry+0x138>
/home/seungwoo/optee/Linux_for_Tegra/sources/tegra/optee-src/nv-optee/optee/optee_os/lib/libutee/user_ta_entry.c:236
    1cec:	129ffe73 	mov	w19, #0xffff000c            	// #-65524
    1cf0:	14000022 	b	1d78 <__utee_entry+0x104>
/home/seungwoo/optee/Linux_for_Tegra/sources/tegra/optee-src/nv-optee/optee/optee_os/lib/libutee/user_ta_entry.c:227
    1cf4:	52800021 	mov	w1, #0x1                   	// #1
    1cf8:	39002001 	strb	w1, [x0, #8]
init_instance():
/home/seungwoo/optee/Linux_for_Tegra/sources/tegra/optee-src/nv-optee/optee/optee_os/lib/libutee/user_ta_entry.c:170
    1cfc:	97fff930 	bl	1bc <tahead_get_trace_level>
    1d00:	9400290c 	bl	c130 <trace_set_level>
/home/seungwoo/optee/Linux_for_Tegra/sources/tegra/optee-src/nv-optee/optee/optee_os/lib/libutee/user_ta_entry.c:172
    1d04:	f9409e80 	ldr	x0, [x20, #312]
    1d08:	f9400001 	ldr	x1, [x0]
    1d0c:	f940be80 	ldr	x0, [x20, #376]
    1d10:	940024db 	bl	b07c <malloc_add_pool>
/home/seungwoo/optee/Linux_for_Tegra/sources/tegra/optee-src/nv-optee/optee/optee_os/lib/libutee/user_ta_entry.c:173
    1d14:	f940a280 	ldr	x0, [x20, #320]
    1d18:	f9400017 	ldr	x23, [x0]
    1d1c:	b4000177 	cbz	x23, 1d48 <__utee_entry+0xd4>
/home/seungwoo/optee/Linux_for_Tegra/sources/tegra/optee-src/nv-optee/optee/optee_os/lib/libutee/user_ta_entry.c:174
    1d20:	94002424 	bl	adb0 <raw_malloc_get_ctx_size>
    1d24:	940023fb 	bl	ad10 <malloc>
    1d28:	f940d293 	ldr	x19, [x20, #416]
    1d2c:	f9000260 	str	x0, [x19]
/home/seungwoo/optee/Linux_for_Tegra/sources/tegra/optee-src/nv-optee/optee/optee_os/lib/libutee/user_ta_entry.c:175
    1d30:	b40000c0 	cbz	x0, 1d48 <__utee_entry+0xd4>
/home/seungwoo/optee/Linux_for_Tegra/sources/tegra/optee-src/nv-optee/optee/optee_os/lib/libutee/user_ta_entry.c:176
    1d34:	94002421 	bl	adb8 <raw_malloc_init_ctx>
/home/seungwoo/optee/Linux_for_Tegra/sources/tegra/optee-src/nv-optee/optee/optee_os/lib/libutee/user_ta_entry.c:177
    1d38:	f940d681 	ldr	x1, [x20, #424]
    1d3c:	aa1703e2 	mov	x2, x23
    1d40:	f9400260 	ldr	x0, [x19]
    1d44:	94002428 	bl	ade4 <raw_malloc_add_pool>
get_memtag_implementation():
/home/seungwoo/optee/Linux_for_Tegra/sources/tegra/optee-src/nv-optee/optee/optee_os/lib/libutee/user_ta_entry.c:163
    1d48:	910113e2 	add	x2, sp, #0x44
    1d4c:	d0000061 	adrp	x1, f000 <small_prime+0x44>
    1d50:	91148421 	add	x1, x1, #0x521
    1d54:	12800040 	mov	w0, #0xfffffffd            	// #-3
/home/seungwoo/optee/Linux_for_Tegra/sources/tegra/optee-src/nv-optee/optee/optee_os/lib/libutee/user_ta_entry.c:161
    1d58:	b90047ff 	str	wzr, [sp, #68]
/home/seungwoo/optee/Linux_for_Tegra/sources/tegra/optee-src/nv-optee/optee/optee_os/lib/libutee/user_ta_entry.c:163
    1d5c:	94000bb5 	bl	4c30 <TEE_GetPropertyAsU32>
init_instance():
/home/seungwoo/optee/Linux_for_Tegra/sources/tegra/optee-src/nv-optee/optee/optee_os/lib/libutee/user_ta_entry.c:183
    1d60:	940003ab 	bl	2c0c <_TEE_MathAPI_Init>
/home/seungwoo/optee/Linux_for_Tegra/sources/tegra/optee-src/nv-optee/optee/optee_os/lib/libutee/user_ta_entry.c:184
    1d64:	94000dba 	bl	544c <__utee_tcb_init>
/home/seungwoo/optee/Linux_for_Tegra/sources/tegra/optee-src/nv-optee/optee/optee_os/lib/libutee/user_ta_entry.c:185
    1d68:	97ffff43 	bl	1a74 <__utee_call_elf_init_fn>
/home/seungwoo/optee/Linux_for_Tegra/sources/tegra/optee-src/nv-optee/optee/optee_os/lib/libutee/user_ta_entry.c:186
    1d6c:	97fff8e8 	bl	10c <TA_CreateEntryPoint>
    1d70:	2a0003f3 	mov	w19, w0
ta_header_add_session():
/home/seungwoo/optee/Linux_for_Tegra/sources/tegra/optee-src/nv-optee/optee/optee_os/lib/libutee/user_ta_entry.c:229
    1d74:	34fffb40 	cbz	w0, 1cdc <__utee_entry+0x68>
ta_header_save_params():
/home/seungwoo/optee/Linux_for_Tegra/sources/tegra/optee-src/nv-optee/optee/optee_os/lib/libutee/user_ta_entry.c:199
    1d78:	f940ca80 	ldr	x0, [x20, #400]
/home/seungwoo/optee/Linux_for_Tegra/sources/tegra/optee-src/nv-optee/optee/optee_os/lib/libutee/user_ta_entry.c:204
    1d7c:	52800001 	mov	w1, #0x0                   	// #0
    1d80:	d2800802 	mov	x2, #0x40                  	// #64
/home/seungwoo/optee/Linux_for_Tegra/sources/tegra/optee-src/nv-optee/optee/optee_os/lib/libutee/user_ta_entry.c:199
    1d84:	b900001f 	str	wzr, [x0]
/home/seungwoo/optee/Linux_for_Tegra/sources/tegra/optee-src/nv-optee/optee/optee_os/lib/libutee/user_ta_entry.c:204
    1d88:	f940da80 	ldr	x0, [x20, #432]
    1d8c:	94002538 	bl	b26c <memset>
__utee_entry():
/home/seungwoo/optee/Linux_for_Tegra/sources/tegra/optee-src/nv-optee/optee/optee_os/lib/libutee/user_ta_entry.c:446
    1d90:	f9409a94 	ldr	x20, [x20, #304]
    1d94:	f94047e0 	ldr	x0, [sp, #136]
    1d98:	f9400281 	ldr	x1, [x20]
    1d9c:	eb010000 	subs	x0, x0, x1
    1da0:	d2800001 	mov	x1, #0x0                   	// #0
    1da4:	54000a00 	b.eq	1ee4 <__utee_entry+0x270>  // b.none
    1da8:	9400250e 	bl	b1e0 <__stack_chk_fail>
ta_header_add_session():
/home/seungwoo/optee/Linux_for_Tegra/sources/tegra/optee-src/nv-optee/optee/optee_os/lib/libutee/user_ta_entry.c:239
    1dac:	90000081 	adrp	x1, 11000 <_DYNAMIC>
    1db0:	9112e021 	add	x1, x1, #0x4b8
    1db4:	f9400422 	ldr	x2, [x1, #8]
/home/seungwoo/optee/Linux_for_Tegra/sources/tegra/optee-src/nv-optee/optee/optee_os/lib/libutee/user_ta_entry.c:237
    1db8:	b9000015 	str	w21, [x0]
/home/seungwoo/optee/Linux_for_Tegra/sources/tegra/optee-src/nv-optee/optee/optee_os/lib/libutee/user_ta_entry.c:239
    1dbc:	a900fc1f 	stp	xzr, xzr, [x0, #8]
    1dc0:	f9000c02 	str	x2, [x0, #24]
    1dc4:	f9000040 	str	x0, [x2]
    1dc8:	91004000 	add	x0, x0, #0x10
    1dcc:	f9000420 	str	x0, [x1, #8]
entry_open_session():
/home/seungwoo/optee/Linux_for_Tegra/sources/tegra/optee-src/nv-optee/optee/optee_os/lib/libutee/user_ta_entry.c:338
    1dd0:	2a1503e0 	mov	w0, w21
    1dd4:	97fffec7 	bl	18f0 <ta_header_get_session>
    1dd8:	aa0003f3 	mov	x19, x0
/home/seungwoo/optee/Linux_for_Tegra/sources/tegra/optee-src/nv-optee/optee/optee_os/lib/libutee/user_ta_entry.c:339
    1ddc:	b4000800 	cbz	x0, 1edc <__utee_entry+0x268>
/home/seungwoo/optee/Linux_for_Tegra/sources/tegra/optee-src/nv-optee/optee/optee_os/lib/libutee/user_ta_entry.c:342
    1de0:	910123f7 	add	x23, sp, #0x48
    1de4:	aa1603e2 	mov	x2, x22
    1de8:	910113e1 	add	x1, sp, #0x44
    1dec:	aa1703e0 	mov	x0, x23
    1df0:	97fffee5 	bl	1984 <from_utee_params>
/home/seungwoo/optee/Linux_for_Tegra/sources/tegra/optee-src/nv-optee/optee/optee_os/lib/libutee/user_ta_entry.c:343
    1df4:	b94047f8 	ldr	w24, [sp, #68]
ta_header_save_params():
/home/seungwoo/optee/Linux_for_Tegra/sources/tegra/optee-src/nv-optee/optee/optee_os/lib/libutee/user_ta_entry.c:199
    1df8:	f940ca80 	ldr	x0, [x20, #400]
/home/seungwoo/optee/Linux_for_Tegra/sources/tegra/optee-src/nv-optee/optee/optee_os/lib/libutee/user_ta_entry.c:202
    1dfc:	aa1703e1 	mov	x1, x23
    1e00:	d2800802 	mov	x2, #0x40                  	// #64
/home/seungwoo/optee/Linux_for_Tegra/sources/tegra/optee-src/nv-optee/optee/optee_os/lib/libutee/user_ta_entry.c:199
    1e04:	b9000018 	str	w24, [x0]
/home/seungwoo/optee/Linux_for_Tegra/sources/tegra/optee-src/nv-optee/optee/optee_os/lib/libutee/user_ta_entry.c:202
    1e08:	f940da80 	ldr	x0, [x20, #432]
    1e0c:	97fff885 	bl	20 <memcpy>
entry_open_session():
/home/seungwoo/optee/Linux_for_Tegra/sources/tegra/optee-src/nv-optee/optee/optee_os/lib/libutee/user_ta_entry.c:345
    1e10:	91002262 	add	x2, x19, #0x8
    1e14:	aa1703e1 	mov	x1, x23
    1e18:	2a1803e0 	mov	w0, w24
    1e1c:	97fff8bf 	bl	118 <TA_OpenSessionEntryPoint>
/home/seungwoo/optee/Linux_for_Tegra/sources/tegra/optee-src/nv-optee/optee/optee_os/lib/libutee/user_ta_entry.c:348
    1e20:	b94047e1 	ldr	w1, [sp, #68]
/home/seungwoo/optee/Linux_for_Tegra/sources/tegra/optee-src/nv-optee/optee/optee_os/lib/libutee/user_ta_entry.c:345
    1e24:	2a0003f3 	mov	w19, w0
/home/seungwoo/optee/Linux_for_Tegra/sources/tegra/optee-src/nv-optee/optee/optee_os/lib/libutee/user_ta_entry.c:348
    1e28:	aa1703e2 	mov	x2, x23
    1e2c:	aa1603e0 	mov	x0, x22
    1e30:	97fffeba 	bl	1918 <to_utee_params>
/home/seungwoo/optee/Linux_for_Tegra/sources/tegra/optee-src/nv-optee/optee/optee_os/lib/libutee/user_ta_entry.c:350
    1e34:	34fffa33 	cbz	w19, 1d78 <__utee_entry+0x104>
/home/seungwoo/optee/Linux_for_Tegra/sources/tegra/optee-src/nv-optee/optee/optee_os/lib/libutee/user_ta_entry.c:351
    1e38:	2a1503e0 	mov	w0, w21
    1e3c:	97ffff68 	bl	1bdc <ta_header_remove_session>
    1e40:	17ffffce 	b	1d78 <__utee_entry+0x104>
entry_close_session():
/home/seungwoo/optee/Linux_for_Tegra/sources/tegra/optee-src/nv-optee/optee/optee_os/lib/libutee/user_ta_entry.c:357
    1e44:	2a1503e0 	mov	w0, w21
    1e48:	97fffeaa 	bl	18f0 <ta_header_get_session>
/home/seungwoo/optee/Linux_for_Tegra/sources/tegra/optee-src/nv-optee/optee/optee_os/lib/libutee/user_ta_entry.c:359
    1e4c:	b4000480 	cbz	x0, 1edc <__utee_entry+0x268>
/home/seungwoo/optee/Linux_for_Tegra/sources/tegra/optee-src/nv-optee/optee/optee_os/lib/libutee/user_ta_entry.c:362
    1e50:	f9400400 	ldr	x0, [x0, #8]
/home/seungwoo/optee/Linux_for_Tegra/sources/tegra/optee-src/nv-optee/optee/optee_os/lib/libutee/user_ta_entry.c:365
    1e54:	52800013 	mov	w19, #0x0                   	// #0
/home/seungwoo/optee/Linux_for_Tegra/sources/tegra/optee-src/nv-optee/optee/optee_os/lib/libutee/user_ta_entry.c:362
    1e58:	97fff8b2 	bl	120 <TA_CloseSessionEntryPoint>
/home/seungwoo/optee/Linux_for_Tegra/sources/tegra/optee-src/nv-optee/optee/optee_os/lib/libutee/user_ta_entry.c:364
    1e5c:	2a1503e0 	mov	w0, w21
    1e60:	97ffff5f 	bl	1bdc <ta_header_remove_session>
/home/seungwoo/optee/Linux_for_Tegra/sources/tegra/optee-src/nv-optee/optee/optee_os/lib/libutee/user_ta_entry.c:365
    1e64:	17ffffc5 	b	1d78 <__utee_entry+0x104>
entry_invoke_command():
/home/seungwoo/optee/Linux_for_Tegra/sources/tegra/optee-src/nv-optee/optee/optee_os/lib/libutee/user_ta_entry.c:374
    1e68:	2a1503e0 	mov	w0, w21
    1e6c:	97fffea1 	bl	18f0 <ta_header_get_session>
    1e70:	aa0003f3 	mov	x19, x0
/home/seungwoo/optee/Linux_for_Tegra/sources/tegra/optee-src/nv-optee/optee/optee_os/lib/libutee/user_ta_entry.c:376
    1e74:	b4000340 	cbz	x0, 1edc <__utee_entry+0x268>
/home/seungwoo/optee/Linux_for_Tegra/sources/tegra/optee-src/nv-optee/optee/optee_os/lib/libutee/user_ta_entry.c:379
    1e78:	910123f5 	add	x21, sp, #0x48
    1e7c:	aa1603e2 	mov	x2, x22
    1e80:	910113e1 	add	x1, sp, #0x44
    1e84:	aa1503e0 	mov	x0, x21
    1e88:	97fffebf 	bl	1984 <from_utee_params>
/home/seungwoo/optee/Linux_for_Tegra/sources/tegra/optee-src/nv-optee/optee/optee_os/lib/libutee/user_ta_entry.c:380
    1e8c:	b94047f8 	ldr	w24, [sp, #68]
ta_header_save_params():
/home/seungwoo/optee/Linux_for_Tegra/sources/tegra/optee-src/nv-optee/optee/optee_os/lib/libutee/user_ta_entry.c:199
    1e90:	f940ca80 	ldr	x0, [x20, #400]
/home/seungwoo/optee/Linux_for_Tegra/sources/tegra/optee-src/nv-optee/optee/optee_os/lib/libutee/user_ta_entry.c:202
    1e94:	aa1503e1 	mov	x1, x21
    1e98:	d2800802 	mov	x2, #0x40                  	// #64
/home/seungwoo/optee/Linux_for_Tegra/sources/tegra/optee-src/nv-optee/optee/optee_os/lib/libutee/user_ta_entry.c:199
    1e9c:	b9000018 	str	w24, [x0]
/home/seungwoo/optee/Linux_for_Tegra/sources/tegra/optee-src/nv-optee/optee/optee_os/lib/libutee/user_ta_entry.c:202
    1ea0:	f940da80 	ldr	x0, [x20, #432]
    1ea4:	97fff85f 	bl	20 <memcpy>
entry_invoke_command():
/home/seungwoo/optee/Linux_for_Tegra/sources/tegra/optee-src/nv-optee/optee/optee_os/lib/libutee/user_ta_entry.c:382
    1ea8:	f9400660 	ldr	x0, [x19, #8]
    1eac:	2a1803e2 	mov	w2, w24
    1eb0:	2a1703e1 	mov	w1, w23
    1eb4:	aa1503e3 	mov	x3, x21
    1eb8:	97fff89b 	bl	124 <TA_InvokeCommandEntryPoint>
    1ebc:	2a0003f3 	mov	w19, w0
/home/seungwoo/optee/Linux_for_Tegra/sources/tegra/optee-src/nv-optee/optee/optee_os/lib/libutee/user_ta_entry.c:385
    1ec0:	b94047e1 	ldr	w1, [sp, #68]
    1ec4:	aa1503e2 	mov	x2, x21
    1ec8:	aa1603e0 	mov	x0, x22
    1ecc:	97fffe93 	bl	1918 <to_utee_params>
/home/seungwoo/optee/Linux_for_Tegra/sources/tegra/optee-src/nv-optee/optee/optee_os/lib/libutee/user_ta_entry.c:386
    1ed0:	17ffffaa 	b	1d78 <__utee_entry+0x104>
__utee_entry():
/home/seungwoo/optee/Linux_for_Tegra/sources/tegra/optee-src/nv-optee/optee/optee_os/lib/libutee/user_ta_entry.c:424
    1ed4:	129ffeb3 	mov	w19, #0xffff000a            	// #-65526
    1ed8:	17ffffa8 	b	1d78 <__utee_entry+0x104>
entry_close_session():
/home/seungwoo/optee/Linux_for_Tegra/sources/tegra/optee-src/nv-optee/optee/optee_os/lib/libutee/user_ta_entry.c:360
    1edc:	129fff13 	mov	w19, #0xffff0007            	// #-65529
    1ee0:	17ffffa6 	b	1d78 <__utee_entry+0x104>
__utee_entry():
/home/seungwoo/optee/Linux_for_Tegra/sources/tegra/optee-src/nv-optee/optee/optee_os/lib/libutee/user_ta_entry.c:446
    1ee4:	2a1303e0 	mov	w0, w19
    1ee8:	a94153f3 	ldp	x19, x20, [sp, #16]
    1eec:	a9425bf5 	ldp	x21, x22, [sp, #32]
    1ef0:	a94363f7 	ldp	x23, x24, [sp, #48]
    1ef4:	a8c97bfd 	ldp	x29, x30, [sp], #144
    1ef8:	d65f03c0 	ret

0000000000001efc <_utee_panic>:
_utee_panic():
/home/seungwoo/optee/Linux_for_Tegra/sources/tegra/optee-src/nv-optee/optee/optee_os/lib/libutee/arch/arm/utee_syscalls_a64.S:41
    1efc:	a9bf7bfd 	stp	x29, x30, [sp, #-16]!
/home/seungwoo/optee/Linux_for_Tegra/sources/tegra/optee-src/nv-optee/optee/optee_os/lib/libutee/arch/arm/utee_syscalls_a64.S:42
    1f00:	910003e1 	mov	x1, sp
/home/seungwoo/optee/Linux_for_Tegra/sources/tegra/optee-src/nv-optee/optee/optee_os/lib/libutee/arch/arm/utee_syscalls_a64.S:43
    1f04:	94000007 	bl	1f20 <__utee_panic>

0000000000001f08 <_utee_return>:
_utee_return():
/home/seungwoo/optee/Linux_for_Tegra/sources/tegra/optee-src/nv-optee/optee/optee_os/lib/libutee/include/utee_syscalls_asm.S:8
    1f08:	d2800008 	mov	x8, #0x0                   	// #0
    1f0c:	d4000001 	svc	#0x0
    1f10:	d65f03c0 	ret

0000000000001f14 <_utee_log>:
_utee_log():
/home/seungwoo/optee/Linux_for_Tegra/sources/tegra/optee-src/nv-optee/optee/optee_os/lib/libutee/include/utee_syscalls_asm.S:10
    1f14:	d2800028 	mov	x8, #0x1                   	// #1
    1f18:	d4000001 	svc	#0x0
    1f1c:	d65f03c0 	ret

0000000000001f20 <__utee_panic>:
__utee_panic():
/home/seungwoo/optee/Linux_for_Tegra/sources/tegra/optee-src/nv-optee/optee/optee_os/lib/libutee/include/utee_syscalls_asm.S:12
    1f20:	d2800048 	mov	x8, #0x2                   	// #2
    1f24:	d4000001 	svc	#0x0
    1f28:	d65f03c0 	ret

0000000000001f2c <_utee_get_property>:
_utee_get_property():
/home/seungwoo/optee/Linux_for_Tegra/sources/tegra/optee-src/nv-optee/optee/optee_os/lib/libutee/include/utee_syscalls_asm.S:14
    1f2c:	d2800068 	mov	x8, #0x3                   	// #3
    1f30:	d4000001 	svc	#0x0
    1f34:	d65f03c0 	ret

0000000000001f38 <_utee_get_property_name_to_index>:
_utee_get_property_name_to_index():
/home/seungwoo/optee/Linux_for_Tegra/sources/tegra/optee-src/nv-optee/optee/optee_os/lib/libutee/include/utee_syscalls_asm.S:16
    1f38:	d2800088 	mov	x8, #0x4                   	// #4
    1f3c:	d4000001 	svc	#0x0
    1f40:	d65f03c0 	ret

0000000000001f44 <_utee_open_ta_session>:
_utee_open_ta_session():
/home/seungwoo/optee/Linux_for_Tegra/sources/tegra/optee-src/nv-optee/optee/optee_os/lib/libutee/include/utee_syscalls_asm.S:19
    1f44:	d28000a8 	mov	x8, #0x5                   	// #5
    1f48:	d4000001 	svc	#0x0
    1f4c:	d65f03c0 	ret

0000000000001f50 <_utee_close_ta_session>:
_utee_close_ta_session():
/home/seungwoo/optee/Linux_for_Tegra/sources/tegra/optee-src/nv-optee/optee/optee_os/lib/libutee/include/utee_syscalls_asm.S:21
    1f50:	d28000c8 	mov	x8, #0x6                   	// #6
    1f54:	d4000001 	svc	#0x0
    1f58:	d65f03c0 	ret

0000000000001f5c <_utee_invoke_ta_command>:
_utee_invoke_ta_command():
/home/seungwoo/optee/Linux_for_Tegra/sources/tegra/optee-src/nv-optee/optee/optee_os/lib/libutee/include/utee_syscalls_asm.S:23
    1f5c:	d28000e8 	mov	x8, #0x7                   	// #7
    1f60:	d4000001 	svc	#0x0
    1f64:	d65f03c0 	ret

0000000000001f68 <_utee_get_cancellation_flag>:
_utee_get_cancellation_flag():
/home/seungwoo/optee/Linux_for_Tegra/sources/tegra/optee-src/nv-optee/optee/optee_os/lib/libutee/include/utee_syscalls_asm.S:25
    1f68:	d2800128 	mov	x8, #0x9                   	// #9
    1f6c:	d4000001 	svc	#0x0
    1f70:	d65f03c0 	ret

0000000000001f74 <_utee_check_access_rights>:
_utee_check_access_rights():
/home/seungwoo/optee/Linux_for_Tegra/sources/tegra/optee-src/nv-optee/optee/optee_os/lib/libutee/include/utee_syscalls_asm.S:28
    1f74:	d2800108 	mov	x8, #0x8                   	// #8
    1f78:	d4000001 	svc	#0x0
    1f7c:	d65f03c0 	ret

0000000000001f80 <_utee_unmask_cancellation>:
_utee_unmask_cancellation():
/home/seungwoo/optee/Linux_for_Tegra/sources/tegra/optee-src/nv-optee/optee/optee_os/lib/libutee/include/utee_syscalls_asm.S:30
    1f80:	d2800148 	mov	x8, #0xa                   	// #10
    1f84:	d4000001 	svc	#0x0
    1f88:	d65f03c0 	ret

0000000000001f8c <_utee_mask_cancellation>:
_utee_mask_cancellation():
/home/seungwoo/optee/Linux_for_Tegra/sources/tegra/optee-src/nv-optee/optee/optee_os/lib/libutee/include/utee_syscalls_asm.S:32
    1f8c:	d2800168 	mov	x8, #0xb                   	// #11
    1f90:	d4000001 	svc	#0x0
    1f94:	d65f03c0 	ret

0000000000001f98 <_utee_wait>:
_utee_wait():
/home/seungwoo/optee/Linux_for_Tegra/sources/tegra/optee-src/nv-optee/optee/optee_os/lib/libutee/include/utee_syscalls_asm.S:34
    1f98:	d2800188 	mov	x8, #0xc                   	// #12
    1f9c:	d4000001 	svc	#0x0
    1fa0:	d65f03c0 	ret

0000000000001fa4 <_utee_get_time>:
_utee_get_time():
/home/seungwoo/optee/Linux_for_Tegra/sources/tegra/optee-src/nv-optee/optee/optee_os/lib/libutee/include/utee_syscalls_asm.S:36
    1fa4:	d28001a8 	mov	x8, #0xd                   	// #13
    1fa8:	d4000001 	svc	#0x0
    1fac:	d65f03c0 	ret

0000000000001fb0 <_utee_set_ta_time>:
_utee_set_ta_time():
/home/seungwoo/optee/Linux_for_Tegra/sources/tegra/optee-src/nv-optee/optee/optee_os/lib/libutee/include/utee_syscalls_asm.S:38
    1fb0:	d28001c8 	mov	x8, #0xe                   	// #14
    1fb4:	d4000001 	svc	#0x0
    1fb8:	d65f03c0 	ret

0000000000001fbc <_utee_cryp_state_alloc>:
_utee_cryp_state_alloc():
/home/seungwoo/optee/Linux_for_Tegra/sources/tegra/optee-src/nv-optee/optee/optee_os/lib/libutee/include/utee_syscalls_asm.S:40
    1fbc:	d28001e8 	mov	x8, #0xf                   	// #15
    1fc0:	d4000001 	svc	#0x0
    1fc4:	d65f03c0 	ret

0000000000001fc8 <_utee_cryp_state_copy>:
_utee_cryp_state_copy():
/home/seungwoo/optee/Linux_for_Tegra/sources/tegra/optee-src/nv-optee/optee/optee_os/lib/libutee/include/utee_syscalls_asm.S:42
    1fc8:	d2800208 	mov	x8, #0x10                  	// #16
    1fcc:	d4000001 	svc	#0x0
    1fd0:	d65f03c0 	ret

0000000000001fd4 <_utee_cryp_state_free>:
_utee_cryp_state_free():
/home/seungwoo/optee/Linux_for_Tegra/sources/tegra/optee-src/nv-optee/optee/optee_os/lib/libutee/include/utee_syscalls_asm.S:44
    1fd4:	d2800228 	mov	x8, #0x11                  	// #17
    1fd8:	d4000001 	svc	#0x0
    1fdc:	d65f03c0 	ret

0000000000001fe0 <_utee_hash_init>:
_utee_hash_init():
/home/seungwoo/optee/Linux_for_Tegra/sources/tegra/optee-src/nv-optee/optee/optee_os/lib/libutee/include/utee_syscalls_asm.S:46
    1fe0:	d2800248 	mov	x8, #0x12                  	// #18
    1fe4:	d4000001 	svc	#0x0
    1fe8:	d65f03c0 	ret

0000000000001fec <_utee_hash_update>:
_utee_hash_update():
/home/seungwoo/optee/Linux_for_Tegra/sources/tegra/optee-src/nv-optee/optee/optee_os/lib/libutee/include/utee_syscalls_asm.S:48
    1fec:	d2800268 	mov	x8, #0x13                  	// #19
    1ff0:	d4000001 	svc	#0x0
    1ff4:	d65f03c0 	ret

0000000000001ff8 <_utee_hash_final>:
_utee_hash_final():
/home/seungwoo/optee/Linux_for_Tegra/sources/tegra/optee-src/nv-optee/optee/optee_os/lib/libutee/include/utee_syscalls_asm.S:50
    1ff8:	d2800288 	mov	x8, #0x14                  	// #20
    1ffc:	d4000001 	svc	#0x0
    2000:	d65f03c0 	ret

0000000000002004 <_utee_cipher_init>:
_utee_cipher_init():
/home/seungwoo/optee/Linux_for_Tegra/sources/tegra/optee-src/nv-optee/optee/optee_os/lib/libutee/include/utee_syscalls_asm.S:52
    2004:	d28002a8 	mov	x8, #0x15                  	// #21
    2008:	d4000001 	svc	#0x0
    200c:	d65f03c0 	ret

0000000000002010 <_utee_cipher_update>:
_utee_cipher_update():
/home/seungwoo/optee/Linux_for_Tegra/sources/tegra/optee-src/nv-optee/optee/optee_os/lib/libutee/include/utee_syscalls_asm.S:54
    2010:	d28002c8 	mov	x8, #0x16                  	// #22
    2014:	d4000001 	svc	#0x0
    2018:	d65f03c0 	ret

000000000000201c <_utee_cipher_final>:
_utee_cipher_final():
/home/seungwoo/optee/Linux_for_Tegra/sources/tegra/optee-src/nv-optee/optee/optee_os/lib/libutee/include/utee_syscalls_asm.S:56
    201c:	d28002e8 	mov	x8, #0x17                  	// #23
    2020:	d4000001 	svc	#0x0
    2024:	d65f03c0 	ret

0000000000002028 <_utee_cryp_obj_get_info>:
_utee_cryp_obj_get_info():
/home/seungwoo/optee/Linux_for_Tegra/sources/tegra/optee-src/nv-optee/optee/optee_os/lib/libutee/include/utee_syscalls_asm.S:58
    2028:	d2800308 	mov	x8, #0x18                  	// #24
    202c:	d4000001 	svc	#0x0
    2030:	d65f03c0 	ret

0000000000002034 <_utee_cryp_obj_restrict_usage>:
_utee_cryp_obj_restrict_usage():
/home/seungwoo/optee/Linux_for_Tegra/sources/tegra/optee-src/nv-optee/optee/optee_os/lib/libutee/include/utee_syscalls_asm.S:60
    2034:	d2800328 	mov	x8, #0x19                  	// #25
    2038:	d4000001 	svc	#0x0
    203c:	d65f03c0 	ret

0000000000002040 <_utee_cryp_obj_get_attr>:
_utee_cryp_obj_get_attr():
/home/seungwoo/optee/Linux_for_Tegra/sources/tegra/optee-src/nv-optee/optee/optee_os/lib/libutee/include/utee_syscalls_asm.S:63
    2040:	d2800348 	mov	x8, #0x1a                  	// #26
    2044:	d4000001 	svc	#0x0
    2048:	d65f03c0 	ret

000000000000204c <_utee_cryp_obj_alloc>:
_utee_cryp_obj_alloc():
/home/seungwoo/optee/Linux_for_Tegra/sources/tegra/optee-src/nv-optee/optee/optee_os/lib/libutee/include/utee_syscalls_asm.S:65
    204c:	d2800368 	mov	x8, #0x1b                  	// #27
    2050:	d4000001 	svc	#0x0
    2054:	d65f03c0 	ret

0000000000002058 <_utee_cryp_obj_close>:
_utee_cryp_obj_close():
/home/seungwoo/optee/Linux_for_Tegra/sources/tegra/optee-src/nv-optee/optee/optee_os/lib/libutee/include/utee_syscalls_asm.S:67
    2058:	d2800388 	mov	x8, #0x1c                  	// #28
    205c:	d4000001 	svc	#0x0
    2060:	d65f03c0 	ret

0000000000002064 <_utee_cryp_obj_reset>:
_utee_cryp_obj_reset():
/home/seungwoo/optee/Linux_for_Tegra/sources/tegra/optee-src/nv-optee/optee/optee_os/lib/libutee/include/utee_syscalls_asm.S:69
    2064:	d28003a8 	mov	x8, #0x1d                  	// #29
    2068:	d4000001 	svc	#0x0
    206c:	d65f03c0 	ret

0000000000002070 <_utee_cryp_obj_populate>:
_utee_cryp_obj_populate():
/home/seungwoo/optee/Linux_for_Tegra/sources/tegra/optee-src/nv-optee/optee/optee_os/lib/libutee/include/utee_syscalls_asm.S:71
    2070:	d28003c8 	mov	x8, #0x1e                  	// #30
    2074:	d4000001 	svc	#0x0
    2078:	d65f03c0 	ret

000000000000207c <_utee_cryp_obj_copy>:
_utee_cryp_obj_copy():
/home/seungwoo/optee/Linux_for_Tegra/sources/tegra/optee-src/nv-optee/optee/optee_os/lib/libutee/include/utee_syscalls_asm.S:73
    207c:	d28003e8 	mov	x8, #0x1f                  	// #31
    2080:	d4000001 	svc	#0x0
    2084:	d65f03c0 	ret

0000000000002088 <_utee_cryp_derive_key>:
_utee_cryp_derive_key():
/home/seungwoo/optee/Linux_for_Tegra/sources/tegra/optee-src/nv-optee/optee/optee_os/lib/libutee/include/utee_syscalls_asm.S:75
    2088:	d2800408 	mov	x8, #0x20                  	// #32
    208c:	d4000001 	svc	#0x0
    2090:	d65f03c0 	ret

0000000000002094 <_utee_cryp_random_number_generate>:
_utee_cryp_random_number_generate():
/home/seungwoo/optee/Linux_for_Tegra/sources/tegra/optee-src/nv-optee/optee/optee_os/lib/libutee/include/utee_syscalls_asm.S:77
    2094:	d2800428 	mov	x8, #0x21                  	// #33
    2098:	d4000001 	svc	#0x0
    209c:	d65f03c0 	ret

00000000000020a0 <_utee_authenc_init>:
_utee_authenc_init():
/home/seungwoo/optee/Linux_for_Tegra/sources/tegra/optee-src/nv-optee/optee/optee_os/lib/libutee/include/utee_syscalls_asm.S:80
    20a0:	d2800448 	mov	x8, #0x22                  	// #34
    20a4:	d4000001 	svc	#0x0
    20a8:	d65f03c0 	ret

00000000000020ac <_utee_authenc_update_aad>:
_utee_authenc_update_aad():
/home/seungwoo/optee/Linux_for_Tegra/sources/tegra/optee-src/nv-optee/optee/optee_os/lib/libutee/include/utee_syscalls_asm.S:82
    20ac:	d2800468 	mov	x8, #0x23                  	// #35
    20b0:	d4000001 	svc	#0x0
    20b4:	d65f03c0 	ret

00000000000020b8 <_utee_authenc_update_payload>:
_utee_authenc_update_payload():
/home/seungwoo/optee/Linux_for_Tegra/sources/tegra/optee-src/nv-optee/optee/optee_os/lib/libutee/include/utee_syscalls_asm.S:84
    20b8:	d2800488 	mov	x8, #0x24                  	// #36
    20bc:	d4000001 	svc	#0x0
    20c0:	d65f03c0 	ret

00000000000020c4 <_utee_authenc_enc_final>:
_utee_authenc_enc_final():
/home/seungwoo/optee/Linux_for_Tegra/sources/tegra/optee-src/nv-optee/optee/optee_os/lib/libutee/include/utee_syscalls_asm.S:87
    20c4:	d28004a8 	mov	x8, #0x25                  	// #37
    20c8:	d4000001 	svc	#0x0
    20cc:	d65f03c0 	ret

00000000000020d0 <_utee_authenc_dec_final>:
_utee_authenc_dec_final():
/home/seungwoo/optee/Linux_for_Tegra/sources/tegra/optee-src/nv-optee/optee/optee_os/lib/libutee/include/utee_syscalls_asm.S:89
    20d0:	d28004c8 	mov	x8, #0x26                  	// #38
    20d4:	d4000001 	svc	#0x0
    20d8:	d65f03c0 	ret

00000000000020dc <_utee_asymm_operate>:
_utee_asymm_operate():
/home/seungwoo/optee/Linux_for_Tegra/sources/tegra/optee-src/nv-optee/optee/optee_os/lib/libutee/include/utee_syscalls_asm.S:91
    20dc:	d28004e8 	mov	x8, #0x27                  	// #39
    20e0:	d4000001 	svc	#0x0
    20e4:	d65f03c0 	ret

00000000000020e8 <_utee_asymm_verify>:
_utee_asymm_verify():
/home/seungwoo/optee/Linux_for_Tegra/sources/tegra/optee-src/nv-optee/optee/optee_os/lib/libutee/include/utee_syscalls_asm.S:93
    20e8:	d2800508 	mov	x8, #0x28                  	// #40
    20ec:	d4000001 	svc	#0x0
    20f0:	d65f03c0 	ret

00000000000020f4 <_utee_storage_obj_open>:
_utee_storage_obj_open():
/home/seungwoo/optee/Linux_for_Tegra/sources/tegra/optee-src/nv-optee/optee/optee_os/lib/libutee/include/utee_syscalls_asm.S:95
    20f4:	d2800528 	mov	x8, #0x29                  	// #41
    20f8:	d4000001 	svc	#0x0
    20fc:	d65f03c0 	ret

0000000000002100 <_utee_storage_obj_create>:
_utee_storage_obj_create():
/home/seungwoo/optee/Linux_for_Tegra/sources/tegra/optee-src/nv-optee/optee/optee_os/lib/libutee/include/utee_syscalls_asm.S:97
    2100:	d2800548 	mov	x8, #0x2a                  	// #42
    2104:	d4000001 	svc	#0x0
    2108:	d65f03c0 	ret

000000000000210c <_utee_storage_obj_del>:
_utee_storage_obj_del():
/home/seungwoo/optee/Linux_for_Tegra/sources/tegra/optee-src/nv-optee/optee/optee_os/lib/libutee/include/utee_syscalls_asm.S:99
    210c:	d2800568 	mov	x8, #0x2b                  	// #43
    2110:	d4000001 	svc	#0x0
    2114:	d65f03c0 	ret

0000000000002118 <_utee_storage_obj_rename>:
_utee_storage_obj_rename():
/home/seungwoo/optee/Linux_for_Tegra/sources/tegra/optee-src/nv-optee/optee/optee_os/lib/libutee/include/utee_syscalls_asm.S:101
    2118:	d2800588 	mov	x8, #0x2c                  	// #44
    211c:	d4000001 	svc	#0x0
    2120:	d65f03c0 	ret

0000000000002124 <_utee_storage_alloc_enum>:
_utee_storage_alloc_enum():
/home/seungwoo/optee/Linux_for_Tegra/sources/tegra/optee-src/nv-optee/optee/optee_os/lib/libutee/include/utee_syscalls_asm.S:103
    2124:	d28005a8 	mov	x8, #0x2d                  	// #45
    2128:	d4000001 	svc	#0x0
    212c:	d65f03c0 	ret

0000000000002130 <_utee_storage_free_enum>:
_utee_storage_free_enum():
/home/seungwoo/optee/Linux_for_Tegra/sources/tegra/optee-src/nv-optee/optee/optee_os/lib/libutee/include/utee_syscalls_asm.S:105
    2130:	d28005c8 	mov	x8, #0x2e                  	// #46
    2134:	d4000001 	svc	#0x0
    2138:	d65f03c0 	ret

000000000000213c <_utee_storage_reset_enum>:
_utee_storage_reset_enum():
/home/seungwoo/optee/Linux_for_Tegra/sources/tegra/optee-src/nv-optee/optee/optee_os/lib/libutee/include/utee_syscalls_asm.S:107
    213c:	d28005e8 	mov	x8, #0x2f                  	// #47
    2140:	d4000001 	svc	#0x0
    2144:	d65f03c0 	ret

0000000000002148 <_utee_storage_start_enum>:
_utee_storage_start_enum():
/home/seungwoo/optee/Linux_for_Tegra/sources/tegra/optee-src/nv-optee/optee/optee_os/lib/libutee/include/utee_syscalls_asm.S:109
    2148:	d2800608 	mov	x8, #0x30                  	// #48
    214c:	d4000001 	svc	#0x0
    2150:	d65f03c0 	ret

0000000000002154 <_utee_storage_next_enum>:
_utee_storage_next_enum():
/home/seungwoo/optee/Linux_for_Tegra/sources/tegra/optee-src/nv-optee/optee/optee_os/lib/libutee/include/utee_syscalls_asm.S:111
    2154:	d2800628 	mov	x8, #0x31                  	// #49
    2158:	d4000001 	svc	#0x0
    215c:	d65f03c0 	ret

0000000000002160 <_utee_storage_obj_read>:
_utee_storage_obj_read():
/home/seungwoo/optee/Linux_for_Tegra/sources/tegra/optee-src/nv-optee/optee/optee_os/lib/libutee/include/utee_syscalls_asm.S:113
    2160:	d2800648 	mov	x8, #0x32                  	// #50
    2164:	d4000001 	svc	#0x0
    2168:	d65f03c0 	ret

000000000000216c <_utee_storage_obj_write>:
_utee_storage_obj_write():
/home/seungwoo/optee/Linux_for_Tegra/sources/tegra/optee-src/nv-optee/optee/optee_os/lib/libutee/include/utee_syscalls_asm.S:115
    216c:	d2800668 	mov	x8, #0x33                  	// #51
    2170:	d4000001 	svc	#0x0
    2174:	d65f03c0 	ret

0000000000002178 <_utee_storage_obj_trunc>:
_utee_storage_obj_trunc():
/home/seungwoo/optee/Linux_for_Tegra/sources/tegra/optee-src/nv-optee/optee/optee_os/lib/libutee/include/utee_syscalls_asm.S:117
    2178:	d2800688 	mov	x8, #0x34                  	// #52
    217c:	d4000001 	svc	#0x0
    2180:	d65f03c0 	ret

0000000000002184 <_utee_storage_obj_seek>:
_utee_storage_obj_seek():
/home/seungwoo/optee/Linux_for_Tegra/sources/tegra/optee-src/nv-optee/optee/optee_os/lib/libutee/include/utee_syscalls_asm.S:119
    2184:	d28006a8 	mov	x8, #0x35                  	// #53
    2188:	d4000001 	svc	#0x0
    218c:	d65f03c0 	ret

0000000000002190 <_utee_cryp_obj_generate_key>:
_utee_cryp_obj_generate_key():
/home/seungwoo/optee/Linux_for_Tegra/sources/tegra/optee-src/nv-optee/optee/optee_os/lib/libutee/include/utee_syscalls_asm.S:121
    2190:	d28006c8 	mov	x8, #0x36                  	// #54
    2194:	d4000001 	svc	#0x0
    2198:	d65f03c0 	ret

000000000000219c <_utee_cache_operation>:
_utee_cache_operation():
/home/seungwoo/optee/Linux_for_Tegra/sources/tegra/optee-src/nv-optee/optee/optee_os/lib/libutee/include/utee_syscalls_asm.S:124
    219c:	d28008c8 	mov	x8, #0x46                  	// #70
    21a0:	d4000001 	svc	#0x0
    21a4:	d65f03c0 	ret

00000000000021a8 <abort>:
abort():
/home/seungwoo/optee/Linux_for_Tegra/sources/tegra/optee-src/nv-optee/optee/optee_os/lib/libutee/abort.c:12
    21a8:	a9bf7bfd 	stp	x29, x30, [sp, #-16]!
/home/seungwoo/optee/Linux_for_Tegra/sources/tegra/optee-src/nv-optee/optee/optee_os/lib/libutee/abort.c:13
    21ac:	b0000060 	adrp	x0, f000 <small_prime+0x44>
    21b0:	9115b400 	add	x0, x0, #0x56d
/home/seungwoo/optee/Linux_for_Tegra/sources/tegra/optee-src/nv-optee/optee/optee_os/lib/libutee/abort.c:12
    21b4:	910003fd 	mov	x29, sp
/home/seungwoo/optee/Linux_for_Tegra/sources/tegra/optee-src/nv-optee/optee/optee_os/lib/libutee/abort.c:13
    21b8:	94000050 	bl	22f8 <puts>
/home/seungwoo/optee/Linux_for_Tegra/sources/tegra/optee-src/nv-optee/optee/optee_os/lib/libutee/abort.c:14
    21bc:	d2800000 	mov	x0, #0x0                   	// #0
    21c0:	97ffff4f 	bl	1efc <_utee_panic>
/home/seungwoo/optee/Linux_for_Tegra/sources/tegra/optee-src/nv-optee/optee/optee_os/lib/libutee/abort.c:16 (discriminator 1)
    21c4:	14000000 	b	21c4 <abort+0x1c>

00000000000021c8 <trace_ext_puts>:
trace_ext_puts():
/home/seungwoo/optee/Linux_for_Tegra/sources/tegra/optee-src/nv-optee/optee/optee_os/lib/libutee/trace_ext.c:22
    21c8:	a9be7bfd 	stp	x29, x30, [sp, #-32]!
    21cc:	910003fd 	mov	x29, sp
    21d0:	f9000bf3 	str	x19, [sp, #16]
    21d4:	aa0003f3 	mov	x19, x0
/home/seungwoo/optee/Linux_for_Tegra/sources/tegra/optee-src/nv-optee/optee/optee_os/lib/libutee/trace_ext.c:26
    21d8:	94002435 	bl	b2ac <strlen>
    21dc:	aa0003e1 	mov	x1, x0
    21e0:	aa1303e0 	mov	x0, x19
/home/seungwoo/optee/Linux_for_Tegra/sources/tegra/optee-src/nv-optee/optee/optee_os/lib/libutee/trace_ext.c:28
    21e4:	f9400bf3 	ldr	x19, [sp, #16]
    21e8:	a8c27bfd 	ldp	x29, x30, [sp], #32
/home/seungwoo/optee/Linux_for_Tegra/sources/tegra/optee-src/nv-optee/optee/optee_os/lib/libutee/trace_ext.c:26
    21ec:	17ffff4a 	b	1f14 <_utee_log>

00000000000021f0 <trace_ext_get_thread_id>:
trace_ext_get_thread_id():
/home/seungwoo/optee/Linux_for_Tegra/sources/tegra/optee-src/nv-optee/optee/optee_os/lib/libutee/trace_ext.c:33
    21f0:	12800000 	mov	w0, #0xffffffff            	// #-1
    21f4:	d65f03c0 	ret

00000000000021f8 <printf>:
printf():
/home/seungwoo/optee/Linux_for_Tegra/sources/tegra/optee-src/nv-optee/optee/optee_os/lib/libutee/trace_ext.c:41
    21f8:	d108c3ff 	sub	sp, sp, #0x230
    21fc:	a9007bfd 	stp	x29, x30, [sp]
    2200:	910003fd 	mov	x29, sp
    2204:	a90153f3 	stp	x19, x20, [sp, #16]
    2208:	aa0003f3 	mov	x19, x0
    220c:	910823e0 	add	x0, sp, #0x208
    2210:	a91f8be1 	stp	x1, x2, [sp, #504]
    2214:	f0000061 	adrp	x1, 11000 <_DYNAMIC>
    2218:	3d805fe0 	str	q0, [sp, #368]
    221c:	3d8063e1 	str	q1, [sp, #384]
    2220:	3d8067e2 	str	q2, [sp, #400]
    2224:	3d806be3 	str	q3, [sp, #416]
    2228:	3d806fe4 	str	q4, [sp, #432]
    222c:	3d8073e5 	str	q5, [sp, #448]
    2230:	3d8077e6 	str	q6, [sp, #464]
    2234:	3d807be7 	str	q7, [sp, #480]
    2238:	f9409821 	ldr	x1, [x1, #304]
    223c:	a9001003 	stp	x3, x4, [x0]
    2240:	a9011805 	stp	x5, x6, [x0, #16]
    2244:	f90117e7 	str	x7, [sp, #552]
    2248:	f9400020 	ldr	x0, [x1]
    224c:	f900b7e0 	str	x0, [sp, #360]
    2250:	d2800000 	mov	x0, #0x0                   	// #0
/home/seungwoo/optee/Linux_for_Tegra/sources/tegra/optee-src/nv-optee/optee/optee_os/lib/libutee/trace_ext.c:46
    2254:	940027be 	bl	c14c <trace_get_level>
    2258:	7100001f 	cmp	w0, #0x0
    225c:	5400040d 	b.le	22dc <printf+0xe4>
/home/seungwoo/optee/Linux_for_Tegra/sources/tegra/optee-src/nv-optee/optee/optee_os/lib/libutee/trace_ext.c:49
    2260:	9108c3e0 	add	x0, sp, #0x230
/home/seungwoo/optee/Linux_for_Tegra/sources/tegra/optee-src/nv-optee/optee/optee_os/lib/libutee/trace_ext.c:50
    2264:	910083e3 	add	x3, sp, #0x20
/home/seungwoo/optee/Linux_for_Tegra/sources/tegra/optee-src/nv-optee/optee/optee_os/lib/libutee/trace_ext.c:49
    2268:	a90483e0 	stp	x0, x0, [sp, #72]
    226c:	9107c3e0 	add	x0, sp, #0x1f0
/home/seungwoo/optee/Linux_for_Tegra/sources/tegra/optee-src/nv-optee/optee/optee_os/lib/libutee/trace_ext.c:50
    2270:	910123e1 	add	x1, sp, #0x48
/home/seungwoo/optee/Linux_for_Tegra/sources/tegra/optee-src/nv-optee/optee/optee_os/lib/libutee/trace_ext.c:49
    2274:	f9002fe0 	str	x0, [sp, #88]
    2278:	128006e0 	mov	w0, #0xffffffc8            	// #-56
    227c:	b90063e0 	str	w0, [sp, #96]
    2280:	12800fe0 	mov	w0, #0xffffff80            	// #-128
/home/seungwoo/optee/Linux_for_Tegra/sources/tegra/optee-src/nv-optee/optee/optee_os/lib/libutee/trace_ext.c:50
    2284:	d2800402 	mov	x2, #0x20                  	// #32
    2288:	9101a3f4 	add	x20, sp, #0x68
/home/seungwoo/optee/Linux_for_Tegra/sources/tegra/optee-src/nv-optee/optee/optee_os/lib/libutee/trace_ext.c:49
    228c:	b90067e0 	str	w0, [sp, #100]
/home/seungwoo/optee/Linux_for_Tegra/sources/tegra/optee-src/nv-optee/optee/optee_os/lib/libutee/trace_ext.c:50
    2290:	aa0303e0 	mov	x0, x3
    2294:	97fff763 	bl	20 <memcpy>
    2298:	aa0003e3 	mov	x3, x0
    229c:	aa1303e2 	mov	x2, x19
    22a0:	aa1403e0 	mov	x0, x20
    22a4:	d2802001 	mov	x1, #0x100                 	// #256
    22a8:	940023b8 	bl	b188 <vsnprintf>
    22ac:	2a0003f3 	mov	w19, w0
/home/seungwoo/optee/Linux_for_Tegra/sources/tegra/optee-src/nv-optee/optee/optee_os/lib/libutee/trace_ext.c:53
    22b0:	37f80060 	tbnz	w0, #31, 22bc <printf+0xc4>
/home/seungwoo/optee/Linux_for_Tegra/sources/tegra/optee-src/nv-optee/optee/optee_os/lib/libutee/trace_ext.c:56
    22b4:	aa1403e0 	mov	x0, x20
    22b8:	97ffffc4 	bl	21c8 <trace_ext_puts>
/home/seungwoo/optee/Linux_for_Tegra/sources/tegra/optee-src/nv-optee/optee/optee_os/lib/libutee/trace_ext.c:59
    22bc:	f0000061 	adrp	x1, 11000 <_DYNAMIC>
    22c0:	f9409821 	ldr	x1, [x1, #304]
    22c4:	f940b7e0 	ldr	x0, [sp, #360]
    22c8:	f9400022 	ldr	x2, [x1]
    22cc:	eb020000 	subs	x0, x0, x2
    22d0:	d2800002 	mov	x2, #0x0                   	// #0
    22d4:	54000080 	b.eq	22e4 <printf+0xec>  // b.none
    22d8:	940023c2 	bl	b1e0 <__stack_chk_fail>
/home/seungwoo/optee/Linux_for_Tegra/sources/tegra/optee-src/nv-optee/optee/optee_os/lib/libutee/trace_ext.c:47
    22dc:	52800013 	mov	w19, #0x0                   	// #0
    22e0:	17fffff7 	b	22bc <printf+0xc4>
/home/seungwoo/optee/Linux_for_Tegra/sources/tegra/optee-src/nv-optee/optee/optee_os/lib/libutee/trace_ext.c:59
    22e4:	2a1303e0 	mov	w0, w19
    22e8:	a9407bfd 	ldp	x29, x30, [sp]
    22ec:	a94153f3 	ldp	x19, x20, [sp, #16]
    22f0:	9108c3ff 	add	sp, sp, #0x230
    22f4:	d65f03c0 	ret

00000000000022f8 <puts>:
puts():
/home/seungwoo/optee/Linux_for_Tegra/sources/tegra/optee-src/nv-optee/optee/optee_os/lib/libutee/trace_ext.c:62
    22f8:	a9be7bfd 	stp	x29, x30, [sp, #-32]!
    22fc:	910003fd 	mov	x29, sp
    2300:	f9000bf3 	str	x19, [sp, #16]
    2304:	aa0003f3 	mov	x19, x0
/home/seungwoo/optee/Linux_for_Tegra/sources/tegra/optee-src/nv-optee/optee/optee_os/lib/libutee/trace_ext.c:63
    2308:	94002791 	bl	c14c <trace_get_level>
    230c:	7100001f 	cmp	w0, #0x0
    2310:	540000cd 	b.le	2328 <puts+0x30>
/home/seungwoo/optee/Linux_for_Tegra/sources/tegra/optee-src/nv-optee/optee/optee_os/lib/libutee/trace_ext.c:64
    2314:	aa1303e0 	mov	x0, x19
    2318:	97ffffac 	bl	21c8 <trace_ext_puts>
/home/seungwoo/optee/Linux_for_Tegra/sources/tegra/optee-src/nv-optee/optee/optee_os/lib/libutee/trace_ext.c:65
    231c:	b0000060 	adrp	x0, f000 <small_prime+0x44>
    2320:	9134d800 	add	x0, x0, #0xd36
    2324:	97ffffa9 	bl	21c8 <trace_ext_puts>
/home/seungwoo/optee/Linux_for_Tegra/sources/tegra/optee-src/nv-optee/optee/optee_os/lib/libutee/trace_ext.c:68
    2328:	52800020 	mov	w0, #0x1                   	// #1
    232c:	f9400bf3 	ldr	x19, [sp, #16]
    2330:	a8c27bfd 	ldp	x29, x30, [sp], #32
    2334:	d65f03c0 	ret

0000000000002338 <putchar>:
putchar():
/home/seungwoo/optee/Linux_for_Tegra/sources/tegra/optee-src/nv-optee/optee/optee_os/lib/libutee/trace_ext.c:71
    2338:	a9bd7bfd 	stp	x29, x30, [sp, #-48]!
    233c:	f0000061 	adrp	x1, 11000 <_DYNAMIC>
    2340:	910003fd 	mov	x29, sp
    2344:	f9409821 	ldr	x1, [x1, #304]
    2348:	f9000bf3 	str	x19, [sp, #16]
    234c:	2a0003f3 	mov	w19, w0
/home/seungwoo/optee/Linux_for_Tegra/sources/tegra/optee-src/nv-optee/optee/optee_os/lib/libutee/trace_ext.c:72
    2350:	390083f3 	strb	w19, [sp, #32]
/home/seungwoo/optee/Linux_for_Tegra/sources/tegra/optee-src/nv-optee/optee/optee_os/lib/libutee/trace_ext.c:71
    2354:	f9400020 	ldr	x0, [x1]
    2358:	f90017e0 	str	x0, [sp, #40]
    235c:	d2800000 	mov	x0, #0x0                   	// #0
/home/seungwoo/optee/Linux_for_Tegra/sources/tegra/optee-src/nv-optee/optee/optee_os/lib/libutee/trace_ext.c:72
    2360:	390087ff 	strb	wzr, [sp, #33]
/home/seungwoo/optee/Linux_for_Tegra/sources/tegra/optee-src/nv-optee/optee/optee_os/lib/libutee/trace_ext.c:74
    2364:	9400277a 	bl	c14c <trace_get_level>
    2368:	7100001f 	cmp	w0, #0x0
    236c:	5400006d 	b.le	2378 <putchar+0x40>
/home/seungwoo/optee/Linux_for_Tegra/sources/tegra/optee-src/nv-optee/optee/optee_os/lib/libutee/trace_ext.c:75
    2370:	910083e0 	add	x0, sp, #0x20
    2374:	97ffff95 	bl	21c8 <trace_ext_puts>
/home/seungwoo/optee/Linux_for_Tegra/sources/tegra/optee-src/nv-optee/optee/optee_os/lib/libutee/trace_ext.c:82
    2378:	f0000061 	adrp	x1, 11000 <_DYNAMIC>
/home/seungwoo/optee/Linux_for_Tegra/sources/tegra/optee-src/nv-optee/optee/optee_os/lib/libutee/trace_ext.c:81
    237c:	12001e60 	and	w0, w19, #0xff
/home/seungwoo/optee/Linux_for_Tegra/sources/tegra/optee-src/nv-optee/optee/optee_os/lib/libutee/trace_ext.c:82
    2380:	f9409821 	ldr	x1, [x1, #304]
    2384:	f94017e2 	ldr	x2, [sp, #40]
