
/home/avees/optee_local_build/Linux_for_Tegra/sources/tegra/optee-src/nv-optee/optee/cp4ad-optee/T5.optee_crypto/build/ta/T5.optee_crypto/e4a86432-409d-4542-a53e-e2ce9d6577d3.elf:     file format elf64-littleaarch64
/home/avees/optee_local_build/Linux_for_Tegra/sources/tegra/optee-src/nv-optee/optee/cp4ad-optee/T5.optee_crypto/build/ta/T5.optee_crypto/e4a86432-409d-4542-a53e-e2ce9d6577d3.elf
architecture: aarch64, flags 0x00000150:
HAS_SYMS, DYNAMIC, D_PAGED
start address 0x00000000000004b8

Program Header:
    LOAD off    0x0000000000001000 vaddr 0x0000000000000000 paddr 0x0000000000000000 align 2**12
         filesz 0x0000000000022c30 memsz 0x0000000000022c30 flags r-x
    LOAD off    0x0000000000024000 vaddr 0x0000000000023000 paddr 0x0000000000023000 align 2**12
         filesz 0x0000000000000584 memsz 0x000000000000e860 flags rw-
 DYNAMIC off    0x0000000000024000 vaddr 0x0000000000023000 paddr 0x0000000000023000 align 2**3
         filesz 0x0000000000000110 memsz 0x0000000000000110 flags rw-
   STACK off    0x0000000000000000 vaddr 0x0000000000000000 paddr 0x0000000000000000 align 2**4
         filesz 0x0000000000000000 memsz 0x0000000000000000 flags rw-

Dynamic Section:
  HASH                 0x00000000000228a0
  GNU_HASH             0x00000000000227b0
  STRTAB               0x0000000000022870
  SYMTAB               0x00000000000227e0
  STRSZ                0x000000000000002e
  SYMENT               0x0000000000000018
  DEBUG                0x0000000000000000
  RELA                 0x00000000000228d0
  RELASZ               0x0000000000000540
  RELAENT              0x0000000000000018
  FLAGS_1              0x0000000008000000
  RELACOUNT            0x0000000000000024
private flags = 0:

Sections:
Idx Name          Size      VMA               LMA               File off  Algn
  0 .ta_head      00000020  0000000000000000  0000000000000000  00001000  2**3
                  CONTENTS, ALLOC, LOAD, READONLY, DATA
  1 .text         0001dbdc  0000000000000020  0000000000000020  00001020  2**2
                  CONTENTS, ALLOC, LOAD, READONLY, CODE
  2 .eh_frame     00003180  000000000001dc00  000000000001dc00  0001ec00  2**3
                  CONTENTS, ALLOC, LOAD, READONLY, DATA
  3 .rodata       00001a2e  0000000000020d80  0000000000020d80  00021d80  2**3
                  CONTENTS, ALLOC, LOAD, READONLY, DATA
  4 .gnu.hash     00000030  00000000000227b0  00000000000227b0  000237b0  2**3
                  CONTENTS, ALLOC, LOAD, READONLY, DATA
  5 .dynsym       00000090  00000000000227e0  00000000000227e0  000237e0  2**3
                  CONTENTS, ALLOC, LOAD, READONLY, DATA
  6 .dynstr       0000002e  0000000000022870  0000000000022870  00023870  2**0
                  CONTENTS, ALLOC, LOAD, READONLY, DATA
  7 .hash         0000002c  00000000000228a0  00000000000228a0  000238a0  2**3
                  CONTENTS, ALLOC, LOAD, READONLY, DATA
  8 .rela.dyn     00000360  00000000000228d0  00000000000228d0  000238d0  2**3
                  CONTENTS, ALLOC, LOAD, READONLY, DATA
  9 .dynamic      00000110  0000000000023000  0000000000023000  00024000  2**3
                  CONTENTS, ALLOC, LOAD, DATA
 10 .got          000000c0  0000000000023110  0000000000023110  00024110  2**3
                  CONTENTS, ALLOC, LOAD, DATA
 11 .rela.got     000001e0  00000000000231d0  00000000000231d0  000241d0  2**3
                  CONTENTS, ALLOC, LOAD, READONLY, DATA
 12 .data         000001d4  00000000000233b0  00000000000233b0  000243b0  2**3
                  CONTENTS, ALLOC, LOAD, DATA
 13 .bss          0000e2d8  0000000000023588  0000000000023588  00024584  2**3
                  ALLOC
 14 .debug_info   00010b2b  0000000000000000  0000000000000000  00024584  2**0
                  CONTENTS, READONLY, DEBUGGING, OCTETS
 15 .debug_abbrev 00002fed  0000000000000000  0000000000000000  000350af  2**0
                  CONTENTS, READONLY, DEBUGGING, OCTETS
 16 .debug_aranges 000009e0  0000000000000000  0000000000000000  000380a0  2**4
                  CONTENTS, READONLY, DEBUGGING, OCTETS
 17 .debug_macro  00019970  0000000000000000  0000000000000000  00038a80  2**0
                  CONTENTS, READONLY, DEBUGGING, OCTETS
 18 .debug_line   0000c594  0000000000000000  0000000000000000  000523f0  2**0
                  CONTENTS, READONLY, DEBUGGING, OCTETS
 19 .debug_str    0001bb78  0000000000000000  0000000000000000  0005e984  2**0
                  CONTENTS, READONLY, DEBUGGING, OCTETS
 20 .comment      0000002b  0000000000000000  0000000000000000  0007a4fc  2**0
                  CONTENTS, READONLY
 21 .debug_ranges 000003e0  0000000000000000  0000000000000000  0007a530  2**4
                  CONTENTS, READONLY, DEBUGGING, OCTETS
SYMBOL TABLE:
0000000000000000 l    d  .ta_head	0000000000000000 .ta_head
0000000000000020 l    d  .text	0000000000000000 .text
000000000001dc00 l    d  .eh_frame	0000000000000000 .eh_frame
0000000000020d80 l    d  .rodata	0000000000000000 .rodata
00000000000227b0 l    d  .gnu.hash	0000000000000000 .gnu.hash
00000000000227e0 l    d  .dynsym	0000000000000000 .dynsym
0000000000022870 l    d  .dynstr	0000000000000000 .dynstr
00000000000228a0 l    d  .hash	0000000000000000 .hash
00000000000228d0 l    d  .rela.dyn	0000000000000000 .rela.dyn
0000000000023000 l    d  .dynamic	0000000000000000 .dynamic
0000000000023110 l    d  .got	0000000000000000 .got
00000000000231d0 l    d  .rela.got	0000000000000000 .rela.got
00000000000233b0 l    d  .data	0000000000000000 .data
0000000000023588 l    d  .bss	0000000000000000 .bss
0000000000000000 l    d  .debug_info	0000000000000000 .debug_info
0000000000000000 l    d  .debug_abbrev	0000000000000000 .debug_abbrev
0000000000000000 l    d  .debug_aranges	0000000000000000 .debug_aranges
0000000000000000 l    d  .debug_macro	0000000000000000 .debug_macro
0000000000000000 l    d  .debug_line	0000000000000000 .debug_line
0000000000000000 l    d  .debug_str	0000000000000000 .debug_str
0000000000000000 l    d  .comment	0000000000000000 .comment
0000000000000000 l    d  .debug_ranges	0000000000000000 .debug_ranges
0000000000000000 l    df *ABS*	0000000000000000 user_ta_header.c
0000000000020eb8 l     O .rodata	0000000000000001 __compound_literal.0
0000000000020eb9 l     O .rodata	0000000000000001 __compound_literal.1
0000000000020eba l     O .rodata	0000000000000001 __compound_literal.2
0000000000020ebc l     O .rodata	0000000000000004 __compound_literal.3
0000000000020ec0 l     O .rodata	0000000000000004 __compound_literal.4
0000000000020ec4 l     O .rodata	0000000000000004 __compound_literal.5
0000000000020ec8 l     O .rodata	0000000000000001 __compound_literal.6
0000000000020ecc l     O .rodata	0000000000000004 __compound_literal.7
0000000000031858 l     O .bss	0000000000000001 stack_canary_inited.5015
0000000000000000 l    df *ABS*	0000000000000000 ta_optee_crypto.c
00000000000233b0 l     O .data	0000000000000008 key_id
0000000000020e10 l     O .rodata	0000000000000014 __func__.4992
0000000000020e28 l     O .rodata	0000000000000015 __func__.4996
0000000000020e40 l     O .rodata	0000000000000019 __func__.5002
0000000000020e60 l     O .rodata	000000000000001a __func__.5006
0000000000020e80 l     O .rodata	000000000000000d __func__.5013
0000000000020e90 l     O .rodata	000000000000000d __func__.5021
0000000000000000 l    df *ABS*	0000000000000000 stack_check.c
0000000000000000 l    df *ABS*	0000000000000000 strlen.c
0000000000000000 l    df *ABS*	0000000000000000 trace.c
000000000000067c l     F .text	0000000000000064 trace_level_to_string
00000000000210e0 l     O .rodata	0000000000000005 lvl_strs.3647
00000000000006e0 l     F .text	0000000000000074 print_thread_id
0000000000000754 l     F .text	0000000000000018 print_core_id
0000000000000bdc l     F .text	00000000000001a0 append
00000000000210e8 l     O .rodata	000000000000000a __func__.3709
0000000000000000 l    df *ABS*	0000000000000000 snprintk.c
00000000000210f8 l     O .rodata	0000000000000011 hexdigits
0000000000021110 l     O .rodata	0000000000000011 HEXDIGITS
0000000000001340 l     F .text	0000000000001c64 kprintf
000000000000125c l     F .text	00000000000000e4 uuid2str
0000000000000000 l    df *ABS*	0000000000000000 memchr.c
0000000000000000 l    df *ABS*	0000000000000000 trace_ext.c
0000000000000000 l    df *ABS*	0000000000000000 tee_api_objects.c
0000000000000000 l    df *ABS*	0000000000000000 tee_api_panic.c
0000000000005fc4 l     F .text	0000000000000058 check_res
0000000000021378 l     O .rodata	000000000000000a __func__.4914
000000000000601c l     F .text	0000000000000054 check_access
0000000000000000 l    df *ABS*	0000000000000000 user_ta_entry.c
0000000000006364 l     F .text	0000000000000014 memtag_init_ops
0000000000006378 l     F .text	0000000000000008 __utee_gprof_init
0000000000006380 l     F .text	0000000000000008 __utee_gprof_fini
00000000000234c8 l     O .data	0000000000000010 ta_sessions
000000000002b588 l     O .bss	0000000000000001 init_done
00000000000234d8 l     O .data	0000000000000010 __phdr_info_head
000000000002b590 l     O .bss	0000000000000008 _num_mod_init
0000000000006388 l     F .text	00000000000000e0 _init_iterate_phdr_cb
00000000000213e0 l     O .rodata	0000000000000016 __func__.5424
0000000000006468 l     F .text	000000000000019c _get_fn_array
0000000000006800 l     F .text	00000000000000d0 _fini_iterate_phdr_cb
00000000000068f4 l     F .text	0000000000000084 get_memtag_implementation
0000000000006978 l     F .text	00000000000000cc init_instance
0000000000006a44 l     F .text	0000000000000020 uninit_instance
0000000000006a64 l     F .text	0000000000000064 ta_header_save_params
0000000000006ac8 l     F .text	000000000000005c ta_header_get_session
0000000000006b24 l     F .text	00000000000000fc ta_header_add_session
0000000000006c20 l     F .text	0000000000000130 ta_header_remove_session
0000000000006d50 l     F .text	000000000000018c to_utee_params
0000000000006edc l     F .text	0000000000000140 from_utee_params
000000000000701c l     F .text	0000000000000104 entry_open_session
0000000000007120 l     F .text	000000000000004c entry_close_session
000000000000716c l     F .text	00000000000000dc entry_invoke_command
0000000000000000 l    df *ABS*	0000000000000000 utee_syscalls_a64.o
0000000000000000 l    df *ABS*	0000000000000000 abort.c
0000000000000000 l    df *ABS*	0000000000000000 tee_api.c
000000000002b600 l     O .bss	0000000000000008 tee_api_instance_data
00000000000075c0 l     F .text	0000000000000148 copy_param
0000000000007708 l     F .text	000000000000014c copy_gp11_param
0000000000007854 l     F .text	000000000000035c map_tmp_param
0000000000007bb0 l     F .text	00000000000001a0 update_out_param
0000000000007d50 l     F .text	00000000000001a4 update_out_gp11_param
0000000000007ef4 l     F .text	00000000000000a0 bufs_intersect
0000000000007f94 l     F .text	0000000000000114 check_mem_access_rights_params
00000000000080a8 l     F .text	0000000000000064 buf_overlaps_no_share_heap
000000000000810c l     F .text	0000000000000114 check_invoke_param
0000000000021420 l     O .rodata	000000000000000b __func__.5460
0000000000009084 l     F .text	0000000000000024 addr_is_in_no_share_heap
0000000000000000 l    df *ABS*	0000000000000000 tee_api_arith_mpi.c
00000000000092b8 l     F .text	000000000000003c api_panic
00000000000092f4 l     F .text	000000000000003c mpi_panic
000000000002b608 l     O .bss	0000000000004000 data.5267
0000000000021518 l     O .rodata	0000000000000012 __func__.5268
0000000000009394 l     F .text	00000000000000dc copy_mpi_to_bigint
0000000000009470 l     F .text	00000000000000fc get_mpi
0000000000021530 l     O .rodata	0000000000000008 __func__.5301
0000000000021538 l     O .rodata	000000000000000f __func__.5307
0000000000021548 l     O .rodata	000000000000001f __func__.5335
0000000000021568 l     O .rodata	0000000000000019 __func__.5349
0000000000021588 l     O .rodata	0000000000000015 __func__.5380
000000000000a0a0 l     F .text	0000000000000180 bigint_binary
00000000000215a0 l     O .rodata	000000000000000e __func__.5439
000000000000a220 l     F .text	000000000000020c bigint_binary_mod
00000000000215b0 l     O .rodata	0000000000000012 __func__.5458
00000000000215c8 l     O .rodata	000000000000000e __func__.5479
00000000000215d8 l     O .rodata	000000000000000e __func__.5508
00000000000215e8 l     O .rodata	000000000000000e __func__.5516
00000000000215f8 l     O .rodata	0000000000000011 __func__.5549
0000000000021610 l     O .rodata	0000000000000018 __func__.5562
000000000000ace8 l     F .text	000000000000002c mpi_is_odd
000000000000ad14 l     F .text	000000000000003c mpi_is_even
0000000000021628 l     O .rodata	0000000000000011 __func__.5583
000000000000af7c l     F .text	0000000000000824 mpi_egcd
0000000000021640 l     O .rodata	0000000000000009 __func__.5603
0000000000021650 l     O .rodata	000000000000001d __func__.5660
000000000000bad0 l     F .text	000000000000003c rng_read
0000000000021670 l     O .rodata	0000000000000019 __func__.5733
0000000000021690 l     O .rodata	0000000000000015 __func__.5748
0000000000000000 l    df *ABS*	0000000000000000 tee_api_property.c
00000000000216a8 l     O .rodata	0000000000000004 __compound_literal.0
00000000000216ac l     O .rodata	0000000000000004 __compound_literal.1
00000000000216b0 l     O .rodata	0000000000000004 __compound_literal.2
00000000000216b4 l     O .rodata	0000000000000004 __compound_literal.3
000000000000bf40 l     F .text	00000000000000b0 propset_get
000000000000bff0 l     F .text	0000000000000254 propget_get_ext_prop
000000000000c244 l     F .text	0000000000000054 is_propset_pseudo_handle
000000000000c298 l     F .text	00000000000002ac propget_get_property
0000000000000000 l    df *ABS*	0000000000000000 tee_system_pta.c
000000000000d558 l     F .text	0000000000000024 reg_pair_to_64
000000000000d57c l     F .text	0000000000000040 reg_pair_from_64
000000000000d5bc l     F .text	0000000000000090 invoke_system_pta
000000000002f608 l     O .bss	0000000000000008 sess.4676
00000000000217b8 l     O .rodata	0000000000000010 uuid.4677
00000000000217c8 l     O .rodata	000000000000000a __func__.4697
00000000000217d8 l     O .rodata	0000000000000017 __func__.4709
0000000000000000 l    df *ABS*	0000000000000000 tcb.c
000000000000d9c0 l     F .text	0000000000000024 write_tpidr_el0
000000000000d9e4 l     F .text	0000000000000030 _assert_trap
000000000002f610 l     O .bss	0000000000000008 _tcb
000000000002f618 l     O .bss	0000000000000008 _tls_size
0000000000021890 l     O .rodata	0000000000000010 __func__.4134
00000000000218a0 l     O .rodata	0000000000000010 __func__.4161
0000000000000000 l    df *ABS*	0000000000000000 assert.c
0000000000000000 l    df *ABS*	0000000000000000 base64.c
00000000000218d8 l     O .rodata	0000000000000041 base64_table
000000000000e2d4 l     F .text	0000000000000084 get_idx
0000000000000000 l    df *ABS*	0000000000000000 aes.c
000000000002f620 l     O .bss	0000000000000100 FSb
000000000002f720 l     O .bss	0000000000000400 FT0
000000000002fb20 l     O .bss	0000000000000400 FT1
000000000002ff20 l     O .bss	0000000000000400 FT2
0000000000030320 l     O .bss	0000000000000400 FT3
0000000000030720 l     O .bss	0000000000000100 RSb
0000000000030820 l     O .bss	0000000000000400 RT0
0000000000030c20 l     O .bss	0000000000000400 RT1
0000000000031020 l     O .bss	0000000000000400 RT2
0000000000031420 l     O .bss	0000000000000400 RT3
0000000000031820 l     O .bss	0000000000000028 RCON
0000000000031848 l     O .bss	0000000000000004 aes_init_done
000000000000e674 l     F .text	0000000000000674 aes_gen_tables
0000000000021920 l     O .rodata	0000000000000030 aes_test_ecb_dec
0000000000021950 l     O .rodata	0000000000000030 aes_test_ecb_enc
0000000000021980 l     O .rodata	0000000000000030 aes_test_cbc_dec
00000000000219b0 l     O .rodata	0000000000000030 aes_test_cbc_enc
00000000000219e0 l     O .rodata	0000000000000030 aes_test_ctr_key
0000000000021a10 l     O .rodata	0000000000000030 aes_test_ctr_nonce_counter
0000000000021a40 l     O .rodata	0000000000000090 aes_test_ctr_pt
0000000000021ad0 l     O .rodata	0000000000000090 aes_test_ctr_ct
0000000000021b60 l     O .rodata	000000000000000c aes_test_ctr_len
0000000000000000 l    df *ABS*	0000000000000000 bignum.c
0000000000011fc4 l     F .text	0000000000000030 mbedtls_mpi_zeroize
0000000000011ff4 l     F .text	0000000000000040 mpi_init
00000000000124b4 l     F .text	0000000000000090 mbedtls_mpi_resize_clear
0000000000012a38 l     F .text	0000000000000064 mbedtls_clz
0000000000012b7c l     F .text	00000000000000c8 mpi_get_digit
0000000000012f98 l     F .text	0000000000000190 mpi_write_hlp
0000000000013458 l     F .text	0000000000000070 mpi_uint_bigendian_to_host_c
00000000000134c8 l     F .text	000000000000001c mpi_uint_bigendian_to_host
00000000000134e4 l     F .text	00000000000000ac mpi_bigendian_to_host
0000000000014584 l     F .text	00000000000000f4 mpi_sub_hlp
0000000000014c64 l     F .text	000000000000139c mpi_mul_hlp
00000000000163e4 l     F .text	00000000000000d0 mbedtls_int_div_int
0000000000017078 l     F .text	00000000000000a0 mpi_montg_init
0000000000017140 l     F .text	000000000000021c mpi_montmul
000000000001739c l     F .text	000000000000009c mpi_montred
0000000000017470 l     F .text	00000000000000b0 mpi_select
0000000000018290 l     F .text	000000000000011c mpi_fill_random_internal
0000000000021bf8 l     O .rodata	00000000000002a0 small_prime
0000000000018cd4 l     F .text	000000000000011c mpi_check_small_factors
0000000000018df0 l     F .text	0000000000000390 mpi_miller_rabin
0000000000021e98 l     O .rodata	0000000000000024 gcd_pairs
0000000000000000 l    df *ABS*	0000000000000000 constant_time.c
0000000000019edc l     F .text	0000000000000060 mbedtls_ct_uchar_mask_of_range
0000000000019f88 l     F .text	0000000000000024 mbedtls_ct_size_gt
000000000001a05c l     F .text	0000000000000068 mbedtls_ct_cond_select_sign
000000000001a3d8 l     F .text	000000000000013c mbedtls_ct_mem_move_to_left
0000000000000000 l    df *ABS*	0000000000000000 platform_util.c
0000000000023548 l     O .data	0000000000000008 memset_func
0000000000000000 l    df *ABS*	0000000000000000 bget_malloc.c
000000000001ae0c l     F .text	0000000000000030 _assert_trap
000000000001ae3c l     F .text	000000000000002c memset_unchecked
000000000001ae68 l     F .text	000000000000002c memcpy_unchecked
000000000001ae94 l     F .text	00000000000000cc buf_get_pos
0000000000022680 l     O .rodata	0000000000000005 __func__.3942
0000000000022688 l     O .rodata	0000000000000006 __func__.3962
0000000000022690 l     O .rodata	0000000000000006 __func__.3973
0000000000022698 l     O .rodata	0000000000000005 __func__.3983
00000000000226a0 l     O .rodata	0000000000000006 __func__.3992
000000000001bc0c l     F .text	0000000000000014 malloc_lock
000000000001bc20 l     F .text	0000000000000018 malloc_unlock
0000000000023550 l     O .data	0000000000000030 malloc_ctx
000000000001bc38 l     F .text	0000000000000018 print_oom
000000000001bc50 l     F .text	000000000000006c bget_buf_size
00000000000226a8 l     O .rodata	000000000000000e __func__.4016
000000000001bcbc l     F .text	0000000000000034 maybe_tag_buf
000000000001bcf0 l     F .text	0000000000000028 maybe_untag_buf
000000000001bd18 l     F .text	0000000000000014 strip_tag
000000000001bd2c l     F .text	0000000000000018 tag_asan_free
000000000001bd44 l     F .text	000000000000006c raw_malloc_return_hook
000000000001bdb0 l     F .text	0000000000000014 raw_malloc_validate_pools
000000000001bdc4 l     F .text	0000000000000034 bpool_foreach_iterator_init
000000000001bdf8 l     F .text	0000000000000128 bpool_foreach_pool
00000000000226b8 l     O .rodata	0000000000000013 __func__.4066
000000000001bf20 l     F .text	00000000000000fc bpool_foreach
000000000001c5a8 l     F .text	0000000000000050 free_helper
000000000001c654 l     F .text	0000000000000034 realloc_unlocked
000000000001c784 l     F .text	0000000000000030 get_payload_start_size
000000000001c7fc l     F .text	0000000000000048 gen_malloc_add_pool
000000000001c844 l     F .text	0000000000000050 gen_malloc_buffer_is_within_alloced
000000000001c894 l     F .text	0000000000000050 gen_malloc_buffer_overlaps_heap
00000000000226d0 l     O .rodata	0000000000000014 __func__.4202
0000000000000000 l    df *ABS*	0000000000000000 snprintf.c
0000000000000000 l    df *ABS*	0000000000000000 memcmp.c
0000000000000000 l    df *ABS*	0000000000000000 memcpy.c
0000000000000000 l    df *ABS*	0000000000000000 memmove.c
0000000000000000 l    df *ABS*	0000000000000000 memset.c
0000000000000000 l    df *ABS*	0000000000000000 strcmp.c
0000000000000000 l    df *ABS*	0000000000000000 strlcpy.c
0000000000000000 l    df *ABS*	0000000000000000 mempool.c
000000000001d7a8 l     F .text	0000000000000030 _assert_trap
000000000001d7d8 l     F .text	00000000000000cc init_mpool
0000000000022778 l     O .rodata	000000000000000b __func__.3729
000000000001d8a4 l     F .text	0000000000000014 get_pool
000000000001d8b8 l     F .text	0000000000000014 put_pool
0000000000022788 l     O .rodata	0000000000000013 __func__.3748
00000000000227a0 l     O .rodata	000000000000000e __func__.3754
0000000000000000 l    df *ABS*	0000000000000000 consttime_memcmp.c
0000000000000000 l    df *ABS*	0000000000000000 
0000000000023000 l     O *ABS*	0000000000000000 _DYNAMIC
0000000000023128 l     O *ABS*	0000000000000000 _GLOBAL_OFFSET_TABLE_
00000000000032f4 g     F .text	000000000000007c putchar
00000000000096e8 g     F .text	0000000000000038 __GP11_TEE_BigIntConvertFromOctetString
0000000000004370 g     F .text	0000000000000284 TEE_PopulateTransientObject
000000000000bcd4 g     F .text	0000000000000034 TEE_BigIntConvertToFMM
000000000000aa34 g     F .text	0000000000000034 TEE_BigIntSquareMod
0000000000009ba8 g     F .text	000000000000021c TEE_BigIntShiftRight
000000000001c92c g     F .text	00000000000001f0 raw_malloc_add_pool
000000000000d854 g     F .text	000000000000016c tee_invoke_supp_plugin
0000000000012148 g     F .text	0000000000000174 mbedtls_mpi_grow
000000000000d184 g     F .text	00000000000001e0 __GP11_TEE_GetPropertyName
00000000000090a8 g     F .text	0000000000000104 TEE_Realloc
0000000000006328 g     F .text	000000000000003c __utee_check_inout_annotation
000000000001c188 g     F .text	0000000000000058 raw_free
0000000000003190 g     F .text	000000000000012c printf
000000000000a05c g     F .text	0000000000000044 TEE_BigIntAbs
0000000000004878 g     F .text	000000000000006c TEE_InitRefAttribute
000000000000730c g     F .text	000000000000000c _utee_log
000000000000f86c g     F .text	0000000000000dec mbedtls_internal_aes_encrypt
0000000000008590 g     F .text	00000000000001dc TEE_InvokeTACommand
00000000000049bc g     F .text	000000000000006c __GP11_TEE_InitValueAttribute
0000000000006070 g     F .text	0000000000000064 __utee_check_outbuf_annotation
0000000000012058 g     F .text	0000000000000040 mbedtls_mpi_init_mempool
000000000000748c g     F .text	000000000000000c _utee_cryp_random_number_generate
00000000000138a0 g     F .text	0000000000000160 mbedtls_mpi_write_binary
0000000000001080 g     F .text	0000000000000064 vsnprintk
0000000000014bbc g     F .text	00000000000000a8 mbedtls_mpi_sub_int
000000000001d208 g     F .text	000000000000020c memmove
000000000001ce04 g     F .text	00000000000000f8 snprintf
000000000000ed10 g     F .text	0000000000000034 mbedtls_aes_free
0000000000009b2c g     F .text	000000000000007c TEE_BigIntCmpS32
0000000000008c04 g     F .text	0000000000000030 __GP11_TEE_MemMove
00000000000234c0 g     O .data	0000000000000008 __stack_chk_guard
000000000001a9f4 g     F .text	00000000000003d4 mbedtls_ct_rsaes_pkcs1_v15_unpadding
0000000000004950 g     F .text	000000000000006c TEE_InitValueAttribute
00000000000122bc g     F .text	00000000000001f8 mbedtls_mpi_shrink
0000000000008cc4 g     F .text	0000000000000034 __GP11_TEE_MemFill
000000000000a42c g     F .text	0000000000000038 TEE_BigIntAdd
000000000000742c g     F .text	000000000000000c _utee_cryp_obj_restrict_usage
00000000000048e4 g     F .text	000000000000006c __GP11_TEE_InitRefAttribute
0000000000020ea8 g     O .rodata	0000000000000008 ta_heap_size
00000000000042a4 g     F .text	00000000000000cc TEE_ResetTransientObject
00000000000074d4 g     F .text	000000000000000c _utee_asymm_operate
000000000000e034 g     F .text	0000000000000030 _base64_enc_len
0000000000012c44 g     F .text	0000000000000354 mbedtls_mpi_read_string
0000000000004e54 g     F .text	0000000000000228 __GP11_TEE_GenerateKey
000000000000a49c g     F .text	0000000000000100 TEE_BigIntNeg
0000000000007528 g     F .text	000000000000000c _utee_storage_free_enum
0000000000000020 g       .text	0000000000000000 __text_start
0000000000010658 g     F .text	0000000000000030 mbedtls_aes_encrypt
000000000000d408 g     F .text	0000000000000150 TEE_GetNextProperty
00000000000056a0 g     F .text	0000000000000078 TEE_StartPersistentObjectEnumerator
0000000000013c58 g     F .text	0000000000000220 mbedtls_mpi_shift_r
000000000001cdd4 g     F .text	0000000000000030 malloc_buffer_overlaps_heap
00000000000073d8 g     F .text	000000000000000c _utee_hash_init
000000000000a9b4 g     F .text	0000000000000040 TEE_BigIntSubMod
00000000000192c8 g     F .text	00000000000004e0 mbedtls_mpi_gen_prime
000000000000cdb8 g     F .text	00000000000000ac TEE_GetPropertyAsBinaryBlock
00000000000127fc g     F .text	0000000000000060 mbedtls_mpi_get_bit
0000000000020eb0 g     O .rodata	0000000000000008 __ta_no_share_heap_size
0000000000013680 g     F .text	00000000000000d0 mbedtls_mpi_read_binary
000000000000076c g     F .text	00000000000000f0 trace_printf
000000000001735c g     F .text	0000000000000040 mbedtls_mpi_montmul
0000000000007594 g     F .text	000000000000000c _utee_cache_operation
000000000001d088 g     F .text	0000000000000180 memcpy
000000000000bd08 g     F .text	00000000000000e0 TEE_BigIntConvertFromFMM
0000000000005fa4 g     F .text	0000000000000020 TEE_Panic
00000000000032bc g     F .text	0000000000000038 puts
000000000000bde8 g     F .text	0000000000000158 TEE_BigIntComputeFMM
0000000000008e78 g     F .text	000000000000003c TEE_GetREETime
000000000000555c g     F .text	00000000000000b4 TEE_AllocatePersistentObjectEnumerator
00000000000233b8 g     O .data	0000000000000108 ta_props
0000000000009060 g     F .text	0000000000000024 __GP11_TEE_Malloc
00000000000083bc g     F .text	0000000000000190 __GP11_TEE_OpenTASession
000000000000613c g     F .text	0000000000000044 __utee_check_instring_annotation
000000000001c554 g     F .text	0000000000000054 malloc
000000000000d118 g     F .text	0000000000000028 TEE_FreePropertyEnumerator
0000000000019eb8 g     F .text	0000000000000024 mbedtls_ct_mpi_uint_mask
000000000000f530 g     F .text	000000000000033c mbedtls_aes_setkey_dec
0000000000004c30 g     F .text	0000000000000224 TEE_GenerateKey
000000000001cefc g     F .text	0000000000000064 vsnprintf
0000000000023580 g     O .data	0000000000000004 trace_level
00000000000051b0 g     F .text	0000000000000040 __GP11_TEE_OpenPersistentObject
0000000000009a9c g     F .text	0000000000000090 TEE_BigIntCmp
0000000000021060 g     O .rodata	0000000000000008 ta_num_props
000000000001b57c g     F .text	0000000000000138 bgetr
00000000000074ec g     F .text	000000000000000c _utee_storage_obj_open
0000000000008c60 g     F .text	0000000000000030 __GP11_TEE_MemCompare
000000000001dac8 g     F .text	000000000000003c mempool_free
00000000000073e4 g     F .text	000000000000000c _utee_hash_update
0000000000009720 g     F .text	00000000000000dc TEE_BigIntConvertToOctetString
0000000000012a9c g     F .text	00000000000000bc mbedtls_mpi_bitlen
0000000000009df8 g     F .text	0000000000000084 TEE_BigIntGetBit
0000000000020ea0 g     O .rodata	0000000000000003 trace_ext_prefix
000000000000754c g     F .text	000000000000000c _utee_storage_next_enum
000000000001c150 g     F .text	0000000000000038 raw_malloc
000000000001b488 g     F .text	00000000000000f4 bgetz
0000000000019f3c g     F .text	000000000000004c mbedtls_ct_size_bool_eq
0000000000008bc8 g     F .text	0000000000000010 TEE_GetInstanceData
0000000000008d34 g     F .text	0000000000000048 TEE_Wait
0000000000016000 g     F .text	00000000000002d4 mbedtls_mpi_mul_mpi
0000000000009dc4 g     F .text	0000000000000034 __GP11_TEE_BigIntShiftRight
0000000000009268 g     F .text	0000000000000028 TEE_CacheFlush
000000000000085c g     F .text	0000000000000380 trace_vprintf
0000000000000054 g     F .text	0000000000000034 TA_DestroyEntryPoint
0000000000012034 g     F .text	0000000000000024 mbedtls_mpi_init
0000000000007504 g     F .text	000000000000000c _utee_storage_obj_del
0000000000012998 g     F .text	00000000000000a0 mbedtls_mpi_lsb
000000000000dfc4 g     F .text	000000000000005c _assert_log
00000000000073c0 g     F .text	000000000000000c _utee_cryp_state_copy
000000000000bca4 g     F .text	0000000000000014 TEE_BigIntFMMContextSizeInU32
000000000000d758 g     F .text	00000000000000fc tee_unmap
000000000001a014 g     F .text	0000000000000048 mbedtls_ct_uint_if
0000000000005494 g     F .text	0000000000000098 TEE_RenamePersistentObject
00000000000045f4 g     F .text	0000000000000284 __GP11_TEE_PopulateTransientObject
0000000000010688 g     F .text	0000000000000dec mbedtls_internal_aes_decrypt
0000000000009330 g     F .text	0000000000000064 _TEE_MathAPI_Init
000000000000da14 g     F .text	0000000000000444 __utee_tcb_init
00000000000148dc g     F .text	000000000000011c mbedtls_mpi_add_mpi
00000000000075a0 g     F .text	0000000000000020 abort
0000000000018450 g     F .text	0000000000000260 mbedtls_mpi_random
0000000000000514 g     F .text	0000000000000030 __stack_chk_fail
000000000000624c g     F .text	000000000000003c __utee_check_out_annotation
0000000000023588 g     O .bss	0000000000008000 ta_heap
000000000000aa68 g     F .text	000000000000016c TEE_BigIntInvMod
0000000000006604 g     F .text	00000000000001fc __utee_call_elf_init_fn
000000000000387c g     F .text	0000000000000124 __GP11_TEE_GetObjectInfo
00000000000000c8 g     F .text	0000000000000038 TA_CloseSessionEntryPoint
0000000000007348 g     F .text	000000000000000c _utee_close_ta_session
000000000000bc18 g     F .text	0000000000000034 __GP11_TEE_BigIntInitFMMContext
0000000000003ab4 g     F .text	000000000000010c __GP11_TEE_GetObjectInfo1
000000000000507c g     F .text	0000000000000134 TEE_OpenPersistentObject
00000000000149f8 g     F .text	000000000000011c mbedtls_mpi_sub_mpi
000000000001db04 g     F .text	00000000000000f8 consttime_memcmp
0000000000007300 g     F .text	000000000000000c _utee_return
0000000000007318 g     F .text	000000000000000c __utee_panic
0000000000019df0 g     F .text	00000000000000a4 mbedtls_ct_memcmp
000000000000de58 g     F .text	0000000000000040 __tls_get_addr
000000000000043c g     F .text	000000000000007c TA_InvokeCommandEntryPoint
00000000000068d0 g     F .text	0000000000000024 __utee_call_elf_fini_fn
000000000001c7d8 g     F .text	0000000000000024 free_wipe
000000000001d95c g     F .text	0000000000000088 mempool_alloc
00000000000072f4 g     F .text	000000000000000c _utee_panic
000000000001c8ec g     F .text	0000000000000040 raw_malloc_init_ctx
000000000001d9e4 g     F .text	00000000000000e4 mempool_calloc
0000000000007588 g     F .text	000000000000000c _utee_cryp_obj_generate_key
0000000000007570 g     F .text	000000000000000c _utee_storage_obj_trunc
0000000000004a28 g     F .text	00000000000000b0 TEE_CopyObjectAttributes
00000000000234e8 g     O .data	0000000000000060 tee_props
0000000000007378 g     F .text	000000000000000c _utee_unmask_cancellation
000000000000d0f0 g     F .text	0000000000000028 TEE_ResetPropertyEnumerator
000000000001c5f8 g     F .text	000000000000005c calloc
0000000000008eb4 g     F .text	00000000000001ac TEE_Malloc
0000000000008aac g     F .text	00000000000000c8 TEE_CheckMemoryAccessRights
000000000000ce64 g     F .text	0000000000000100 TEE_GetPropertyAsUUID
0000000000007324 g     F .text	000000000000000c _utee_get_property
0000000000009ef0 g     F .text	00000000000000bc TEE_BigIntSetBit
0000000000012758 g     F .text	00000000000000a4 mbedtls_mpi_lset
0000000000005a50 g     F .text	00000000000000f4 TEE_ReadObjectData
0000000000003cd8 g     F .text	0000000000000154 TEE_GetObjectBufferAttribute
0000000000000088 g     F .text	0000000000000040 TA_OpenSessionEntryPoint
000000000000de98 g     F .text	000000000000012c dl_iterate_phdr
0000000000031860 g       .bss	0000000000000000 __ftrace_buf_end
000000000002b598 g     O .bss	0000000000000004 ta_param_types
0000000000016d2c g     F .text	00000000000000b0 mbedtls_mpi_div_int
0000000000003370 g     F .text	00000000000001ec __utee_from_attr
0000000000019180 g     F .text	0000000000000118 mbedtls_mpi_is_prime_ext
000000000000bb0c g     F .text	000000000000009c TEE_BigIntIsProbablePrime
00000000000162d4 g     F .text	0000000000000110 mbedtls_mpi_mul_int
0000000000005434 g     F .text	0000000000000060 TEE_CloseAndDeletePersistentObject1
0000000000017520 g     F .text	0000000000000ad8 mbedtls_mpi_exp_mod
000000000001a514 g     F .text	000000000000011c mbedtls_mpi_safe_cond_assign
000000000000ed44 g     F .text	00000000000007ec mbedtls_aes_setkey_enc
000000000000c544 g     F .text	00000000000003ac TEE_GetPropertyAsString
000000000001a818 g     F .text	00000000000001dc mbedtls_mpi_lt_mpi_ct
000000000000956c g     F .text	0000000000000084 TEE_BigIntInit
00000000000097fc g     F .text	0000000000000098 __GP11_TEE_BigIntConvertToOctetString
0000000000009fac g     F .text	00000000000000b0 TEE_BigIntAssign
0000000000006180 g     F .text	0000000000000064 __utee_check_outstring_annotation
0000000000008bd8 g     F .text	000000000000002c TEE_MemMove
000000000001adc8 g     F .text	0000000000000044 mbedtls_platform_zeroize
000000000000961c g     F .text	00000000000000cc TEE_BigIntConvertFromOctetString
00000000000074c8 g     F .text	000000000000000c _utee_authenc_dec_final
0000000000013e78 g     F .text	00000000000001b8 mbedtls_mpi_cmp_abs
0000000000007558 g     F .text	000000000000000c _utee_storage_obj_read
0000000000002fa4 g     F .text	00000000000001b8 memchr
00000000000089b4 g     F .text	000000000000007c TEE_UnmaskCancellation
0000000000003750 g     F .text	000000000000012c TEE_GetObjectInfo
00000000000197a8 g     F .text	0000000000000648 mbedtls_mpi_self_test
00000000000001e8 g     F .text	000000000000011c load_aes_key
00000000000060d4 g     F .text	0000000000000068 __utee_check_gp11_outbuf_annotation
000000000000757c g     F .text	000000000000000c _utee_storage_obj_seek
00000000000041d8 g     F .text	00000000000000cc TEE_FreeTransientObject
000000000000736c g     F .text	000000000000000c _utee_check_access_rights
000000000000876c g     F .text	00000000000001d0 __GP11_TEE_InvokeTACommand
0000000000014250 g     F .text	00000000000000a0 mbedtls_mpi_cmp_int
000000000000e358 g     F .text	000000000000031c _base64_dec
0000000000007534 g     F .text	000000000000000c _utee_storage_reset_enum
000000000001a298 g     F .text	0000000000000140 mbedtls_ct_base64_dec_value
0000000000006288 g     F .text	0000000000000050 __utee_check_attr_in_annotation
00000000000074b0 g     F .text	000000000000000c _utee_authenc_update_payload
000000000000a910 g     F .text	0000000000000064 TEE_BigIntMod
0000000000016ecc g     F .text	00000000000001ac mbedtls_mpi_mod_int
0000000000013590 g     F .text	00000000000000f0 mbedtls_mpi_read_binary_le
000000000000a6fc g     F .text	0000000000000214 TEE_BigIntDiv
0000000000007444 g     F .text	000000000000000c _utee_cryp_obj_alloc
0000000000031860 g       .bss	0000000000000000 __ftrace_buf_start
000000000001d6f4 g     F .text	00000000000000b4 strlcpy
000000000001a16c g     F .text	000000000000012c mbedtls_ct_base64_enc_char
0000000000012544 g     F .text	0000000000000190 mbedtls_mpi_copy
000000000000cf64 g     F .text	0000000000000100 TEE_GetPropertyAsIdentity
00000000000011f8 g     F .text	0000000000000064 __vsprintf
000000000000cba8 g     F .text	0000000000000100 TEE_GetPropertyAsU64
00000000000073a8 g     F .text	000000000000000c _utee_set_ta_time
0000000000007354 g     F .text	000000000000000c _utee_invoke_ta_command
0000000000003c70 g     F .text	0000000000000068 TEE_RestrictObjectUsage1
000000000001c688 g     F .text	0000000000000054 realloc
00000000000126d4 g     F .text	0000000000000084 mbedtls_mpi_swap
000000000001d8cc g     F .text	0000000000000090 mempool_alloc_pool
000000000000a59c g     F .text	0000000000000134 TEE_BigIntMul
000000000001c8e4 g     F .text	0000000000000008 raw_malloc_get_ctx_size
0000000000013a00 g     F .text	0000000000000258 mbedtls_mpi_shift_l
0000000000014030 g     F .text	0000000000000220 mbedtls_mpi_cmp_mpi
0000000000008c90 g     F .text	0000000000000034 TEE_MemFill
000000000001cf60 g     F .text	0000000000000128 memcmp
000000000001cd74 g     F .text	0000000000000030 malloc_add_pool
00000000000118b0 g     F .text	0000000000000714 mbedtls_aes_self_test
000000000000066c g     F .text	0000000000000010 trace_get_level
00000000000142f0 g     F .text	0000000000000294 mbedtls_mpi_add_abs
0000000000003bc0 g     F .text	00000000000000b0 TEE_RestrictObjectUsage
000000000000bc68 g     F .text	0000000000000020 TEE_BigIntFMMSizeInU32
000000000000c9a0 g     F .text	0000000000000108 TEE_GetPropertyAsBool
000000000001c35c g     F .text	00000000000001f8 raw_realloc
000000000000bba8 g     F .text	0000000000000028 TEE_BigIntInitFMM
0000000000004078 g     F .text	0000000000000048 TEE_CloseObject
00000000000073fc g     F .text	000000000000000c _utee_cipher_init
0000000000007248 g     F .text	00000000000000ac __utee_entry
000000000000caa8 g     F .text	0000000000000100 TEE_GetPropertyAsU32
000000000001dbfc g       .text	0000000000000000 __text_end
000000000000abd4 g     F .text	0000000000000114 TEE_BigIntRelativePrime
0000000000016ddc g     F .text	00000000000000f0 mbedtls_mpi_mod_mpi
0000000000007420 g     F .text	000000000000000c _utee_cryp_obj_get_info
000000000001bab8 g     F .text	0000000000000154 bpool
000000000000d064 g     F .text	000000000000008c TEE_AllocatePropertyEnumerator
00000000000073b4 g     F .text	000000000000000c _utee_cryp_state_alloc
000000000000893c g     F .text	0000000000000078 TEE_GetCancellationFlag
0000000000005384 g     F .text	0000000000000068 __GP11_TEE_CreatePersistentObject
0000000000017ff8 g     F .text	0000000000000298 mbedtls_mpi_gcd
0000000000008e20 g     F .text	0000000000000058 TEE_SetTAPersistentTime
0000000000013750 g     F .text	0000000000000150 mbedtls_mpi_write_binary_le
000000000001d414 g     F .text	00000000000001cc memset
000000000001c01c g     F .text	0000000000000134 raw_memalign
0000000000008d7c g     F .text	00000000000000a4 TEE_GetTAPersistentTime
0000000000000d7c g     F .text	0000000000000210 dhex_dump
00000000000051f0 g     F .text	0000000000000194 TEE_CreatePersistentObject
0000000000011474 g     F .text	0000000000000030 mbedtls_aes_decrypt
0000000000008a30 g     F .text	000000000000007c TEE_MaskCancellation
0000000000005cec g     F .text	0000000000000090 TEE_TruncateObjectData
0000000000007438 g     F .text	000000000000000c _utee_cryp_obj_get_attr
00000000000039a0 g     F .text	0000000000000114 TEE_GetObjectInfo1
000000000000ece8 g     F .text	0000000000000028 mbedtls_aes_init
0000000000007414 g     F .text	000000000000000c _utee_cipher_final
0000000000000618 g     F .text	0000000000000054 trace_set_level
0000000000003edc g     F .text	000000000000019c TEE_GetObjectValueAttribute
0000000000019fac g     F .text	0000000000000068 mbedtls_ct_mpi_uint_lt
0000000000003e2c g     F .text	00000000000000b0 __GP11_TEE_GetObjectBufferAttribute
00000000000073cc g     F .text	000000000000000c _utee_cryp_state_free
000000000001d5e0 g     F .text	0000000000000114 strcmp
000000000000733c g     F .text	000000000000000c _utee_open_ta_session
0000000000009958 g     F .text	0000000000000144 TEE_BigIntConvertToS32
000000000000a464 g     F .text	0000000000000038 TEE_BigIntSub
0000000000005f74 g     F .text	0000000000000030 __GP11_TEE_SeekObjectData
000000000000050c g     F .text	0000000000000008 tahead_get_trace_level
0000000000007540 g     F .text	000000000000000c _utee_storage_start_enum
0000000000005da4 g     F .text	00000000000001d0 TEE_SeekObjectData
0000000000000100 g     F .text	00000000000000e8 save_aes_key
000000000000d64c g     F .text	000000000000010c tee_map_zi
0000000000005d7c g     F .text	0000000000000028 __GP11_TEE_TruncateObjectData
0000000000017438 g     F .text	0000000000000038 mbedtls_mpi_montred
000000000001c6dc g     F .text	000000000000005c memalign
0000000000019e94 g     F .text	0000000000000024 mbedtls_ct_uint_mask
00000000000095f0 g     F .text	000000000000002c __GP11_TEE_BigIntInit
0000000000009894 g     F .text	00000000000000c4 TEE_BigIntConvertFromS32
0000000000014b14 g     F .text	00000000000000a8 mbedtls_mpi_add_int
00000000000074bc g     F .text	000000000000000c _utee_authenc_enc_final
0000000000000304 g     F .text	0000000000000138 crypt_data
000000000001cda4 g     F .text	0000000000000030 malloc_buffer_is_within_alloced
0000000000007450 g     F .text	000000000000000c _utee_cryp_obj_close
000000000000bbfc g     F .text	000000000000001c TEE_BigIntInitFMMContext
0000000000007384 g     F .text	000000000000000c _utee_mask_cancellation
000000000002b5a0 g     O .bss	0000000000000008 __ta_no_share_malloc_ctx
0000000000007510 g     F .text	000000000000000c _utee_storage_obj_rename
00000000000058b4 g     F .text	000000000000019c __GP11_TEE_GetNextPersistentObject
0000000000005bf8 g     F .text	00000000000000c4 TEE_WriteObjectData
0000000000005658 g     F .text	0000000000000048 TEE_ResetPersistentObjectEnumerator
0000000000008b74 g     F .text	0000000000000030 __GP11_TEE_CheckMemoryAccessRights
000000000000a6d0 g     F .text	000000000000002c TEE_BigIntSquare
0000000000007564 g     F .text	000000000000000c _utee_storage_obj_write
0000000000000020 g     F .text	0000000000000034 TA_CreateEntryPoint
00000000000004b8 g     F .text	0000000000000054 __ta_entry
000000000002b588 g     O .bss	0000000000000000 __ta_no_share_heap
00000000000074a4 g     F .text	000000000000000c _utee_authenc_update_aad
0000000000017118 g     F .text	0000000000000028 mbedtls_mpi_montg_init
0000000000000f8c g     F .text	00000000000000f4 snprintk
0000000000009e7c g     F .text	0000000000000074 TEE_BigIntGetBitCount
0000000000007474 g     F .text	000000000000000c _utee_cryp_obj_copy
000000000000a9f4 g     F .text	0000000000000040 TEE_BigIntMulMod
00000000000186b0 g     F .text	0000000000000624 mbedtls_mpi_inv_mod
00000000000062d8 g     F .text	0000000000000050 __utee_check_gp11_attr_in_annotation
000000000002b5a8 g     O .bss	0000000000000040 ta_params
00000000000164b4 g     F .text	0000000000000878 mbedtls_mpi_div_mpi
00000000000061e4 g     F .text	0000000000000068 __utee_check_gp11_outstring_annotation
0000000000012b58 g     F .text	0000000000000024 mbedtls_mpi_size
000000000001af60 g     F .text	0000000000000528 bget
0000000000005b44 g     F .text	00000000000000b4 __GP11_TEE_ReadObjectData
00000000000040c0 g     F .text	0000000000000048 TEE_AllocateTransientObject
00000000000114a4 g     F .text	0000000000000050 mbedtls_aes_crypt_ecb
000000000000bcb8 g     F .text	000000000000001c __GP11_TEE_BigIntFMMContextSizeInU32
0000000000011748 g     F .text	0000000000000168 mbedtls_aes_crypt_ctr
000000000000d140 g     F .text	0000000000000044 TEE_StartPropertyEnumerator
0000000000007390 g     F .text	000000000000000c _utee_wait
000000000001285c g     F .text	000000000000013c mbedtls_mpi_set_bit
00000000000091d4 g     F .text	000000000000006c TEE_Free
0000000000019298 g     F .text	0000000000000030 mbedtls_mpi_is_prime
0000000000009290 g     F .text	0000000000000028 TEE_CacheInvalidate
000000000000e020 g     F .text	0000000000000014 _assert_break
000000000000a974 g     F .text	0000000000000040 TEE_BigIntAddMod
000000000001a0c4 g     F .text	00000000000000a8 mbedtls_ct_mpi_uint_cond_assign
000000000000bbd0 g     F .text	000000000000002c __GP11_TEE_BigIntInitFMM
000000000000739c g     F .text	000000000000000c _utee_get_time
000000000000d364 g     F .text	00000000000000a4 TEE_GetPropertyName
00000000000091ac g     F .text	0000000000000028 __GP11_TEE_Realloc
0000000000007468 g     F .text	000000000000000c _utee_cryp_obj_populate
000000000000355c g     F .text	00000000000001f4 __utee_from_gp11_attr
0000000000008c34 g     F .text	000000000000002c TEE_MemCompare
0000000000007408 g     F .text	000000000000000c _utee_cipher_update
00000000000010e4 g     F .text	0000000000000114 __vsnprintf
000000000002b5e8 g     O .bss	0000000000000010 __elf_phdr_info
0000000000005610 g     F .text	0000000000000048 TEE_FreePersistentObjectEnumerator
0000000000008220 g     F .text	000000000000019c TEE_OpenTASession
000000000000315c g     F .text	000000000000002c trace_ext_puts
000000000000c8f0 g     F .text	00000000000000b0 __GP11_TEE_GetPropertyAsString
000000000001cc40 g     F .text	0000000000000134 raw_malloc_buffer_is_within_alloced
0000000000003188 g     F .text	0000000000000008 trace_ext_get_thread_id
000000000001cb1c g     F .text	0000000000000124 raw_malloc_buffer_overlaps_heap
00000000000053ec g     F .text	0000000000000048 TEE_CloseAndDeletePersistentObject
0000000000007480 g     F .text	000000000000000c _utee_cryp_derive_key
0000000000012098 g     F .text	00000000000000b0 mbedtls_mpi_free
000000000000745c g     F .text	000000000000000c _utee_cryp_obj_reset
0000000000009240 g     F .text	0000000000000028 TEE_CacheClean
0000000000007330 g     F .text	000000000000000c _utee_get_property_name_to_index
000000000001c1e0 g     F .text	000000000000017c raw_calloc
00000000000114f4 g     F .text	0000000000000254 mbedtls_aes_crypt_cbc
000000000000e064 g     F .text	0000000000000270 _base64_enc
000000000001a630 g     F .text	00000000000001e8 mbedtls_mpi_safe_cond_swap
0000000000007498 g     F .text	000000000000000c _utee_authenc_init
0000000000004ad8 g     F .text	0000000000000158 TEE_CopyObjectAttributes1
000000000000552c g     F .text	0000000000000030 __GP11_TEE_RenamePersistentObject
0000000000000544 g     F .text	00000000000000d4 strlen
000000000000b7a0 g     F .text	0000000000000330 TEE_BigIntComputeExtendedGcd
000000000000751c g     F .text	000000000000000c _utee_storage_alloc_enum
000000000000ad50 g     F .text	000000000000022c TEE_BigIntExpMod
0000000000008cf8 g     F .text	000000000000003c TEE_GetSystemTime
00000000000074e0 g     F .text	000000000000000c _utee_asymm_verify
0000000000000000 g     O .ta_head	0000000000000020 ta_head
000000000001b6b4 g     F .text	0000000000000404 brel
000000000000cca8 g     F .text	0000000000000110 __GP11_TEE_GetPropertyAsBinaryBlock
0000000000014678 g     F .text	0000000000000264 mbedtls_mpi_sub_abs
00000000000183ac g     F .text	00000000000000a4 mbedtls_mpi_fill_random
0000000000004108 g     F .text	00000000000000d0 __GP11_TEE_AllocateTransientObject
0000000000008ba4 g     F .text	0000000000000024 TEE_SetInstanceData
0000000000007360 g     F .text	000000000000000c _utee_get_cancellation_flag
0000000000013128 g     F .text	0000000000000330 mbedtls_mpi_write_string
000000000001c738 g     F .text	000000000000004c aligned_alloc
0000000000005718 g     F .text	000000000000019c TEE_GetNextPersistentObject
000000000000bc4c g     F .text	000000000000001c TEE_BigIntInitFMMContext1
0000000000005cbc g     F .text	0000000000000030 __GP11_TEE_WriteObjectData
000000000000854c g     F .text	0000000000000044 TEE_CloseTASession
00000000000074f8 g     F .text	000000000000000c _utee_storage_obj_create
000000000000bc88 g     F .text	000000000000001c __GP11_TEE_BigIntFMMSizeInU32
000000000001c7b4 g     F .text	0000000000000024 free
0000000000031850 g     O .bss	0000000000000008 mbedtls_mpi_mempool
00000000000073f0 g     F .text	000000000000000c _utee_hash_final



Disassembly of section .text:

0000000000000020 <TA_CreateEntryPoint>:
TA_CreateEntryPoint():
/home/avees/optee_local_build/Linux_for_Tegra/sources/tegra/optee-src/nv-optee/optee/cp4ad-optee/T5.optee_crypto/ta/ta_optee_crypto.c:13
      20:	a9bf7bfd 	stp	x29, x30, [sp, #-16]!
      24:	910003fd 	mov	x29, sp
/home/avees/optee_local_build/Linux_for_Tegra/sources/tegra/optee-src/nv-optee/optee/cp4ad-optee/T5.optee_crypto/ta/ta_optee_crypto.c:14
      28:	90000100 	adrp	x0, 20000 <__text_end+0x2404>
      2c:	91362004 	add	x4, x0, #0xd88
      30:	52800023 	mov	w3, #0x1                   	// #1
      34:	52800062 	mov	w2, #0x3                   	// #3
      38:	528001c1 	mov	w1, #0xe                   	// #14
      3c:	90000100 	adrp	x0, 20000 <__text_end+0x2404>
      40:	91384000 	add	x0, x0, #0xe10
      44:	940001ca 	bl	76c <trace_printf>
/home/avees/optee_local_build/Linux_for_Tegra/sources/tegra/optee-src/nv-optee/optee/cp4ad-optee/T5.optee_crypto/ta/ta_optee_crypto.c:15
      48:	52800000 	mov	w0, #0x0                   	// #0
/home/avees/optee_local_build/Linux_for_Tegra/sources/tegra/optee-src/nv-optee/optee/cp4ad-optee/T5.optee_crypto/ta/ta_optee_crypto.c:16
      4c:	a8c17bfd 	ldp	x29, x30, [sp], #16
      50:	d65f03c0 	ret

0000000000000054 <TA_DestroyEntryPoint>:
TA_DestroyEntryPoint():
/home/avees/optee_local_build/Linux_for_Tegra/sources/tegra/optee-src/nv-optee/optee/cp4ad-optee/T5.optee_crypto/ta/ta_optee_crypto.c:18
      54:	a9bf7bfd 	stp	x29, x30, [sp, #-16]!
      58:	910003fd 	mov	x29, sp
/home/avees/optee_local_build/Linux_for_Tegra/sources/tegra/optee-src/nv-optee/optee/cp4ad-optee/T5.optee_crypto/ta/ta_optee_crypto.c:19
      5c:	90000100 	adrp	x0, 20000 <__text_end+0x2404>
      60:	91366004 	add	x4, x0, #0xd98
      64:	52800023 	mov	w3, #0x1                   	// #1
      68:	52800062 	mov	w2, #0x3                   	// #3
      6c:	52800261 	mov	w1, #0x13                  	// #19
      70:	90000100 	adrp	x0, 20000 <__text_end+0x2404>
      74:	9138a000 	add	x0, x0, #0xe28
      78:	940001bd 	bl	76c <trace_printf>
/home/avees/optee_local_build/Linux_for_Tegra/sources/tegra/optee-src/nv-optee/optee/cp4ad-optee/T5.optee_crypto/ta/ta_optee_crypto.c:20
      7c:	d503201f 	nop
      80:	a8c17bfd 	ldp	x29, x30, [sp], #16
      84:	d65f03c0 	ret

0000000000000088 <TA_OpenSessionEntryPoint>:
TA_OpenSessionEntryPoint():
/home/avees/optee_local_build/Linux_for_Tegra/sources/tegra/optee-src/nv-optee/optee/cp4ad-optee/T5.optee_crypto/ta/ta_optee_crypto.c:22
      88:	a9bd7bfd 	stp	x29, x30, [sp, #-48]!
      8c:	910003fd 	mov	x29, sp
      90:	b9002fe0 	str	w0, [sp, #44]
      94:	f90013e1 	str	x1, [sp, #32]
      98:	f9000fe2 	str	x2, [sp, #24]
/home/avees/optee_local_build/Linux_for_Tegra/sources/tegra/optee-src/nv-optee/optee/cp4ad-optee/T5.optee_crypto/ta/ta_optee_crypto.c:26
      9c:	90000100 	adrp	x0, 20000 <__text_end+0x2404>
      a0:	9136a004 	add	x4, x0, #0xda8
      a4:	52800023 	mov	w3, #0x1                   	// #1
      a8:	52800042 	mov	w2, #0x2                   	// #2
      ac:	52800341 	mov	w1, #0x1a                  	// #26
      b0:	90000100 	adrp	x0, 20000 <__text_end+0x2404>
      b4:	91390000 	add	x0, x0, #0xe40
      b8:	940001ad 	bl	76c <trace_printf>
/home/avees/optee_local_build/Linux_for_Tegra/sources/tegra/optee-src/nv-optee/optee/cp4ad-optee/T5.optee_crypto/ta/ta_optee_crypto.c:27
      bc:	52800000 	mov	w0, #0x0                   	// #0
/home/avees/optee_local_build/Linux_for_Tegra/sources/tegra/optee-src/nv-optee/optee/cp4ad-optee/T5.optee_crypto/ta/ta_optee_crypto.c:28
      c0:	a8c37bfd 	ldp	x29, x30, [sp], #48
      c4:	d65f03c0 	ret

00000000000000c8 <TA_CloseSessionEntryPoint>:
TA_CloseSessionEntryPoint():
/home/avees/optee_local_build/Linux_for_Tegra/sources/tegra/optee-src/nv-optee/optee/cp4ad-optee/T5.optee_crypto/ta/ta_optee_crypto.c:30
      c8:	a9be7bfd 	stp	x29, x30, [sp, #-32]!
      cc:	910003fd 	mov	x29, sp
      d0:	f9000fe0 	str	x0, [sp, #24]
/home/avees/optee_local_build/Linux_for_Tegra/sources/tegra/optee-src/nv-optee/optee/cp4ad-optee/T5.optee_crypto/ta/ta_optee_crypto.c:32
      d4:	90000100 	adrp	x0, 20000 <__text_end+0x2404>
      d8:	9136e004 	add	x4, x0, #0xdb8
      dc:	52800023 	mov	w3, #0x1                   	// #1
      e0:	52800042 	mov	w2, #0x2                   	// #2
      e4:	52800401 	mov	w1, #0x20                  	// #32
      e8:	90000100 	adrp	x0, 20000 <__text_end+0x2404>
      ec:	91398000 	add	x0, x0, #0xe60
      f0:	9400019f 	bl	76c <trace_printf>
/home/avees/optee_local_build/Linux_for_Tegra/sources/tegra/optee-src/nv-optee/optee/cp4ad-optee/T5.optee_crypto/ta/ta_optee_crypto.c:33
      f4:	d503201f 	nop
      f8:	a8c27bfd 	ldp	x29, x30, [sp], #32
      fc:	d65f03c0 	ret

0000000000000100 <save_aes_key>:
save_aes_key():
/home/avees/optee_local_build/Linux_for_Tegra/sources/tegra/optee-src/nv-optee/optee/cp4ad-optee/T5.optee_crypto/ta/ta_optee_crypto.c:36
     100:	a9bb7bfd 	stp	x29, x30, [sp, #-80]!
     104:	910003fd 	mov	x29, sp
     108:	f9000bf3 	str	x19, [sp, #16]
     10c:	f90017e0 	str	x0, [sp, #40]
     110:	f90013e1 	str	x1, [sp, #32]
     114:	f0000100 	adrp	x0, 23000 <_DYNAMIC>
     118:	f9409800 	ldr	x0, [x0, #304]
     11c:	f9400001 	ldr	x1, [x0]
     120:	f90027e1 	str	x1, [sp, #72]
     124:	d2800001 	mov	x1, #0x0                   	// #0
/home/avees/optee_local_build/Linux_for_Tegra/sources/tegra/optee-src/nv-optee/optee/cp4ad-optee/T5.optee_crypto/ta/ta_optee_crypto.c:40
     128:	f0000100 	adrp	x0, 23000 <_DYNAMIC>
     12c:	910ec000 	add	x0, x0, #0x3b0
     130:	f9400013 	ldr	x19, [x0]
     134:	f0000100 	adrp	x0, 23000 <_DYNAMIC>
     138:	910ec000 	add	x0, x0, #0x3b0
     13c:	f9400000 	ldr	x0, [x0]
     140:	94000101 	bl	544 <strlen>
     144:	aa0003e1 	mov	x1, x0
     148:	910103e0 	add	x0, sp, #0x40
     14c:	aa0003e7 	mov	x7, x0
     150:	f94013e6 	ldr	x6, [sp, #32]
     154:	f94017e5 	ldr	x5, [sp, #40]
     158:	d2800004 	mov	x4, #0x0                   	// #0
     15c:	52800063 	mov	w3, #0x3                   	// #3
     160:	aa0103e2 	mov	x2, x1
     164:	aa1303e1 	mov	x1, x19
     168:	52800020 	mov	w0, #0x1                   	// #1
     16c:	94001421 	bl	51f0 <TEE_CreatePersistentObject>
     170:	b9003fe0 	str	w0, [sp, #60]
/home/avees/optee_local_build/Linux_for_Tegra/sources/tegra/optee-src/nv-optee/optee/cp4ad-optee/T5.optee_crypto/ta/ta_optee_crypto.c:43
     174:	b9403fe0 	ldr	w0, [sp, #60]
     178:	7100001f 	cmp	w0, #0x0
     17c:	54000160 	b.eq	1a8 <save_aes_key+0xa8>  // b.none
/home/avees/optee_local_build/Linux_for_Tegra/sources/tegra/optee-src/nv-optee/optee/cp4ad-optee/T5.optee_crypto/ta/ta_optee_crypto.c:44
     180:	90000100 	adrp	x0, 20000 <__text_end+0x2404>
     184:	91372004 	add	x4, x0, #0xdc8
     188:	52800023 	mov	w3, #0x1                   	// #1
     18c:	52800022 	mov	w2, #0x1                   	// #1
     190:	52800581 	mov	w1, #0x2c                  	// #44
     194:	90000100 	adrp	x0, 20000 <__text_end+0x2404>
     198:	913a0000 	add	x0, x0, #0xe80
     19c:	94000174 	bl	76c <trace_printf>
/home/avees/optee_local_build/Linux_for_Tegra/sources/tegra/optee-src/nv-optee/optee/cp4ad-optee/T5.optee_crypto/ta/ta_optee_crypto.c:45
     1a0:	b9403fe0 	ldr	w0, [sp, #60]
     1a4:	14000004 	b	1b4 <save_aes_key+0xb4>
/home/avees/optee_local_build/Linux_for_Tegra/sources/tegra/optee-src/nv-optee/optee/cp4ad-optee/T5.optee_crypto/ta/ta_optee_crypto.c:48
     1a8:	f94023e0 	ldr	x0, [sp, #64]
     1ac:	94000fb3 	bl	4078 <TEE_CloseObject>
/home/avees/optee_local_build/Linux_for_Tegra/sources/tegra/optee-src/nv-optee/optee/cp4ad-optee/T5.optee_crypto/ta/ta_optee_crypto.c:49
     1b0:	52800000 	mov	w0, #0x0                   	// #0
     1b4:	2a0003e1 	mov	w1, w0
/home/avees/optee_local_build/Linux_for_Tegra/sources/tegra/optee-src/nv-optee/optee/cp4ad-optee/T5.optee_crypto/ta/ta_optee_crypto.c:50 (discriminator 1)
     1b8:	f0000100 	adrp	x0, 23000 <_DYNAMIC>
     1bc:	f9409800 	ldr	x0, [x0, #304]
     1c0:	f94027e2 	ldr	x2, [sp, #72]
     1c4:	f9400003 	ldr	x3, [x0]
     1c8:	eb030042 	subs	x2, x2, x3
     1cc:	d2800003 	mov	x3, #0x0                   	// #0
     1d0:	54000040 	b.eq	1d8 <save_aes_key+0xd8>  // b.none
/home/avees/optee_local_build/Linux_for_Tegra/sources/tegra/optee-src/nv-optee/optee/cp4ad-optee/T5.optee_crypto/ta/ta_optee_crypto.c:50
     1d4:	940000d0 	bl	514 <__stack_chk_fail>
     1d8:	2a0103e0 	mov	w0, w1
     1dc:	f9400bf3 	ldr	x19, [sp, #16]
     1e0:	a8c57bfd 	ldp	x29, x30, [sp], #80
     1e4:	d65f03c0 	ret

00000000000001e8 <load_aes_key>:
load_aes_key():
/home/avees/optee_local_build/Linux_for_Tegra/sources/tegra/optee-src/nv-optee/optee/cp4ad-optee/T5.optee_crypto/ta/ta_optee_crypto.c:53
     1e8:	a9bb7bfd 	stp	x29, x30, [sp, #-80]!
     1ec:	910003fd 	mov	x29, sp
     1f0:	f9000bf3 	str	x19, [sp, #16]
     1f4:	f90017e0 	str	x0, [sp, #40]
     1f8:	f90013e1 	str	x1, [sp, #32]
     1fc:	f0000100 	adrp	x0, 23000 <_DYNAMIC>
     200:	f9409800 	ldr	x0, [x0, #304]
     204:	f9400001 	ldr	x1, [x0]
     208:	f90027e1 	str	x1, [sp, #72]
     20c:	d2800001 	mov	x1, #0x0                   	// #0
/home/avees/optee_local_build/Linux_for_Tegra/sources/tegra/optee-src/nv-optee/optee/cp4ad-optee/T5.optee_crypto/ta/ta_optee_crypto.c:58
     210:	f0000100 	adrp	x0, 23000 <_DYNAMIC>
     214:	910ec000 	add	x0, x0, #0x3b0
     218:	f9400013 	ldr	x19, [x0]
     21c:	f0000100 	adrp	x0, 23000 <_DYNAMIC>
     220:	910ec000 	add	x0, x0, #0x3b0
     224:	f9400000 	ldr	x0, [x0]
     228:	940000c7 	bl	544 <strlen>
     22c:	aa0003e1 	mov	x1, x0
     230:	9100e3e0 	add	x0, sp, #0x38
     234:	aa0003e4 	mov	x4, x0
     238:	52800023 	mov	w3, #0x1                   	// #1
     23c:	aa0103e2 	mov	x2, x1
     240:	aa1303e1 	mov	x1, x19
     244:	52800020 	mov	w0, #0x1                   	// #1
     248:	9400138d 	bl	507c <TEE_OpenPersistentObject>
     24c:	b90037e0 	str	w0, [sp, #52]
/home/avees/optee_local_build/Linux_for_Tegra/sources/tegra/optee-src/nv-optee/optee/cp4ad-optee/T5.optee_crypto/ta/ta_optee_crypto.c:60
     250:	b94037e0 	ldr	w0, [sp, #52]
     254:	7100001f 	cmp	w0, #0x0
     258:	54000160 	b.eq	284 <load_aes_key+0x9c>  // b.none
/home/avees/optee_local_build/Linux_for_Tegra/sources/tegra/optee-src/nv-optee/optee/cp4ad-optee/T5.optee_crypto/ta/ta_optee_crypto.c:61
     25c:	90000100 	adrp	x0, 20000 <__text_end+0x2404>
     260:	9137a004 	add	x4, x0, #0xde8
     264:	52800023 	mov	w3, #0x1                   	// #1
     268:	52800022 	mov	w2, #0x1                   	// #1
     26c:	528007a1 	mov	w1, #0x3d                  	// #61
     270:	90000100 	adrp	x0, 20000 <__text_end+0x2404>
     274:	913a4000 	add	x0, x0, #0xe90
     278:	9400013d 	bl	76c <trace_printf>
/home/avees/optee_local_build/Linux_for_Tegra/sources/tegra/optee-src/nv-optee/optee/cp4ad-optee/T5.optee_crypto/ta/ta_optee_crypto.c:62
     27c:	b94037e0 	ldr	w0, [sp, #52]
     280:	14000014 	b	2d0 <load_aes_key+0xe8>
/home/avees/optee_local_build/Linux_for_Tegra/sources/tegra/optee-src/nv-optee/optee/cp4ad-optee/T5.optee_crypto/ta/ta_optee_crypto.c:65
     284:	f9401fe0 	ldr	x0, [sp, #56]
     288:	910103e1 	add	x1, sp, #0x40
     28c:	aa0103e3 	mov	x3, x1
     290:	f94013e2 	ldr	x2, [sp, #32]
     294:	f94017e1 	ldr	x1, [sp, #40]
     298:	940015ee 	bl	5a50 <TEE_ReadObjectData>
     29c:	b90037e0 	str	w0, [sp, #52]
/home/avees/optee_local_build/Linux_for_Tegra/sources/tegra/optee-src/nv-optee/optee/cp4ad-optee/T5.optee_crypto/ta/ta_optee_crypto.c:66
     2a0:	f9401fe0 	ldr	x0, [sp, #56]
     2a4:	94000f75 	bl	4078 <TEE_CloseObject>
/home/avees/optee_local_build/Linux_for_Tegra/sources/tegra/optee-src/nv-optee/optee/cp4ad-optee/T5.optee_crypto/ta/ta_optee_crypto.c:68
     2a8:	b94037e0 	ldr	w0, [sp, #52]
     2ac:	7100001f 	cmp	w0, #0x0
     2b0:	540000a1 	b.ne	2c4 <load_aes_key+0xdc>  // b.any
/home/avees/optee_local_build/Linux_for_Tegra/sources/tegra/optee-src/nv-optee/optee/cp4ad-optee/T5.optee_crypto/ta/ta_optee_crypto.c:68 (discriminator 1)
     2b4:	f94023e0 	ldr	x0, [sp, #64]
     2b8:	f94013e1 	ldr	x1, [sp, #32]
     2bc:	eb00003f 	cmp	x1, x0
     2c0:	54000060 	b.eq	2cc <load_aes_key+0xe4>  // b.none
/home/avees/optee_local_build/Linux_for_Tegra/sources/tegra/optee-src/nv-optee/optee/cp4ad-optee/T5.optee_crypto/ta/ta_optee_crypto.c:69
     2c4:	52bfffe0 	mov	w0, #0xffff0000            	// #-65536
     2c8:	14000002 	b	2d0 <load_aes_key+0xe8>
/home/avees/optee_local_build/Linux_for_Tegra/sources/tegra/optee-src/nv-optee/optee/cp4ad-optee/T5.optee_crypto/ta/ta_optee_crypto.c:71
     2cc:	52800000 	mov	w0, #0x0                   	// #0
     2d0:	2a0003e1 	mov	w1, w0
/home/avees/optee_local_build/Linux_for_Tegra/sources/tegra/optee-src/nv-optee/optee/cp4ad-optee/T5.optee_crypto/ta/ta_optee_crypto.c:72 (discriminator 1)
     2d4:	f0000100 	adrp	x0, 23000 <_DYNAMIC>
     2d8:	f9409800 	ldr	x0, [x0, #304]
     2dc:	f94027e2 	ldr	x2, [sp, #72]
     2e0:	f9400003 	ldr	x3, [x0]
     2e4:	eb030042 	subs	x2, x2, x3
     2e8:	d2800003 	mov	x3, #0x0                   	// #0
     2ec:	54000040 	b.eq	2f4 <load_aes_key+0x10c>  // b.none
/home/avees/optee_local_build/Linux_for_Tegra/sources/tegra/optee-src/nv-optee/optee/cp4ad-optee/T5.optee_crypto/ta/ta_optee_crypto.c:72
     2f0:	94000089 	bl	514 <__stack_chk_fail>
     2f4:	2a0103e0 	mov	w0, w1
     2f8:	f9400bf3 	ldr	x19, [sp, #16]
     2fc:	a8c57bfd 	ldp	x29, x30, [sp], #80
     300:	d65f03c0 	ret

0000000000000304 <crypt_data>:
crypt_data():
/home/avees/optee_local_build/Linux_for_Tegra/sources/tegra/optee-src/nv-optee/optee/cp4ad-optee/T5.optee_crypto/ta/ta_optee_crypto.c:75
     304:	a9a67bfd 	stp	x29, x30, [sp, #-416]!
     308:	910003fd 	mov	x29, sp
     30c:	f90017e0 	str	x0, [sp, #40]
     310:	f90013e1 	str	x1, [sp, #32]
     314:	f9000fe2 	str	x2, [sp, #24]
     318:	f0000100 	adrp	x0, 23000 <_DYNAMIC>
     31c:	f9409800 	ldr	x0, [x0, #304]
     320:	f9400001 	ldr	x1, [x0]
     324:	f900cfe1 	str	x1, [sp, #408]
     328:	d2800001 	mov	x1, #0x0                   	// #0
/home/avees/optee_local_build/Linux_for_Tegra/sources/tegra/optee-src/nv-optee/optee/cp4ad-optee/T5.optee_crypto/ta/ta_optee_crypto.c:77
     32c:	d28c4c20 	mov	x0, #0x6261                	// #25185
     330:	f2ac8c60 	movk	x0, #0x6463, lsl #16
     334:	f2cccca0 	movk	x0, #0x6665, lsl #32
     338:	f2e64620 	movk	x0, #0x3231, lsl #48
     33c:	f900b7e0 	str	x0, [sp, #360]
     340:	d2868660 	mov	x0, #0x3433                	// #13363
     344:	f2a6c6a0 	movk	x0, #0x3635, lsl #16
     348:	f2c706e0 	movk	x0, #0x3837, lsl #32
     34c:	f2e60720 	movk	x0, #0x3039, lsl #48
     350:	f900bbe0 	str	x0, [sp, #368]
/home/avees/optee_local_build/Linux_for_Tegra/sources/tegra/optee-src/nv-optee/optee/cp4ad-optee/T5.optee_crypto/ta/ta_optee_crypto.c:80
     354:	910563e0 	add	x0, sp, #0x158
     358:	d2800201 	mov	x1, #0x10                  	// #16
     35c:	97ffffa3 	bl	1e8 <load_aes_key>
     360:	7100001f 	cmp	w0, #0x0
     364:	54000060 	b.eq	370 <crypt_data+0x6c>  // b.none
/home/avees/optee_local_build/Linux_for_Tegra/sources/tegra/optee-src/nv-optee/optee/cp4ad-optee/T5.optee_crypto/ta/ta_optee_crypto.c:81
     368:	129ffee0 	mov	w0, #0xffff0008            	// #-65528
     36c:	14000028 	b	40c <crypt_data+0x108>
/home/avees/optee_local_build/Linux_for_Tegra/sources/tegra/optee-src/nv-optee/optee/cp4ad-optee/T5.optee_crypto/ta/ta_optee_crypto.c:85
     370:	9100e3e0 	add	x0, sp, #0x38
     374:	94003a5d 	bl	ece8 <mbedtls_aes_init>
/home/avees/optee_local_build/Linux_for_Tegra/sources/tegra/optee-src/nv-optee/optee/cp4ad-optee/T5.optee_crypto/ta/ta_optee_crypto.c:88
     378:	910563e1 	add	x1, sp, #0x158
     37c:	9100e3e0 	add	x0, sp, #0x38
     380:	52801002 	mov	w2, #0x80                  	// #128
     384:	94003a70 	bl	ed44 <mbedtls_aes_setkey_enc>
     388:	7100001f 	cmp	w0, #0x0
     38c:	540000a0 	b.eq	3a0 <crypt_data+0x9c>  // b.none
/home/avees/optee_local_build/Linux_for_Tegra/sources/tegra/optee-src/nv-optee/optee/cp4ad-optee/T5.optee_crypto/ta/ta_optee_crypto.c:89
     390:	9100e3e0 	add	x0, sp, #0x38
     394:	94003a5f 	bl	ed10 <mbedtls_aes_free>
/home/avees/optee_local_build/Linux_for_Tegra/sources/tegra/optee-src/nv-optee/optee/cp4ad-optee/T5.optee_crypto/ta/ta_optee_crypto.c:90
     398:	52bfffe0 	mov	w0, #0xffff0000            	// #-65536
     39c:	1400001c 	b	40c <crypt_data+0x108>
/home/avees/optee_local_build/Linux_for_Tegra/sources/tegra/optee-src/nv-optee/optee/cp4ad-optee/T5.optee_crypto/ta/ta_optee_crypto.c:93
     3a0:	f900bfff 	str	xzr, [sp, #376]
     3a4:	f900c3ff 	str	xzr, [sp, #384]
/home/avees/optee_local_build/Linux_for_Tegra/sources/tegra/optee-src/nv-optee/optee/cp4ad-optee/T5.optee_crypto/ta/ta_optee_crypto.c:94
     3a8:	f9001bff 	str	xzr, [sp, #48]
/home/avees/optee_local_build/Linux_for_Tegra/sources/tegra/optee-src/nv-optee/optee/cp4ad-optee/T5.optee_crypto/ta/ta_optee_crypto.c:97
     3ac:	f940b7e0 	ldr	x0, [sp, #360]
     3b0:	f900c7e0 	str	x0, [sp, #392]
     3b4:	f940bbe0 	ldr	x0, [sp, #368]
     3b8:	f900cbe0 	str	x0, [sp, #400]
/home/avees/optee_local_build/Linux_for_Tegra/sources/tegra/optee-src/nv-optee/optee/cp4ad-optee/T5.optee_crypto/ta/ta_optee_crypto.c:101
     3bc:	9105e3e3 	add	x3, sp, #0x178
     3c0:	910623e2 	add	x2, sp, #0x188
     3c4:	9100c3e1 	add	x1, sp, #0x30
     3c8:	9100e3e0 	add	x0, sp, #0x38
     3cc:	f9400fe6 	ldr	x6, [sp, #24]
     3d0:	f94017e5 	ldr	x5, [sp, #40]
     3d4:	aa0303e4 	mov	x4, x3
     3d8:	aa0203e3 	mov	x3, x2
     3dc:	aa0103e2 	mov	x2, x1
     3e0:	f94013e1 	ldr	x1, [sp, #32]
     3e4:	940044d9 	bl	11748 <mbedtls_aes_crypt_ctr>
     3e8:	7100001f 	cmp	w0, #0x0
     3ec:	540000a0 	b.eq	400 <crypt_data+0xfc>  // b.none
/home/avees/optee_local_build/Linux_for_Tegra/sources/tegra/optee-src/nv-optee/optee/cp4ad-optee/T5.optee_crypto/ta/ta_optee_crypto.c:102
     3f0:	9100e3e0 	add	x0, sp, #0x38
     3f4:	94003a47 	bl	ed10 <mbedtls_aes_free>
/home/avees/optee_local_build/Linux_for_Tegra/sources/tegra/optee-src/nv-optee/optee/cp4ad-optee/T5.optee_crypto/ta/ta_optee_crypto.c:103
     3f8:	52bfffe0 	mov	w0, #0xffff0000            	// #-65536
     3fc:	14000004 	b	40c <crypt_data+0x108>
/home/avees/optee_local_build/Linux_for_Tegra/sources/tegra/optee-src/nv-optee/optee/cp4ad-optee/T5.optee_crypto/ta/ta_optee_crypto.c:106
     400:	9100e3e0 	add	x0, sp, #0x38
     404:	94003a43 	bl	ed10 <mbedtls_aes_free>
/home/avees/optee_local_build/Linux_for_Tegra/sources/tegra/optee-src/nv-optee/optee/cp4ad-optee/T5.optee_crypto/ta/ta_optee_crypto.c:107
     408:	52800000 	mov	w0, #0x0                   	// #0
     40c:	2a0003e1 	mov	w1, w0
/home/avees/optee_local_build/Linux_for_Tegra/sources/tegra/optee-src/nv-optee/optee/cp4ad-optee/T5.optee_crypto/ta/ta_optee_crypto.c:108 (discriminator 1)
     410:	f0000100 	adrp	x0, 23000 <_DYNAMIC>
     414:	f9409800 	ldr	x0, [x0, #304]
     418:	f940cfe2 	ldr	x2, [sp, #408]
     41c:	f9400003 	ldr	x3, [x0]
     420:	eb030042 	subs	x2, x2, x3
     424:	d2800003 	mov	x3, #0x0                   	// #0
     428:	54000040 	b.eq	430 <crypt_data+0x12c>  // b.none
/home/avees/optee_local_build/Linux_for_Tegra/sources/tegra/optee-src/nv-optee/optee/cp4ad-optee/T5.optee_crypto/ta/ta_optee_crypto.c:108
     42c:	9400003a 	bl	514 <__stack_chk_fail>
     430:	2a0103e0 	mov	w0, w1
     434:	a8da7bfd 	ldp	x29, x30, [sp], #416
     438:	d65f03c0 	ret

000000000000043c <TA_InvokeCommandEntryPoint>:
TA_InvokeCommandEntryPoint():
/home/avees/optee_local_build/Linux_for_Tegra/sources/tegra/optee-src/nv-optee/optee/cp4ad-optee/T5.optee_crypto/ta/ta_optee_crypto.c:112
     43c:	a9bd7bfd 	stp	x29, x30, [sp, #-48]!
     440:	910003fd 	mov	x29, sp
     444:	f90017e0 	str	x0, [sp, #40]
     448:	b90027e1 	str	w1, [sp, #36]
     44c:	b90023e2 	str	w2, [sp, #32]
     450:	f9000fe3 	str	x3, [sp, #24]
/home/avees/optee_local_build/Linux_for_Tegra/sources/tegra/optee-src/nv-optee/optee/cp4ad-optee/T5.optee_crypto/ta/ta_optee_crypto.c:113
     454:	b94027e0 	ldr	w0, [sp, #36]
     458:	7100041f 	cmp	w0, #0x1
     45c:	540000c1 	b.ne	474 <TA_InvokeCommandEntryPoint+0x38>  // b.any
/home/avees/optee_local_build/Linux_for_Tegra/sources/tegra/optee-src/nv-optee/optee/cp4ad-optee/T5.optee_crypto/ta/ta_optee_crypto.c:114
     460:	f9400fe0 	ldr	x0, [sp, #24]
     464:	f9400000 	ldr	x0, [x0]
     468:	d2800201 	mov	x1, #0x10                  	// #16
     46c:	97ffff25 	bl	100 <save_aes_key>
     470:	14000010 	b	4b0 <TA_InvokeCommandEntryPoint+0x74>
/home/avees/optee_local_build/Linux_for_Tegra/sources/tegra/optee-src/nv-optee/optee/cp4ad-optee/T5.optee_crypto/ta/ta_optee_crypto.c:115
     474:	b94027e0 	ldr	w0, [sp, #36]
     478:	7100001f 	cmp	w0, #0x0
     47c:	54000181 	b.ne	4ac <TA_InvokeCommandEntryPoint+0x70>  // b.any
/home/avees/optee_local_build/Linux_for_Tegra/sources/tegra/optee-src/nv-optee/optee/cp4ad-optee/T5.optee_crypto/ta/ta_optee_crypto.c:116
     480:	f9400fe0 	ldr	x0, [sp, #24]
     484:	f9400003 	ldr	x3, [x0]
     488:	f9400fe0 	ldr	x0, [sp, #24]
     48c:	f9400401 	ldr	x1, [x0, #8]
/home/avees/optee_local_build/Linux_for_Tegra/sources/tegra/optee-src/nv-optee/optee/cp4ad-optee/T5.optee_crypto/ta/ta_optee_crypto.c:117
     490:	f9400fe0 	ldr	x0, [sp, #24]
     494:	91004000 	add	x0, x0, #0x10
     498:	f9400000 	ldr	x0, [x0]
/home/avees/optee_local_build/Linux_for_Tegra/sources/tegra/optee-src/nv-optee/optee/cp4ad-optee/T5.optee_crypto/ta/ta_optee_crypto.c:116
     49c:	aa0003e2 	mov	x2, x0
     4a0:	aa0303e0 	mov	x0, x3
     4a4:	97ffff98 	bl	304 <crypt_data>
     4a8:	14000002 	b	4b0 <TA_InvokeCommandEntryPoint+0x74>
/home/avees/optee_local_build/Linux_for_Tegra/sources/tegra/optee-src/nv-optee/optee/cp4ad-optee/T5.optee_crypto/ta/ta_optee_crypto.c:119
     4ac:	129fff20 	mov	w0, #0xffff0006            	// #-65530
/home/avees/optee_local_build/Linux_for_Tegra/sources/tegra/optee-src/nv-optee/optee/cp4ad-optee/T5.optee_crypto/ta/ta_optee_crypto.c:120
     4b0:	a8c37bfd 	ldp	x29, x30, [sp], #48
     4b4:	d65f03c0 	ret

00000000000004b8 <__ta_entry>:
__ta_entry():
/home/avees/optee_local_build/Linux_for_Tegra/sources/tegra/optee-src/nv-optee/optee/build/t234/export-ta_arm64/src/user_ta_header.c:51
     4b8:	a9bb7bfd 	stp	x29, x30, [sp, #-80]!
     4bc:	910003fd 	mov	x29, sp
     4c0:	f90017e0 	str	x0, [sp, #40]
     4c4:	f90013e1 	str	x1, [sp, #32]
     4c8:	f9000fe2 	str	x2, [sp, #24]
     4cc:	f9000be3 	str	x3, [sp, #16]
     4d0:	f0000100 	adrp	x0, 23000 <_DYNAMIC>
     4d4:	f9409800 	ldr	x0, [x0, #304]
     4d8:	f9400001 	ldr	x1, [x0]
     4dc:	f90027e1 	str	x1, [sp, #72]
     4e0:	d2800001 	mov	x1, #0x0                   	// #0
/home/avees/optee_local_build/Linux_for_Tegra/sources/tegra/optee-src/nv-optee/optee/build/t234/export-ta_arm64/src/user_ta_header.c:53
     4e4:	52bfffe0 	mov	w0, #0xffff0000            	// #-65536
     4e8:	b9003fe0 	str	w0, [sp, #60]
/home/avees/optee_local_build/Linux_for_Tegra/sources/tegra/optee-src/nv-optee/optee/build/t234/export-ta_arm64/src/user_ta_header.c:70
     4ec:	f9400be3 	ldr	x3, [sp, #16]
     4f0:	f9400fe2 	ldr	x2, [sp, #24]
     4f4:	f94013e1 	ldr	x1, [sp, #32]
     4f8:	f94017e0 	ldr	x0, [sp, #40]
     4fc:	94001b53 	bl	7248 <__utee_entry>
     500:	b9003fe0 	str	w0, [sp, #60]
/home/avees/optee_local_build/Linux_for_Tegra/sources/tegra/optee-src/nv-optee/optee/build/t234/export-ta_arm64/src/user_ta_header.c:81
     504:	b9403fe0 	ldr	w0, [sp, #60]
     508:	94001b7e 	bl	7300 <_utee_return>

000000000000050c <tahead_get_trace_level>:
tahead_get_trace_level():
/home/avees/optee_local_build/Linux_for_Tegra/sources/tegra/optee-src/nv-optee/optee/build/t234/export-ta_arm64/src/user_ta_header.c:192
     50c:	52800080 	mov	w0, #0x4                   	// #4
/home/avees/optee_local_build/Linux_for_Tegra/sources/tegra/optee-src/nv-optee/optee/build/t234/export-ta_arm64/src/user_ta_header.c:193
     510:	d65f03c0 	ret

0000000000000514 <__stack_chk_fail>:
__stack_chk_fail():
/home/avees/optee_local_build/Linux_for_Tegra/sources/tegra/optee-src/nv-optee/optee/optee_os/lib/libutils/isoc/stack_check.c:24
     514:	a9bf7bfd 	stp	x29, x30, [sp, #-16]!
     518:	910003fd 	mov	x29, sp
/home/avees/optee_local_build/Linux_for_Tegra/sources/tegra/optee-src/nv-optee/optee/optee_os/lib/libutils/isoc/stack_check.c:25
     51c:	b0000100 	adrp	x0, 21000 <__compound_literal.7+0x134>
     520:	9101a004 	add	x4, x0, #0x68
     524:	52800023 	mov	w3, #0x1                   	// #1
     528:	52800022 	mov	w2, #0x1                   	// #1
     52c:	52800001 	mov	w1, #0x0                   	// #0
     530:	d2800000 	mov	x0, #0x0                   	// #0
     534:	9400008e 	bl	76c <trace_printf>
/home/avees/optee_local_build/Linux_for_Tegra/sources/tegra/optee-src/nv-optee/optee/optee_os/lib/libutils/isoc/stack_check.c:27 (discriminator 1)
     538:	1299fe00 	mov	w0, #0xffff300f            	// #-53233
     53c:	94001b6e 	bl	72f4 <_utee_panic>
     540:	17fffffe 	b	538 <__stack_chk_fail+0x24>

0000000000000544 <strlen>:
strlen():
/home/avees/optee_local_build/Linux_for_Tegra/sources/tegra/optee-src/nv-optee/optee/optee_os/lib/libutils/isoc/newlib/strlen.c:92
     544:	d10083ff 	sub	sp, sp, #0x20
     548:	f90007e0 	str	x0, [sp, #8]
/home/avees/optee_local_build/Linux_for_Tegra/sources/tegra/optee-src/nv-optee/optee/optee_os/lib/libutils/isoc/newlib/strlen.c:93
     54c:	f94007e0 	ldr	x0, [sp, #8]
     550:	f9000fe0 	str	x0, [sp, #24]
/home/avees/optee_local_build/Linux_for_Tegra/sources/tegra/optee-src/nv-optee/optee/optee_os/lib/libutils/isoc/newlib/strlen.c:99
     554:	1400000c 	b	584 <strlen+0x40>
/home/avees/optee_local_build/Linux_for_Tegra/sources/tegra/optee-src/nv-optee/optee/optee_os/lib/libutils/isoc/newlib/strlen.c:100
     558:	f94007e0 	ldr	x0, [sp, #8]
     55c:	39400000 	ldrb	w0, [x0]
     560:	7100001f 	cmp	w0, #0x0
     564:	540000a1 	b.ne	578 <strlen+0x34>  // b.any
/home/avees/optee_local_build/Linux_for_Tegra/sources/tegra/optee-src/nv-optee/optee/optee_os/lib/libutils/isoc/newlib/strlen.c:101
     568:	f94007e1 	ldr	x1, [sp, #8]
     56c:	f9400fe0 	ldr	x0, [sp, #24]
     570:	cb000020 	sub	x0, x1, x0
     574:	14000027 	b	610 <strlen+0xcc>
/home/avees/optee_local_build/Linux_for_Tegra/sources/tegra/optee-src/nv-optee/optee/optee_os/lib/libutils/isoc/newlib/strlen.c:102
     578:	f94007e0 	ldr	x0, [sp, #8]
     57c:	91000400 	add	x0, x0, #0x1
     580:	f90007e0 	str	x0, [sp, #8]
/home/avees/optee_local_build/Linux_for_Tegra/sources/tegra/optee-src/nv-optee/optee/optee_os/lib/libutils/isoc/newlib/strlen.c:99
     584:	f94007e0 	ldr	x0, [sp, #8]
     588:	92400800 	and	x0, x0, #0x7
     58c:	f100001f 	cmp	x0, #0x0
     590:	54fffe41 	b.ne	558 <strlen+0x14>  // b.any
/home/avees/optee_local_build/Linux_for_Tegra/sources/tegra/optee-src/nv-optee/optee/optee_os/lib/libutils/isoc/newlib/strlen.c:107
     594:	f94007e0 	ldr	x0, [sp, #8]
     598:	f9000be0 	str	x0, [sp, #16]
/home/avees/optee_local_build/Linux_for_Tegra/sources/tegra/optee-src/nv-optee/optee/optee_os/lib/libutils/isoc/newlib/strlen.c:108
     59c:	14000004 	b	5ac <strlen+0x68>
/home/avees/optee_local_build/Linux_for_Tegra/sources/tegra/optee-src/nv-optee/optee/optee_os/lib/libutils/isoc/newlib/strlen.c:109
     5a0:	f9400be0 	ldr	x0, [sp, #16]
     5a4:	91002000 	add	x0, x0, #0x8
     5a8:	f9000be0 	str	x0, [sp, #16]
/home/avees/optee_local_build/Linux_for_Tegra/sources/tegra/optee-src/nv-optee/optee/optee_os/lib/libutils/isoc/newlib/strlen.c:108
     5ac:	f9400be0 	ldr	x0, [sp, #16]
     5b0:	f9400001 	ldr	x1, [x0]
     5b4:	b207dbe0 	mov	x0, #0xfefefefefefefefe    	// #-72340172838076674
     5b8:	f29fdfe0 	movk	x0, #0xfeff
     5bc:	8b000021 	add	x1, x1, x0
     5c0:	f9400be0 	ldr	x0, [sp, #16]
     5c4:	f9400000 	ldr	x0, [x0]
     5c8:	aa2003e0 	mvn	x0, x0
     5cc:	8a000020 	and	x0, x1, x0
     5d0:	9201c000 	and	x0, x0, #0x8080808080808080
     5d4:	f100001f 	cmp	x0, #0x0
     5d8:	54fffe40 	b.eq	5a0 <strlen+0x5c>  // b.none
/home/avees/optee_local_build/Linux_for_Tegra/sources/tegra/optee-src/nv-optee/optee/optee_os/lib/libutils/isoc/newlib/strlen.c:113
     5dc:	f9400be0 	ldr	x0, [sp, #16]
     5e0:	f90007e0 	str	x0, [sp, #8]
/home/avees/optee_local_build/Linux_for_Tegra/sources/tegra/optee-src/nv-optee/optee/optee_os/lib/libutils/isoc/newlib/strlen.c:117
     5e4:	14000004 	b	5f4 <strlen+0xb0>
/home/avees/optee_local_build/Linux_for_Tegra/sources/tegra/optee-src/nv-optee/optee/optee_os/lib/libutils/isoc/newlib/strlen.c:118
     5e8:	f94007e0 	ldr	x0, [sp, #8]
     5ec:	91000400 	add	x0, x0, #0x1
     5f0:	f90007e0 	str	x0, [sp, #8]
/home/avees/optee_local_build/Linux_for_Tegra/sources/tegra/optee-src/nv-optee/optee/optee_os/lib/libutils/isoc/newlib/strlen.c:117
     5f4:	f94007e0 	ldr	x0, [sp, #8]
     5f8:	39400000 	ldrb	w0, [x0]
     5fc:	7100001f 	cmp	w0, #0x0
     600:	54ffff41 	b.ne	5e8 <strlen+0xa4>  // b.any
/home/avees/optee_local_build/Linux_for_Tegra/sources/tegra/optee-src/nv-optee/optee/optee_os/lib/libutils/isoc/newlib/strlen.c:119
     604:	f94007e1 	ldr	x1, [sp, #8]
     608:	f9400fe0 	ldr	x0, [sp, #24]
     60c:	cb000020 	sub	x0, x1, x0
/home/avees/optee_local_build/Linux_for_Tegra/sources/tegra/optee-src/nv-optee/optee/optee_os/lib/libutils/isoc/newlib/strlen.c:120
     610:	910083ff 	add	sp, sp, #0x20
     614:	d65f03c0 	ret

0000000000000618 <trace_set_level>:
trace_set_level():
/home/avees/optee_local_build/Linux_for_Tegra/sources/tegra/optee-src/nv-optee/optee/optee_os/lib/libutils/ext/trace.c:24
     618:	d10043ff 	sub	sp, sp, #0x10
     61c:	b9000fe0 	str	w0, [sp, #12]
/home/avees/optee_local_build/Linux_for_Tegra/sources/tegra/optee-src/nv-optee/optee/optee_os/lib/libutils/ext/trace.c:25
     620:	b9400fe0 	ldr	w0, [sp, #12]
     624:	7100001f 	cmp	w0, #0x0
     628:	5400012b 	b.lt	64c <trace_set_level+0x34>  // b.tstop
/home/avees/optee_local_build/Linux_for_Tegra/sources/tegra/optee-src/nv-optee/optee/optee_os/lib/libutils/ext/trace.c:25 (discriminator 1)
     62c:	b9400fe0 	ldr	w0, [sp, #12]
     630:	7100101f 	cmp	w0, #0x4
     634:	540000cc 	b.gt	64c <trace_set_level+0x34>
/home/avees/optee_local_build/Linux_for_Tegra/sources/tegra/optee-src/nv-optee/optee/optee_os/lib/libutils/ext/trace.c:26
     638:	f0000100 	adrp	x0, 23000 <_DYNAMIC>
     63c:	f940a800 	ldr	x0, [x0, #336]
     640:	b9400fe1 	ldr	w1, [sp, #12]
     644:	b9000001 	str	w1, [x0]
     648:	14000006 	b	660 <trace_set_level+0x48>
/home/avees/optee_local_build/Linux_for_Tegra/sources/tegra/optee-src/nv-optee/optee/optee_os/lib/libutils/ext/trace.c:28
     64c:	f0000100 	adrp	x0, 23000 <_DYNAMIC>
     650:	f940a800 	ldr	x0, [x0, #336]
     654:	52800081 	mov	w1, #0x4                   	// #4
     658:	b9000001 	str	w1, [x0]
/home/avees/optee_local_build/Linux_for_Tegra/sources/tegra/optee-src/nv-optee/optee/optee_os/lib/libutils/ext/trace.c:29
     65c:	d503201f 	nop
     660:	d503201f 	nop
     664:	910043ff 	add	sp, sp, #0x10
     668:	d65f03c0 	ret

000000000000066c <trace_get_level>:
trace_get_level():
/home/avees/optee_local_build/Linux_for_Tegra/sources/tegra/optee-src/nv-optee/optee/optee_os/lib/libutils/ext/trace.c:33
     66c:	f0000100 	adrp	x0, 23000 <_DYNAMIC>
     670:	f940a800 	ldr	x0, [x0, #336]
     674:	b9400000 	ldr	w0, [x0]
/home/avees/optee_local_build/Linux_for_Tegra/sources/tegra/optee-src/nv-optee/optee/optee_os/lib/libutils/ext/trace.c:34
     678:	d65f03c0 	ret

000000000000067c <trace_level_to_string>:
trace_level_to_string():
/home/avees/optee_local_build/Linux_for_Tegra/sources/tegra/optee-src/nv-optee/optee/optee_os/lib/libutils/ext/trace.c:37
     67c:	d10083ff 	sub	sp, sp, #0x20
     680:	b9000fe0 	str	w0, [sp, #12]
     684:	39002fe1 	strb	w1, [sp, #11]
/home/avees/optee_local_build/Linux_for_Tegra/sources/tegra/optee-src/nv-optee/optee/optee_os/lib/libutils/ext/trace.c:46
     688:	b9001fff 	str	wzr, [sp, #28]
/home/avees/optee_local_build/Linux_for_Tegra/sources/tegra/optee-src/nv-optee/optee/optee_os/lib/libutils/ext/trace.c:48
     68c:	39402fe0 	ldrb	w0, [sp, #11]
     690:	52000000 	eor	w0, w0, #0x1
     694:	12001c00 	and	w0, w0, #0xff
     698:	7100001f 	cmp	w0, #0x0
     69c:	54000060 	b.eq	6a8 <trace_level_to_string+0x2c>  // b.none
/home/avees/optee_local_build/Linux_for_Tegra/sources/tegra/optee-src/nv-optee/optee/optee_os/lib/libutils/ext/trace.c:49
     6a0:	528009a0 	mov	w0, #0x4d                  	// #77
     6a4:	1400000d 	b	6d8 <trace_level_to_string+0x5c>
/home/avees/optee_local_build/Linux_for_Tegra/sources/tegra/optee-src/nv-optee/optee/optee_os/lib/libutils/ext/trace.c:51
     6a8:	b9400fe0 	ldr	w0, [sp, #12]
     6ac:	7100001f 	cmp	w0, #0x0
     6b0:	540000cb 	b.lt	6c8 <trace_level_to_string+0x4c>  // b.tstop
/home/avees/optee_local_build/Linux_for_Tegra/sources/tegra/optee-src/nv-optee/optee/optee_os/lib/libutils/ext/trace.c:51 (discriminator 1)
     6b4:	b9400fe0 	ldr	w0, [sp, #12]
     6b8:	7100101f 	cmp	w0, #0x4
     6bc:	5400006c 	b.gt	6c8 <trace_level_to_string+0x4c>
/home/avees/optee_local_build/Linux_for_Tegra/sources/tegra/optee-src/nv-optee/optee/optee_os/lib/libutils/ext/trace.c:52
     6c0:	b9400fe0 	ldr	w0, [sp, #12]
     6c4:	b9001fe0 	str	w0, [sp, #28]
/home/avees/optee_local_build/Linux_for_Tegra/sources/tegra/optee-src/nv-optee/optee/optee_os/lib/libutils/ext/trace.c:54
     6c8:	b0000100 	adrp	x0, 21000 <__compound_literal.7+0x134>
     6cc:	91038001 	add	x1, x0, #0xe0
     6d0:	b9801fe0 	ldrsw	x0, [sp, #28]
     6d4:	38606820 	ldrb	w0, [x1, x0]
/home/avees/optee_local_build/Linux_for_Tegra/sources/tegra/optee-src/nv-optee/optee/optee_os/lib/libutils/ext/trace.c:55
     6d8:	910083ff 	add	sp, sp, #0x20
     6dc:	d65f03c0 	ret

00000000000006e0 <print_thread_id>:
print_thread_id():
/home/avees/optee_local_build/Linux_for_Tegra/sources/tegra/optee-src/nv-optee/optee/optee_os/lib/libutils/ext/trace.c:58
     6e0:	a9bd7bfd 	stp	x29, x30, [sp, #-48]!
     6e4:	910003fd 	mov	x29, sp
     6e8:	f9000fe0 	str	x0, [sp, #24]
     6ec:	f9000be1 	str	x1, [sp, #16]
/home/avees/optee_local_build/Linux_for_Tegra/sources/tegra/optee-src/nv-optee/optee/optee_os/lib/libutils/ext/trace.c:62
     6f0:	52800040 	mov	w0, #0x2                   	// #2
     6f4:	b9002be0 	str	w0, [sp, #40]
/home/avees/optee_local_build/Linux_for_Tegra/sources/tegra/optee-src/nv-optee/optee/optee_os/lib/libutils/ext/trace.c:66
     6f8:	94000aa4 	bl	3188 <trace_ext_get_thread_id>
     6fc:	b9002fe0 	str	w0, [sp, #44]
/home/avees/optee_local_build/Linux_for_Tegra/sources/tegra/optee-src/nv-optee/optee/optee_os/lib/libutils/ext/trace.c:68
     700:	b9402fe0 	ldr	w0, [sp, #44]
     704:	7100001f 	cmp	w0, #0x0
     708:	5400012b 	b.lt	72c <print_thread_id+0x4c>  // b.tstop
/home/avees/optee_local_build/Linux_for_Tegra/sources/tegra/optee-src/nv-optee/optee/optee_os/lib/libutils/ext/trace.c:69
     70c:	b9402fe4 	ldr	w4, [sp, #44]
     710:	b9402be3 	ldr	w3, [sp, #40]
     714:	b0000100 	adrp	x0, 21000 <__compound_literal.7+0x134>
     718:	91020002 	add	x2, x0, #0x80
     71c:	f9400be1 	ldr	x1, [sp, #16]
     720:	f9400fe0 	ldr	x0, [sp, #24]
     724:	9400021a 	bl	f8c <snprintk>
     728:	14000009 	b	74c <print_thread_id+0x6c>
/home/avees/optee_local_build/Linux_for_Tegra/sources/tegra/optee-src/nv-optee/optee/optee_os/lib/libutils/ext/trace.c:71
     72c:	b0000100 	adrp	x0, 21000 <__compound_literal.7+0x134>
     730:	91022004 	add	x4, x0, #0x88
     734:	b9402be3 	ldr	w3, [sp, #40]
     738:	b0000100 	adrp	x0, 21000 <__compound_literal.7+0x134>
     73c:	91024002 	add	x2, x0, #0x90
     740:	f9400be1 	ldr	x1, [sp, #16]
     744:	f9400fe0 	ldr	x0, [sp, #24]
     748:	94000211 	bl	f8c <snprintk>
/home/avees/optee_local_build/Linux_for_Tegra/sources/tegra/optee-src/nv-optee/optee/optee_os/lib/libutils/ext/trace.c:72
     74c:	a8c37bfd 	ldp	x29, x30, [sp], #48
     750:	d65f03c0 	ret

0000000000000754 <print_core_id>:
print_core_id():
/home/avees/optee_local_build/Linux_for_Tegra/sources/tegra/optee-src/nv-optee/optee/optee_os/lib/libutils/ext/trace.c:96
     754:	d10043ff 	sub	sp, sp, #0x10
     758:	f90007e0 	str	x0, [sp, #8]
     75c:	f90003e1 	str	x1, [sp]
/home/avees/optee_local_build/Linux_for_Tegra/sources/tegra/optee-src/nv-optee/optee/optee_os/lib/libutils/ext/trace.c:97
     760:	52800000 	mov	w0, #0x0                   	// #0
/home/avees/optee_local_build/Linux_for_Tegra/sources/tegra/optee-src/nv-optee/optee/optee_os/lib/libutils/ext/trace.c:98
     764:	910043ff 	add	sp, sp, #0x10
     768:	d65f03c0 	ret

000000000000076c <trace_printf>:
trace_printf():
/home/avees/optee_local_build/Linux_for_Tegra/sources/tegra/optee-src/nv-optee/optee/optee_os/lib/libutils/ext/trace.c:104
     76c:	a9ae7bfd 	stp	x29, x30, [sp, #-288]!
     770:	910003fd 	mov	x29, sp
     774:	f90027e0 	str	x0, [sp, #72]
     778:	b90047e1 	str	w1, [sp, #68]
     77c:	b90043e2 	str	w2, [sp, #64]
     780:	3900ffe3 	strb	w3, [sp, #63]
     784:	f9001be4 	str	x4, [sp, #48]
     788:	f90087e5 	str	x5, [sp, #264]
     78c:	f9008be6 	str	x6, [sp, #272]
     790:	f9008fe7 	str	x7, [sp, #280]
     794:	3d8023e0 	str	q0, [sp, #128]
     798:	3d8027e1 	str	q1, [sp, #144]
     79c:	3d802be2 	str	q2, [sp, #160]
     7a0:	3d802fe3 	str	q3, [sp, #176]
     7a4:	3d8033e4 	str	q4, [sp, #192]
     7a8:	3d8037e5 	str	q5, [sp, #208]
     7ac:	3d803be6 	str	q6, [sp, #224]
     7b0:	3d803fe7 	str	q7, [sp, #240]
     7b4:	f0000100 	adrp	x0, 23000 <_DYNAMIC>
     7b8:	f9409800 	ldr	x0, [x0, #304]
     7bc:	f9400001 	ldr	x1, [x0]
     7c0:	f9003fe1 	str	x1, [sp, #120]
     7c4:	d2800001 	mov	x1, #0x0                   	// #0
/home/avees/optee_local_build/Linux_for_Tegra/sources/tegra/optee-src/nv-optee/optee/optee_os/lib/libutils/ext/trace.c:107
     7c8:	910483e0 	add	x0, sp, #0x120
     7cc:	f9002fe0 	str	x0, [sp, #88]
     7d0:	910483e0 	add	x0, sp, #0x120
     7d4:	f90033e0 	str	x0, [sp, #96]
     7d8:	910403e0 	add	x0, sp, #0x100
     7dc:	f90037e0 	str	x0, [sp, #104]
     7e0:	128002e0 	mov	w0, #0xffffffe8            	// #-24
     7e4:	b90073e0 	str	w0, [sp, #112]
     7e8:	12800fe0 	mov	w0, #0xffffff80            	// #-128
     7ec:	b90077e0 	str	w0, [sp, #116]
/home/avees/optee_local_build/Linux_for_Tegra/sources/tegra/optee-src/nv-optee/optee/optee_os/lib/libutils/ext/trace.c:108
     7f0:	f9402fe0 	ldr	x0, [sp, #88]
     7f4:	f9000be0 	str	x0, [sp, #16]
     7f8:	f94033e0 	ldr	x0, [sp, #96]
     7fc:	f9000fe0 	str	x0, [sp, #24]
     800:	f94037e0 	ldr	x0, [sp, #104]
     804:	f90013e0 	str	x0, [sp, #32]
     808:	f9403be0 	ldr	x0, [sp, #112]
     80c:	f90017e0 	str	x0, [sp, #40]
     810:	910043e0 	add	x0, sp, #0x10
     814:	aa0003e5 	mov	x5, x0
     818:	f9401be4 	ldr	x4, [sp, #48]
     81c:	3940ffe3 	ldrb	w3, [sp, #63]
     820:	b94043e2 	ldr	w2, [sp, #64]
     824:	b94047e1 	ldr	w1, [sp, #68]
     828:	f94027e0 	ldr	x0, [sp, #72]
     82c:	9400000c 	bl	85c <trace_vprintf>
/home/avees/optee_local_build/Linux_for_Tegra/sources/tegra/optee-src/nv-optee/optee/optee_os/lib/libutils/ext/trace.c:110
     830:	d503201f 	nop
     834:	f0000100 	adrp	x0, 23000 <_DYNAMIC>
     838:	f9409800 	ldr	x0, [x0, #304]
     83c:	f9403fe1 	ldr	x1, [sp, #120]
     840:	f9400002 	ldr	x2, [x0]
     844:	eb020021 	subs	x1, x1, x2
     848:	d2800002 	mov	x2, #0x0                   	// #0
     84c:	54000040 	b.eq	854 <trace_printf+0xe8>  // b.none
     850:	97ffff31 	bl	514 <__stack_chk_fail>
     854:	a8d27bfd 	ldp	x29, x30, [sp], #288
     858:	d65f03c0 	ret

000000000000085c <trace_vprintf>:
trace_vprintf():
/home/avees/optee_local_build/Linux_for_Tegra/sources/tegra/optee-src/nv-optee/optee/optee_os/lib/libutils/ext/trace.c:113
     85c:	a9a87bfd 	stp	x29, x30, [sp, #-384]!
     860:	910003fd 	mov	x29, sp
     864:	f9000bf3 	str	x19, [sp, #16]
     868:	f9002fe0 	str	x0, [sp, #88]
     86c:	b90057e1 	str	w1, [sp, #84]
     870:	b90053e2 	str	w2, [sp, #80]
     874:	39013fe3 	strb	w3, [sp, #79]
     878:	f90023e4 	str	x4, [sp, #64]
     87c:	aa0503f3 	mov	x19, x5
     880:	f0000100 	adrp	x0, 23000 <_DYNAMIC>
     884:	f9409800 	ldr	x0, [x0, #304]
     888:	f9400001 	ldr	x1, [x0]
     88c:	f900bfe1 	str	x1, [sp, #376]
     890:	d2800001 	mov	x1, #0x0                   	// #0
/home/avees/optee_local_build/Linux_for_Tegra/sources/tegra/optee-src/nv-optee/optee/optee_os/lib/libutils/ext/trace.c:115
     894:	f9003bff 	str	xzr, [sp, #112]
/home/avees/optee_local_build/Linux_for_Tegra/sources/tegra/optee-src/nv-optee/optee/optee_os/lib/libutils/ext/trace.c:118
     898:	39413fe0 	ldrb	w0, [sp, #79]
     89c:	7100001f 	cmp	w0, #0x0
     8a0:	540000e0 	b.eq	8bc <trace_vprintf+0x60>  // b.none
/home/avees/optee_local_build/Linux_for_Tegra/sources/tegra/optee-src/nv-optee/optee/optee_os/lib/libutils/ext/trace.c:118 (discriminator 1)
     8a4:	f0000100 	adrp	x0, 23000 <_DYNAMIC>
     8a8:	f940a800 	ldr	x0, [x0, #336]
     8ac:	b9400000 	ldr	w0, [x0]
     8b0:	b94053e1 	ldr	w1, [sp, #80]
     8b4:	6b00003f 	cmp	w1, w0
     8b8:	5400162c 	b.gt	b7c <trace_vprintf+0x320>
/home/avees/optee_local_build/Linux_for_Tegra/sources/tegra/optee-src/nv-optee/optee/optee_os/lib/libutils/ext/trace.c:123
     8bc:	39413fe1 	ldrb	w1, [sp, #79]
     8c0:	b94053e0 	ldr	w0, [sp, #80]
     8c4:	97ffff6e 	bl	67c <trace_level_to_string>
     8c8:	12001c00 	and	w0, w0, #0xff
/home/avees/optee_local_build/Linux_for_Tegra/sources/tegra/optee-src/nv-optee/optee/optee_os/lib/libutils/ext/trace.c:122
     8cc:	9101e3e4 	add	x4, sp, #0x78
     8d0:	2a0003e3 	mov	w3, w0
     8d4:	b0000100 	adrp	x0, 21000 <__compound_literal.7+0x134>
     8d8:	91026002 	add	x2, x0, #0x98
     8dc:	d2802001 	mov	x1, #0x100                 	// #256
     8e0:	aa0403e0 	mov	x0, x4
     8e4:	940001aa 	bl	f8c <snprintk>
     8e8:	b9006fe0 	str	w0, [sp, #108]
/home/avees/optee_local_build/Linux_for_Tegra/sources/tegra/optee-src/nv-optee/optee/optee_os/lib/libutils/ext/trace.c:124
     8ec:	b9406fe0 	ldr	w0, [sp, #108]
     8f0:	7100001f 	cmp	w0, #0x0
     8f4:	5400148b 	b.lt	b84 <trace_vprintf+0x328>  // b.tstop
/home/avees/optee_local_build/Linux_for_Tegra/sources/tegra/optee-src/nv-optee/optee/optee_os/lib/libutils/ext/trace.c:126
     8f8:	b9806fe0 	ldrsw	x0, [sp, #108]
     8fc:	f9403be1 	ldr	x1, [sp, #112]
     900:	8b000020 	add	x0, x1, x0
     904:	f9003be0 	str	x0, [sp, #112]
/home/avees/optee_local_build/Linux_for_Tegra/sources/tegra/optee-src/nv-optee/optee/optee_os/lib/libutils/ext/trace.c:129
     908:	9101e3e1 	add	x1, sp, #0x78
     90c:	f9403be0 	ldr	x0, [sp, #112]
     910:	8b000024 	add	x4, x1, x0
     914:	d2802001 	mov	x1, #0x100                 	// #256
     918:	f9403be0 	ldr	x0, [sp, #112]
     91c:	cb000021 	sub	x1, x1, x0
     920:	f0000100 	adrp	x0, 23000 <_DYNAMIC>
     924:	f940b003 	ldr	x3, [x0, #352]
     928:	b0000100 	adrp	x0, 21000 <__compound_literal.7+0x134>
     92c:	91028002 	add	x2, x0, #0xa0
     930:	aa0403e0 	mov	x0, x4
     934:	94000196 	bl	f8c <snprintk>
     938:	b9006fe0 	str	w0, [sp, #108]
/home/avees/optee_local_build/Linux_for_Tegra/sources/tegra/optee-src/nv-optee/optee/optee_os/lib/libutils/ext/trace.c:131
     93c:	b9406fe0 	ldr	w0, [sp, #108]
     940:	7100001f 	cmp	w0, #0x0
     944:	5400124b 	b.lt	b8c <trace_vprintf+0x330>  // b.tstop
/home/avees/optee_local_build/Linux_for_Tegra/sources/tegra/optee-src/nv-optee/optee/optee_os/lib/libutils/ext/trace.c:133
     948:	b9806fe0 	ldrsw	x0, [sp, #108]
     94c:	f9403be1 	ldr	x1, [sp, #112]
     950:	8b000020 	add	x0, x1, x0
     954:	f9003be0 	str	x0, [sp, #112]
/home/avees/optee_local_build/Linux_for_Tegra/sources/tegra/optee-src/nv-optee/optee/optee_os/lib/libutils/ext/trace.c:135
     958:	39413fe0 	ldrb	w0, [sp, #79]
     95c:	7100001f 	cmp	w0, #0x0
     960:	54000820 	b.eq	a64 <trace_vprintf+0x208>  // b.none
/home/avees/optee_local_build/Linux_for_Tegra/sources/tegra/optee-src/nv-optee/optee/optee_os/lib/libutils/ext/trace.c:135 (discriminator 1)
     964:	b94053e0 	ldr	w0, [sp, #80]
     968:	52800341 	mov	w1, #0x1a                  	// #26
     96c:	1ac02420 	lsr	w0, w1, w0
     970:	12000000 	and	w0, w0, #0x1
     974:	7100001f 	cmp	w0, #0x0
     978:	54000760 	b.eq	a64 <trace_vprintf+0x208>  // b.none
/home/avees/optee_local_build/Linux_for_Tegra/sources/tegra/optee-src/nv-optee/optee/optee_os/lib/libutils/ext/trace.c:137
     97c:	9101e3e1 	add	x1, sp, #0x78
     980:	f9403be0 	ldr	x0, [sp, #112]
     984:	8b000022 	add	x2, x1, x0
     988:	d2802001 	mov	x1, #0x100                 	// #256
     98c:	f9403be0 	ldr	x0, [sp, #112]
     990:	cb000020 	sub	x0, x1, x0
     994:	aa0003e1 	mov	x1, x0
     998:	aa0203e0 	mov	x0, x2
     99c:	97ffff6e 	bl	754 <print_core_id>
     9a0:	b9006fe0 	str	w0, [sp, #108]
/home/avees/optee_local_build/Linux_for_Tegra/sources/tegra/optee-src/nv-optee/optee/optee_os/lib/libutils/ext/trace.c:138
     9a4:	b9406fe0 	ldr	w0, [sp, #108]
     9a8:	7100001f 	cmp	w0, #0x0
     9ac:	54000f4b 	b.lt	b94 <trace_vprintf+0x338>  // b.tstop
/home/avees/optee_local_build/Linux_for_Tegra/sources/tegra/optee-src/nv-optee/optee/optee_os/lib/libutils/ext/trace.c:140
     9b0:	b9806fe0 	ldrsw	x0, [sp, #108]
     9b4:	f9403be1 	ldr	x1, [sp, #112]
     9b8:	8b000020 	add	x0, x1, x0
     9bc:	f9003be0 	str	x0, [sp, #112]
/home/avees/optee_local_build/Linux_for_Tegra/sources/tegra/optee-src/nv-optee/optee/optee_os/lib/libutils/ext/trace.c:143
     9c0:	9101e3e1 	add	x1, sp, #0x78
     9c4:	f9403be0 	ldr	x0, [sp, #112]
     9c8:	8b000022 	add	x2, x1, x0
     9cc:	d2802001 	mov	x1, #0x100                 	// #256
     9d0:	f9403be0 	ldr	x0, [sp, #112]
     9d4:	cb000020 	sub	x0, x1, x0
     9d8:	aa0003e1 	mov	x1, x0
     9dc:	aa0203e0 	mov	x0, x2
     9e0:	97ffff40 	bl	6e0 <print_thread_id>
     9e4:	b9006fe0 	str	w0, [sp, #108]
/home/avees/optee_local_build/Linux_for_Tegra/sources/tegra/optee-src/nv-optee/optee/optee_os/lib/libutils/ext/trace.c:144
     9e8:	b9406fe0 	ldr	w0, [sp, #108]
     9ec:	7100001f 	cmp	w0, #0x0
     9f0:	54000d6b 	b.lt	b9c <trace_vprintf+0x340>  // b.tstop
/home/avees/optee_local_build/Linux_for_Tegra/sources/tegra/optee-src/nv-optee/optee/optee_os/lib/libutils/ext/trace.c:146
     9f4:	b9806fe0 	ldrsw	x0, [sp, #108]
     9f8:	f9403be1 	ldr	x1, [sp, #112]
     9fc:	8b000020 	add	x0, x1, x0
     a00:	f9003be0 	str	x0, [sp, #112]
/home/avees/optee_local_build/Linux_for_Tegra/sources/tegra/optee-src/nv-optee/optee/optee_os/lib/libutils/ext/trace.c:148
     a04:	f9402fe0 	ldr	x0, [sp, #88]
     a08:	f100001f 	cmp	x0, #0x0
     a0c:	54000440 	b.eq	a94 <trace_vprintf+0x238>  // b.none
/home/avees/optee_local_build/Linux_for_Tegra/sources/tegra/optee-src/nv-optee/optee/optee_os/lib/libutils/ext/trace.c:149
     a10:	9101e3e1 	add	x1, sp, #0x78
     a14:	f9403be0 	ldr	x0, [sp, #112]
     a18:	8b000025 	add	x5, x1, x0
     a1c:	d2802001 	mov	x1, #0x100                 	// #256
     a20:	f9403be0 	ldr	x0, [sp, #112]
     a24:	cb000021 	sub	x1, x1, x0
     a28:	b94057e4 	ldr	w4, [sp, #84]
     a2c:	f9402fe3 	ldr	x3, [sp, #88]
     a30:	b0000100 	adrp	x0, 21000 <__compound_literal.7+0x134>
     a34:	9102a002 	add	x2, x0, #0xa8
     a38:	aa0503e0 	mov	x0, x5
     a3c:	94000154 	bl	f8c <snprintk>
     a40:	b9006fe0 	str	w0, [sp, #108]
/home/avees/optee_local_build/Linux_for_Tegra/sources/tegra/optee-src/nv-optee/optee/optee_os/lib/libutils/ext/trace.c:151
     a44:	b9406fe0 	ldr	w0, [sp, #108]
     a48:	7100001f 	cmp	w0, #0x0
     a4c:	54000acb 	b.lt	ba4 <trace_vprintf+0x348>  // b.tstop
/home/avees/optee_local_build/Linux_for_Tegra/sources/tegra/optee-src/nv-optee/optee/optee_os/lib/libutils/ext/trace.c:153
     a50:	b9806fe0 	ldrsw	x0, [sp, #108]
     a54:	f9403be1 	ldr	x1, [sp, #112]
     a58:	8b000020 	add	x0, x1, x0
     a5c:	f9003be0 	str	x0, [sp, #112]
/home/avees/optee_local_build/Linux_for_Tegra/sources/tegra/optee-src/nv-optee/optee/optee_os/lib/libutils/ext/trace.c:148
     a60:	1400000d 	b	a94 <trace_vprintf+0x238>
/home/avees/optee_local_build/Linux_for_Tegra/sources/tegra/optee-src/nv-optee/optee/optee_os/lib/libutils/ext/trace.c:157
     a64:	f9403be0 	ldr	x0, [sp, #112]
     a68:	f103f81f 	cmp	x0, #0xfe
     a6c:	54000a08 	b.hi	bac <trace_vprintf+0x350>  // b.pmore
/home/avees/optee_local_build/Linux_for_Tegra/sources/tegra/optee-src/nv-optee/optee/optee_os/lib/libutils/ext/trace.c:159
     a70:	f9403be0 	ldr	x0, [sp, #112]
     a74:	91000401 	add	x1, x0, #0x1
     a78:	f9003be1 	str	x1, [sp, #112]
     a7c:	9101e3e1 	add	x1, sp, #0x78
     a80:	52800402 	mov	w2, #0x20                  	// #32
     a84:	38206822 	strb	w2, [x1, x0]
/home/avees/optee_local_build/Linux_for_Tegra/sources/tegra/optee-src/nv-optee/optee/optee_os/lib/libutils/ext/trace.c:160
     a88:	f9403be0 	ldr	x0, [sp, #112]
     a8c:	9101e3e1 	add	x1, sp, #0x78
     a90:	3820683f 	strb	wzr, [x1, x0]
/home/avees/optee_local_build/Linux_for_Tegra/sources/tegra/optee-src/nv-optee/optee/optee_os/lib/libutils/ext/trace.c:163
     a94:	9101e3e1 	add	x1, sp, #0x78
     a98:	f9403be0 	ldr	x0, [sp, #112]
     a9c:	8b000024 	add	x4, x1, x0
     aa0:	d2802001 	mov	x1, #0x100                 	// #256
     aa4:	f9403be0 	ldr	x0, [sp, #112]
     aa8:	cb000021 	sub	x1, x1, x0
     aac:	f9400260 	ldr	x0, [x19]
     ab0:	f90013e0 	str	x0, [sp, #32]
     ab4:	f9400660 	ldr	x0, [x19, #8]
     ab8:	f90017e0 	str	x0, [sp, #40]
     abc:	f9400a60 	ldr	x0, [x19, #16]
     ac0:	f9001be0 	str	x0, [sp, #48]
     ac4:	f9400e60 	ldr	x0, [x19, #24]
     ac8:	f9001fe0 	str	x0, [sp, #56]
     acc:	910083e0 	add	x0, sp, #0x20
     ad0:	aa0003e3 	mov	x3, x0
     ad4:	f94023e2 	ldr	x2, [sp, #64]
     ad8:	aa0403e0 	mov	x0, x4
     adc:	94000169 	bl	1080 <vsnprintk>
     ae0:	b9006fe0 	str	w0, [sp, #108]
/home/avees/optee_local_build/Linux_for_Tegra/sources/tegra/optee-src/nv-optee/optee/optee_os/lib/libutils/ext/trace.c:164
     ae4:	b9406fe0 	ldr	w0, [sp, #108]
     ae8:	7100001f 	cmp	w0, #0x0
     aec:	540000ad 	b.le	b00 <trace_vprintf+0x2a4>
/home/avees/optee_local_build/Linux_for_Tegra/sources/tegra/optee-src/nv-optee/optee/optee_os/lib/libutils/ext/trace.c:165
     af0:	b9806fe0 	ldrsw	x0, [sp, #108]
     af4:	f9403be1 	ldr	x1, [sp, #112]
     af8:	8b000020 	add	x0, x1, x0
     afc:	f9003be0 	str	x0, [sp, #112]
/home/avees/optee_local_build/Linux_for_Tegra/sources/tegra/optee-src/nv-optee/optee/optee_os/lib/libutils/ext/trace.c:167
     b00:	f9403be0 	ldr	x0, [sp, #112]
     b04:	f103f81f 	cmp	x0, #0xfe
     b08:	54000069 	b.ls	b14 <trace_vprintf+0x2b8>  // b.plast
/home/avees/optee_local_build/Linux_for_Tegra/sources/tegra/optee-src/nv-optee/optee/optee_os/lib/libutils/ext/trace.c:168
     b0c:	d2801fc0 	mov	x0, #0xfe                  	// #254
     b10:	f9003be0 	str	x0, [sp, #112]
/home/avees/optee_local_build/Linux_for_Tegra/sources/tegra/optee-src/nv-optee/optee/optee_os/lib/libutils/ext/trace.c:170
     b14:	f9403be0 	ldr	x0, [sp, #112]
     b18:	9101e3e1 	add	x1, sp, #0x78
     b1c:	52800142 	mov	w2, #0xa                   	// #10
     b20:	38206822 	strb	w2, [x1, x0]
/home/avees/optee_local_build/Linux_for_Tegra/sources/tegra/optee-src/nv-optee/optee/optee_os/lib/libutils/ext/trace.c:171
     b24:	14000004 	b	b34 <trace_vprintf+0x2d8>
/home/avees/optee_local_build/Linux_for_Tegra/sources/tegra/optee-src/nv-optee/optee/optee_os/lib/libutils/ext/trace.c:172
     b28:	f9403be0 	ldr	x0, [sp, #112]
     b2c:	d1000400 	sub	x0, x0, #0x1
     b30:	f9003be0 	str	x0, [sp, #112]
/home/avees/optee_local_build/Linux_for_Tegra/sources/tegra/optee-src/nv-optee/optee/optee_os/lib/libutils/ext/trace.c:171
     b34:	f9403be0 	ldr	x0, [sp, #112]
     b38:	f100001f 	cmp	x0, #0x0
     b3c:	540000c0 	b.eq	b54 <trace_vprintf+0x2f8>  // b.none
/home/avees/optee_local_build/Linux_for_Tegra/sources/tegra/optee-src/nv-optee/optee/optee_os/lib/libutils/ext/trace.c:171 (discriminator 1)
     b40:	f9403be0 	ldr	x0, [sp, #112]
     b44:	9101e3e1 	add	x1, sp, #0x78
     b48:	38606820 	ldrb	w0, [x1, x0]
     b4c:	7100281f 	cmp	w0, #0xa
     b50:	54fffec0 	b.eq	b28 <trace_vprintf+0x2cc>  // b.none
/home/avees/optee_local_build/Linux_for_Tegra/sources/tegra/optee-src/nv-optee/optee/optee_os/lib/libutils/ext/trace.c:173
     b54:	f9403be0 	ldr	x0, [sp, #112]
     b58:	91000400 	add	x0, x0, #0x1
     b5c:	f9003be0 	str	x0, [sp, #112]
/home/avees/optee_local_build/Linux_for_Tegra/sources/tegra/optee-src/nv-optee/optee/optee_os/lib/libutils/ext/trace.c:174
     b60:	f9403be0 	ldr	x0, [sp, #112]
     b64:	91000400 	add	x0, x0, #0x1
     b68:	9101e3e1 	add	x1, sp, #0x78
     b6c:	3820683f 	strb	wzr, [x1, x0]
/home/avees/optee_local_build/Linux_for_Tegra/sources/tegra/optee-src/nv-optee/optee/optee_os/lib/libutils/ext/trace.c:176
     b70:	9101e3e0 	add	x0, sp, #0x78
     b74:	9400097a 	bl	315c <trace_ext_puts>
     b78:	1400000e 	b	bb0 <trace_vprintf+0x354>
/home/avees/optee_local_build/Linux_for_Tegra/sources/tegra/optee-src/nv-optee/optee/optee_os/lib/libutils/ext/trace.c:119
     b7c:	d503201f 	nop
     b80:	1400000c 	b	bb0 <trace_vprintf+0x354>
/home/avees/optee_local_build/Linux_for_Tegra/sources/tegra/optee-src/nv-optee/optee/optee_os/lib/libutils/ext/trace.c:125
     b84:	d503201f 	nop
     b88:	1400000a 	b	bb0 <trace_vprintf+0x354>
/home/avees/optee_local_build/Linux_for_Tegra/sources/tegra/optee-src/nv-optee/optee/optee_os/lib/libutils/ext/trace.c:132
     b8c:	d503201f 	nop
     b90:	14000008 	b	bb0 <trace_vprintf+0x354>
/home/avees/optee_local_build/Linux_for_Tegra/sources/tegra/optee-src/nv-optee/optee/optee_os/lib/libutils/ext/trace.c:139
     b94:	d503201f 	nop
     b98:	14000006 	b	bb0 <trace_vprintf+0x354>
/home/avees/optee_local_build/Linux_for_Tegra/sources/tegra/optee-src/nv-optee/optee/optee_os/lib/libutils/ext/trace.c:145
     b9c:	d503201f 	nop
     ba0:	14000004 	b	bb0 <trace_vprintf+0x354>
/home/avees/optee_local_build/Linux_for_Tegra/sources/tegra/optee-src/nv-optee/optee/optee_os/lib/libutils/ext/trace.c:152
     ba4:	d503201f 	nop
     ba8:	14000002 	b	bb0 <trace_vprintf+0x354>
/home/avees/optee_local_build/Linux_for_Tegra/sources/tegra/optee-src/nv-optee/optee/optee_os/lib/libutils/ext/trace.c:158
     bac:	d503201f 	nop
/home/avees/optee_local_build/Linux_for_Tegra/sources/tegra/optee-src/nv-optee/optee/optee_os/lib/libutils/ext/trace.c:177
     bb0:	f0000100 	adrp	x0, 23000 <_DYNAMIC>
     bb4:	f9409800 	ldr	x0, [x0, #304]
     bb8:	f940bfe1 	ldr	x1, [sp, #376]
     bbc:	f9400002 	ldr	x2, [x0]
     bc0:	eb020021 	subs	x1, x1, x2
     bc4:	d2800002 	mov	x2, #0x0                   	// #0
     bc8:	54000040 	b.eq	bd0 <trace_vprintf+0x374>  // b.none
     bcc:	97fffe52 	bl	514 <__stack_chk_fail>
     bd0:	f9400bf3 	ldr	x19, [sp, #16]
     bd4:	a8d87bfd 	ldp	x29, x30, [sp], #384
     bd8:	d65f03c0 	ret

0000000000000bdc <append>:
append():
/home/avees/optee_local_build/Linux_for_Tegra/sources/tegra/optee-src/nv-optee/optee/optee_os/lib/libutils/ext/trace.c:211
     bdc:	a9ad7bfd 	stp	x29, x30, [sp, #-304]!
     be0:	910003fd 	mov	x29, sp
     be4:	f9001fe0 	str	x0, [sp, #56]
     be8:	f9001be1 	str	x1, [sp, #48]
     bec:	f90083e2 	str	x2, [sp, #256]
     bf0:	f90087e3 	str	x3, [sp, #264]
     bf4:	f9008be4 	str	x4, [sp, #272]
     bf8:	f9008fe5 	str	x5, [sp, #280]
     bfc:	f90093e6 	str	x6, [sp, #288]
     c00:	f90097e7 	str	x7, [sp, #296]
     c04:	3d8023e0 	str	q0, [sp, #128]
     c08:	3d8027e1 	str	q1, [sp, #144]
     c0c:	3d802be2 	str	q2, [sp, #160]
     c10:	3d802fe3 	str	q3, [sp, #176]
     c14:	3d8033e4 	str	q4, [sp, #192]
     c18:	3d8037e5 	str	q5, [sp, #208]
     c1c:	3d803be6 	str	q6, [sp, #224]
     c20:	3d803fe7 	str	q7, [sp, #240]
     c24:	f0000100 	adrp	x0, 23000 <_DYNAMIC>
     c28:	f9409800 	ldr	x0, [x0, #304]
     c2c:	f9400001 	ldr	x1, [x0]
     c30:	f9003fe1 	str	x1, [sp, #120]
     c34:	d2800001 	mov	x1, #0x0                   	// #0
/home/avees/optee_local_build/Linux_for_Tegra/sources/tegra/optee-src/nv-optee/optee/optee_os/lib/libutils/ext/trace.c:216
     c38:	f9401fe0 	ldr	x0, [sp, #56]
     c3c:	f9408000 	ldr	x0, [x0, #256]
     c40:	f100001f 	cmp	x0, #0x0
     c44:	54000081 	b.ne	c54 <append+0x78>  // b.any
/home/avees/optee_local_build/Linux_for_Tegra/sources/tegra/optee-src/nv-optee/optee/optee_os/lib/libutils/ext/trace.c:217
     c48:	f9401fe1 	ldr	x1, [sp, #56]
     c4c:	f9401fe0 	ldr	x0, [sp, #56]
     c50:	f9008001 	str	x1, [x0, #256]
/home/avees/optee_local_build/Linux_for_Tegra/sources/tegra/optee-src/nv-optee/optee/optee_os/lib/libutils/ext/trace.c:218
     c54:	f9401fe0 	ldr	x0, [sp, #56]
     c58:	f9408001 	ldr	x1, [x0, #256]
     c5c:	f9401fe0 	ldr	x0, [sp, #56]
     c60:	cb000020 	sub	x0, x1, x0
     c64:	2a0003e1 	mov	w1, w0
     c68:	52802000 	mov	w0, #0x100                 	// #256
     c6c:	4b010000 	sub	w0, w0, w1
     c70:	b9004be0 	str	w0, [sp, #72]
/home/avees/optee_local_build/Linux_for_Tegra/sources/tegra/optee-src/nv-optee/optee/optee_os/lib/libutils/ext/trace.c:219
     c74:	9104c3e0 	add	x0, sp, #0x130
     c78:	f9002fe0 	str	x0, [sp, #88]
     c7c:	9104c3e0 	add	x0, sp, #0x130
     c80:	f90033e0 	str	x0, [sp, #96]
     c84:	910403e0 	add	x0, sp, #0x100
     c88:	f90037e0 	str	x0, [sp, #104]
     c8c:	128005e0 	mov	w0, #0xffffffd0            	// #-48
     c90:	b90073e0 	str	w0, [sp, #112]
     c94:	12800fe0 	mov	w0, #0xffffff80            	// #-128
     c98:	b90077e0 	str	w0, [sp, #116]
/home/avees/optee_local_build/Linux_for_Tegra/sources/tegra/optee-src/nv-optee/optee/optee_os/lib/libutils/ext/trace.c:220
     c9c:	f9401fe0 	ldr	x0, [sp, #56]
     ca0:	f9408004 	ldr	x4, [x0, #256]
     ca4:	b9804be1 	ldrsw	x1, [sp, #72]
     ca8:	f9402fe0 	ldr	x0, [sp, #88]
     cac:	f9000be0 	str	x0, [sp, #16]
     cb0:	f94033e0 	ldr	x0, [sp, #96]
     cb4:	f9000fe0 	str	x0, [sp, #24]
     cb8:	f94037e0 	ldr	x0, [sp, #104]
     cbc:	f90013e0 	str	x0, [sp, #32]
     cc0:	f9403be0 	ldr	x0, [sp, #112]
     cc4:	f90017e0 	str	x0, [sp, #40]
     cc8:	910043e0 	add	x0, sp, #0x10
     ccc:	aa0003e3 	mov	x3, x0
     cd0:	f9401be2 	ldr	x2, [sp, #48]
     cd4:	aa0403e0 	mov	x0, x4
     cd8:	940000ea 	bl	1080 <vsnprintk>
     cdc:	b9004fe0 	str	w0, [sp, #76]
/home/avees/optee_local_build/Linux_for_Tegra/sources/tegra/optee-src/nv-optee/optee/optee_os/lib/libutils/ext/trace.c:222
     ce0:	b9404fe0 	ldr	w0, [sp, #76]
     ce4:	7100001f 	cmp	w0, #0x0
     ce8:	5400006a 	b.ge	cf4 <append+0x118>  // b.tcont
/home/avees/optee_local_build/Linux_for_Tegra/sources/tegra/optee-src/nv-optee/optee/optee_os/lib/libutils/ext/trace.c:224
     cec:	52800000 	mov	w0, #0x0                   	// #0
     cf0:	14000017 	b	d4c <append+0x170>
/home/avees/optee_local_build/Linux_for_Tegra/sources/tegra/optee-src/nv-optee/optee/optee_os/lib/libutils/ext/trace.c:226
     cf4:	b9404fe1 	ldr	w1, [sp, #76]
     cf8:	b9404be0 	ldr	w0, [sp, #72]
     cfc:	6b00003f 	cmp	w1, w0
     d00:	5400006b 	b.lt	d0c <append+0x130>  // b.tstop
/home/avees/optee_local_build/Linux_for_Tegra/sources/tegra/optee-src/nv-optee/optee/optee_os/lib/libutils/ext/trace.c:228
     d04:	52800000 	mov	w0, #0x0                   	// #0
     d08:	14000011 	b	d4c <append+0x170>
/home/avees/optee_local_build/Linux_for_Tegra/sources/tegra/optee-src/nv-optee/optee/optee_os/lib/libutils/ext/trace.c:230
     d0c:	b9404be0 	ldr	w0, [sp, #72]
     d10:	b90053e0 	str	w0, [sp, #80]
     d14:	b9404fe0 	ldr	w0, [sp, #76]
     d18:	b90057e0 	str	w0, [sp, #84]
     d1c:	b94053e0 	ldr	w0, [sp, #80]
     d20:	b94057e2 	ldr	w2, [sp, #84]
     d24:	b94057e1 	ldr	w1, [sp, #84]
     d28:	6b00005f 	cmp	w2, w0
     d2c:	1a80d022 	csel	w2, w1, w0, le
     d30:	f9401fe0 	ldr	x0, [sp, #56]
     d34:	f9408001 	ldr	x1, [x0, #256]
     d38:	93407c40 	sxtw	x0, w2
     d3c:	8b000021 	add	x1, x1, x0
     d40:	f9401fe0 	ldr	x0, [sp, #56]
     d44:	f9008001 	str	x1, [x0, #256]
/home/avees/optee_local_build/Linux_for_Tegra/sources/tegra/optee-src/nv-optee/optee/optee_os/lib/libutils/ext/trace.c:231
     d48:	52800020 	mov	w0, #0x1                   	// #1
     d4c:	2a0003e1 	mov	w1, w0
/home/avees/optee_local_build/Linux_for_Tegra/sources/tegra/optee-src/nv-optee/optee/optee_os/lib/libutils/ext/trace.c:232 (discriminator 1)
     d50:	f0000100 	adrp	x0, 23000 <_DYNAMIC>
     d54:	f9409800 	ldr	x0, [x0, #304]
     d58:	f9403fe2 	ldr	x2, [sp, #120]
     d5c:	f9400003 	ldr	x3, [x0]
     d60:	eb030042 	subs	x2, x2, x3
     d64:	d2800003 	mov	x3, #0x0                   	// #0
     d68:	54000040 	b.eq	d70 <append+0x194>  // b.none
/home/avees/optee_local_build/Linux_for_Tegra/sources/tegra/optee-src/nv-optee/optee/optee_os/lib/libutils/ext/trace.c:232
     d6c:	97fffdea 	bl	514 <__stack_chk_fail>
     d70:	2a0103e0 	mov	w0, w1
     d74:	a8d37bfd 	ldp	x29, x30, [sp], #304
     d78:	d65f03c0 	ret

0000000000000d7c <dhex_dump>:
dhex_dump():
/home/avees/optee_local_build/Linux_for_Tegra/sources/tegra/optee-src/nv-optee/optee/optee_os/lib/libutils/ext/trace.c:236
     d7c:	a9ab7bfd 	stp	x29, x30, [sp, #-336]!
     d80:	910003fd 	mov	x29, sp
     d84:	f90017e0 	str	x0, [sp, #40]
     d88:	b90027e1 	str	w1, [sp, #36]
     d8c:	b90023e2 	str	w2, [sp, #32]
     d90:	f9000fe3 	str	x3, [sp, #24]
     d94:	b90017e4 	str	w4, [sp, #20]
     d98:	f0000100 	adrp	x0, 23000 <_DYNAMIC>
     d9c:	f9409800 	ldr	x0, [x0, #304]
     da0:	f9400001 	ldr	x1, [x0]
     da4:	f900a7e1 	str	x1, [sp, #328]
     da8:	d2800001 	mov	x1, #0x0                   	// #0
/home/avees/optee_local_build/Linux_for_Tegra/sources/tegra/optee-src/nv-optee/optee/optee_os/lib/libutils/ext/trace.c:240
     dac:	f9400fe0 	ldr	x0, [sp, #24]
     db0:	f9001fe0 	str	x0, [sp, #56]
/home/avees/optee_local_build/Linux_for_Tegra/sources/tegra/optee-src/nv-optee/optee/optee_os/lib/libutils/ext/trace.c:242
     db4:	f0000100 	adrp	x0, 23000 <_DYNAMIC>
     db8:	f940a800 	ldr	x0, [x0, #336]
     dbc:	b9400000 	ldr	w0, [x0]
     dc0:	b94023e1 	ldr	w1, [sp, #32]
     dc4:	6b00003f 	cmp	w1, w0
     dc8:	54000ccc 	b.gt	f60 <dhex_dump+0x1e4>
/home/avees/optee_local_build/Linux_for_Tegra/sources/tegra/optee-src/nv-optee/optee/optee_os/lib/libutils/ext/trace.c:243
     dcc:	f900a3ff 	str	xzr, [sp, #320]
/home/avees/optee_local_build/Linux_for_Tegra/sources/tegra/optee-src/nv-optee/optee/optee_os/lib/libutils/ext/trace.c:244
     dd0:	b90033ff 	str	wzr, [sp, #48]
     dd4:	14000046 	b	eec <dhex_dump+0x170>
/home/avees/optee_local_build/Linux_for_Tegra/sources/tegra/optee-src/nv-optee/optee/optee_os/lib/libutils/ext/trace.c:245
     dd8:	b94033e0 	ldr	w0, [sp, #48]
     ddc:	12000c00 	and	w0, w0, #0xf
     de0:	7100001f 	cmp	w0, #0x0
     de4:	540001e1 	b.ne	e20 <dhex_dump+0xa4>  // b.any
/home/avees/optee_local_build/Linux_for_Tegra/sources/tegra/optee-src/nv-optee/optee/optee_os/lib/libutils/ext/trace.c:247
     de8:	b98033e0 	ldrsw	x0, [sp, #48]
     dec:	f9401fe1 	ldr	x1, [sp, #56]
     df0:	8b000020 	add	x0, x1, x0
/home/avees/optee_local_build/Linux_for_Tegra/sources/tegra/optee-src/nv-optee/optee/optee_os/lib/libutils/ext/trace.c:246
     df4:	910103e4 	add	x4, sp, #0x40
     df8:	aa0003e3 	mov	x3, x0
     dfc:	52800202 	mov	w2, #0x10                  	// #16
     e00:	b0000100 	adrp	x0, 21000 <__compound_literal.7+0x134>
     e04:	9102c001 	add	x1, x0, #0xb0
     e08:	aa0403e0 	mov	x0, x4
     e0c:	97ffff74 	bl	bdc <append>
     e10:	b90037e0 	str	w0, [sp, #52]
/home/avees/optee_local_build/Linux_for_Tegra/sources/tegra/optee-src/nv-optee/optee/optee_os/lib/libutils/ext/trace.c:248
     e14:	b94037e0 	ldr	w0, [sp, #52]
     e18:	7100001f 	cmp	w0, #0x0
     e1c:	540008a0 	b.eq	f30 <dhex_dump+0x1b4>  // b.none
/home/avees/optee_local_build/Linux_for_Tegra/sources/tegra/optee-src/nv-optee/optee/optee_os/lib/libutils/ext/trace.c:251
     e20:	b98033e0 	ldrsw	x0, [sp, #48]
     e24:	f9401fe1 	ldr	x1, [sp, #56]
     e28:	8b000020 	add	x0, x1, x0
     e2c:	39400000 	ldrb	w0, [x0]
     e30:	910103e3 	add	x3, sp, #0x40
     e34:	2a0003e2 	mov	w2, w0
     e38:	b0000100 	adrp	x0, 21000 <__compound_literal.7+0x134>
     e3c:	9102e001 	add	x1, x0, #0xb8
     e40:	aa0303e0 	mov	x0, x3
     e44:	97ffff66 	bl	bdc <append>
     e48:	b90037e0 	str	w0, [sp, #52]
/home/avees/optee_local_build/Linux_for_Tegra/sources/tegra/optee-src/nv-optee/optee/optee_os/lib/libutils/ext/trace.c:252
     e4c:	b94037e0 	ldr	w0, [sp, #52]
     e50:	7100001f 	cmp	w0, #0x0
     e54:	54000720 	b.eq	f38 <dhex_dump+0x1bc>  // b.none
/home/avees/optee_local_build/Linux_for_Tegra/sources/tegra/optee-src/nv-optee/optee/optee_os/lib/libutils/ext/trace.c:254
     e58:	b94033e0 	ldr	w0, [sp, #48]
     e5c:	6b0003e1 	negs	w1, w0
     e60:	12000c00 	and	w0, w0, #0xf
     e64:	12000c21 	and	w1, w1, #0xf
     e68:	5a814400 	csneg	w0, w0, w1, mi  // mi = first
     e6c:	71001c1f 	cmp	w0, #0x7
     e70:	54000161 	b.ne	e9c <dhex_dump+0x120>  // b.any
/home/avees/optee_local_build/Linux_for_Tegra/sources/tegra/optee-src/nv-optee/optee/optee_os/lib/libutils/ext/trace.c:255
     e74:	910103e2 	add	x2, sp, #0x40
     e78:	b0000100 	adrp	x0, 21000 <__compound_literal.7+0x134>
     e7c:	91030001 	add	x1, x0, #0xc0
     e80:	aa0203e0 	mov	x0, x2
     e84:	97ffff56 	bl	bdc <append>
     e88:	b90037e0 	str	w0, [sp, #52]
/home/avees/optee_local_build/Linux_for_Tegra/sources/tegra/optee-src/nv-optee/optee/optee_os/lib/libutils/ext/trace.c:256
     e8c:	b94037e0 	ldr	w0, [sp, #52]
     e90:	7100001f 	cmp	w0, #0x0
     e94:	54000261 	b.ne	ee0 <dhex_dump+0x164>  // b.any
/home/avees/optee_local_build/Linux_for_Tegra/sources/tegra/optee-src/nv-optee/optee/optee_os/lib/libutils/ext/trace.c:257
     e98:	14000029 	b	f3c <dhex_dump+0x1c0>
/home/avees/optee_local_build/Linux_for_Tegra/sources/tegra/optee-src/nv-optee/optee/optee_os/lib/libutils/ext/trace.c:258
     e9c:	b94033e0 	ldr	w0, [sp, #48]
     ea0:	6b0003e1 	negs	w1, w0
     ea4:	12000c00 	and	w0, w0, #0xf
     ea8:	12000c21 	and	w1, w1, #0xf
     eac:	5a814400 	csneg	w0, w0, w1, mi  // mi = first
     eb0:	71003c1f 	cmp	w0, #0xf
     eb4:	54000161 	b.ne	ee0 <dhex_dump+0x164>  // b.any
/home/avees/optee_local_build/Linux_for_Tegra/sources/tegra/optee-src/nv-optee/optee/optee_os/lib/libutils/ext/trace.c:259
     eb8:	910103e0 	add	x0, sp, #0x40
     ebc:	aa0003e5 	mov	x5, x0
     ec0:	b0000100 	adrp	x0, 21000 <__compound_literal.7+0x134>
     ec4:	91032004 	add	x4, x0, #0xc8
     ec8:	52800023 	mov	w3, #0x1                   	// #1
     ecc:	b94023e2 	ldr	w2, [sp, #32]
     ed0:	b94027e1 	ldr	w1, [sp, #36]
     ed4:	f94017e0 	ldr	x0, [sp, #40]
     ed8:	97fffe25 	bl	76c <trace_printf>
/home/avees/optee_local_build/Linux_for_Tegra/sources/tegra/optee-src/nv-optee/optee/optee_os/lib/libutils/ext/trace.c:261
     edc:	f900a3ff 	str	xzr, [sp, #320]
/home/avees/optee_local_build/Linux_for_Tegra/sources/tegra/optee-src/nv-optee/optee/optee_os/lib/libutils/ext/trace.c:244 (discriminator 2)
     ee0:	b94033e0 	ldr	w0, [sp, #48]
     ee4:	11000400 	add	w0, w0, #0x1
     ee8:	b90033e0 	str	w0, [sp, #48]
/home/avees/optee_local_build/Linux_for_Tegra/sources/tegra/optee-src/nv-optee/optee/optee_os/lib/libutils/ext/trace.c:244 (discriminator 1)
     eec:	b94033e1 	ldr	w1, [sp, #48]
     ef0:	b94017e0 	ldr	w0, [sp, #20]
     ef4:	6b00003f 	cmp	w1, w0
     ef8:	54fff70b 	b.lt	dd8 <dhex_dump+0x5c>  // b.tstop
/home/avees/optee_local_build/Linux_for_Tegra/sources/tegra/optee-src/nv-optee/optee/optee_os/lib/libutils/ext/trace.c:264
     efc:	f940a3e0 	ldr	x0, [sp, #320]
     f00:	f100001f 	cmp	x0, #0x0
     f04:	540002e0 	b.eq	f60 <dhex_dump+0x1e4>  // b.none
/home/avees/optee_local_build/Linux_for_Tegra/sources/tegra/optee-src/nv-optee/optee/optee_os/lib/libutils/ext/trace.c:266
     f08:	910103e0 	add	x0, sp, #0x40
     f0c:	aa0003e5 	mov	x5, x0
     f10:	b0000100 	adrp	x0, 21000 <__compound_literal.7+0x134>
     f14:	91032004 	add	x4, x0, #0xc8
     f18:	52800023 	mov	w3, #0x1                   	// #1
     f1c:	b94023e2 	ldr	w2, [sp, #32]
     f20:	b94027e1 	ldr	w1, [sp, #36]
     f24:	f94017e0 	ldr	x0, [sp, #40]
     f28:	97fffe11 	bl	76c <trace_printf>
     f2c:	1400000e 	b	f64 <dhex_dump+0x1e8>
/home/avees/optee_local_build/Linux_for_Tegra/sources/tegra/optee-src/nv-optee/optee/optee_os/lib/libutils/ext/trace.c:249
     f30:	d503201f 	nop
     f34:	14000002 	b	f3c <dhex_dump+0x1c0>
/home/avees/optee_local_build/Linux_for_Tegra/sources/tegra/optee-src/nv-optee/optee/optee_os/lib/libutils/ext/trace.c:253
     f38:	d503201f 	nop
/home/avees/optee_local_build/Linux_for_Tegra/sources/tegra/optee-src/nv-optee/optee/optee_os/lib/libutils/ext/trace.c:273
     f3c:	b0000100 	adrp	x0, 21000 <__compound_literal.7+0x134>
     f40:	91034004 	add	x4, x0, #0xd0
     f44:	52800023 	mov	w3, #0x1                   	// #1
     f48:	52800062 	mov	w2, #0x3                   	// #3
     f4c:	52802221 	mov	w1, #0x111                 	// #273
     f50:	b0000100 	adrp	x0, 21000 <__compound_literal.7+0x134>
     f54:	9103a000 	add	x0, x0, #0xe8
     f58:	97fffe05 	bl	76c <trace_printf>
     f5c:	14000002 	b	f64 <dhex_dump+0x1e8>
/home/avees/optee_local_build/Linux_for_Tegra/sources/tegra/optee-src/nv-optee/optee/optee_os/lib/libutils/ext/trace.c:271
     f60:	d503201f 	nop
/home/avees/optee_local_build/Linux_for_Tegra/sources/tegra/optee-src/nv-optee/optee/optee_os/lib/libutils/ext/trace.c:274
     f64:	f0000100 	adrp	x0, 23000 <_DYNAMIC>
     f68:	f9409800 	ldr	x0, [x0, #304]
     f6c:	f940a7e1 	ldr	x1, [sp, #328]
     f70:	f9400002 	ldr	x2, [x0]
     f74:	eb020021 	subs	x1, x1, x2
     f78:	d2800002 	mov	x2, #0x0                   	// #0
     f7c:	54000040 	b.eq	f84 <dhex_dump+0x208>  // b.none
     f80:	97fffd65 	bl	514 <__stack_chk_fail>
     f84:	a8d57bfd 	ldp	x29, x30, [sp], #336
     f88:	d65f03c0 	ret

0000000000000f8c <snprintk>:
snprintk():
/home/avees/optee_local_build/Linux_for_Tegra/sources/tegra/optee-src/nv-optee/optee/optee_os/lib/libutils/ext/snprintk.c:113
     f8c:	a9ad7bfd 	stp	x29, x30, [sp, #-304]!
     f90:	910003fd 	mov	x29, sp
     f94:	f90027e0 	str	x0, [sp, #72]
     f98:	f90023e1 	str	x1, [sp, #64]
     f9c:	f9001fe2 	str	x2, [sp, #56]
     fa0:	f90087e3 	str	x3, [sp, #264]
     fa4:	f9008be4 	str	x4, [sp, #272]
     fa8:	f9008fe5 	str	x5, [sp, #280]
     fac:	f90093e6 	str	x6, [sp, #288]
     fb0:	f90097e7 	str	x7, [sp, #296]
     fb4:	3d8023e0 	str	q0, [sp, #128]
     fb8:	3d8027e1 	str	q1, [sp, #144]
     fbc:	3d802be2 	str	q2, [sp, #160]
     fc0:	3d802fe3 	str	q3, [sp, #176]
     fc4:	3d8033e4 	str	q4, [sp, #192]
     fc8:	3d8037e5 	str	q5, [sp, #208]
     fcc:	3d803be6 	str	q6, [sp, #224]
     fd0:	3d803fe7 	str	q7, [sp, #240]
     fd4:	f0000100 	adrp	x0, 23000 <_DYNAMIC>
     fd8:	f9409800 	ldr	x0, [x0, #304]
     fdc:	f9400001 	ldr	x1, [x0]
     fe0:	f9003fe1 	str	x1, [sp, #120]
     fe4:	d2800001 	mov	x1, #0x0                   	// #0
/home/avees/optee_local_build/Linux_for_Tegra/sources/tegra/optee-src/nv-optee/optee/optee_os/lib/libutils/ext/snprintk.c:117
     fe8:	9104c3e0 	add	x0, sp, #0x130
     fec:	f9002fe0 	str	x0, [sp, #88]
     ff0:	9104c3e0 	add	x0, sp, #0x130
     ff4:	f90033e0 	str	x0, [sp, #96]
     ff8:	910403e0 	add	x0, sp, #0x100
     ffc:	f90037e0 	str	x0, [sp, #104]
    1000:	128004e0 	mov	w0, #0xffffffd8            	// #-40
    1004:	b90073e0 	str	w0, [sp, #112]
    1008:	12800fe0 	mov	w0, #0xffffff80            	// #-128
    100c:	b90077e0 	str	w0, [sp, #116]
/home/avees/optee_local_build/Linux_for_Tegra/sources/tegra/optee-src/nv-optee/optee/optee_os/lib/libutils/ext/snprintk.c:118
    1010:	f9402fe0 	ldr	x0, [sp, #88]
    1014:	f9000be0 	str	x0, [sp, #16]
    1018:	f94033e0 	ldr	x0, [sp, #96]
    101c:	f9000fe0 	str	x0, [sp, #24]
    1020:	f94037e0 	ldr	x0, [sp, #104]
    1024:	f90013e0 	str	x0, [sp, #32]
    1028:	f9403be0 	ldr	x0, [sp, #112]
    102c:	f90017e0 	str	x0, [sp, #40]
    1030:	910043e0 	add	x0, sp, #0x10
    1034:	aa0003e3 	mov	x3, x0
    1038:	f9401fe2 	ldr	x2, [sp, #56]
    103c:	f94023e1 	ldr	x1, [sp, #64]
    1040:	f94027e0 	ldr	x0, [sp, #72]
    1044:	9400000f 	bl	1080 <vsnprintk>
    1048:	b90057e0 	str	w0, [sp, #84]
/home/avees/optee_local_build/Linux_for_Tegra/sources/tegra/optee-src/nv-optee/optee/optee_os/lib/libutils/ext/snprintk.c:121
    104c:	b94057e0 	ldr	w0, [sp, #84]
    1050:	2a0003e1 	mov	w1, w0
/home/avees/optee_local_build/Linux_for_Tegra/sources/tegra/optee-src/nv-optee/optee/optee_os/lib/libutils/ext/snprintk.c:122
    1054:	d0000100 	adrp	x0, 23000 <_DYNAMIC>
    1058:	f9409800 	ldr	x0, [x0, #304]
    105c:	f9403fe2 	ldr	x2, [sp, #120]
    1060:	f9400003 	ldr	x3, [x0]
    1064:	eb030042 	subs	x2, x2, x3
    1068:	d2800003 	mov	x3, #0x0                   	// #0
    106c:	54000040 	b.eq	1074 <snprintk+0xe8>  // b.none
    1070:	97fffd29 	bl	514 <__stack_chk_fail>
    1074:	2a0103e0 	mov	w0, w1
    1078:	a8d37bfd 	ldp	x29, x30, [sp], #304
    107c:	d65f03c0 	ret

0000000000001080 <vsnprintk>:
vsnprintk():
/home/avees/optee_local_build/Linux_for_Tegra/sources/tegra/optee-src/nv-optee/optee/optee_os/lib/libutils/ext/snprintk.c:130
    1080:	a9ba7bfd 	stp	x29, x30, [sp, #-96]!
    1084:	910003fd 	mov	x29, sp
    1088:	f9000bf3 	str	x19, [sp, #16]
    108c:	f9002fe0 	str	x0, [sp, #88]
    1090:	f9002be1 	str	x1, [sp, #80]
    1094:	f90027e2 	str	x2, [sp, #72]
    1098:	aa0303f3 	mov	x19, x3
/home/avees/optee_local_build/Linux_for_Tegra/sources/tegra/optee-src/nv-optee/optee/optee_os/lib/libutils/ext/snprintk.c:131
    109c:	f9400260 	ldr	x0, [x19]
    10a0:	f90013e0 	str	x0, [sp, #32]
    10a4:	f9400660 	ldr	x0, [x19, #8]
    10a8:	f90017e0 	str	x0, [sp, #40]
    10ac:	f9400a60 	ldr	x0, [x19, #16]
    10b0:	f9001be0 	str	x0, [sp, #48]
    10b4:	f9400e60 	ldr	x0, [x19, #24]
    10b8:	f9001fe0 	str	x0, [sp, #56]
    10bc:	910083e0 	add	x0, sp, #0x20
    10c0:	52800024 	mov	w4, #0x1                   	// #1
    10c4:	aa0003e3 	mov	x3, x0
    10c8:	f94027e2 	ldr	x2, [sp, #72]
    10cc:	f9402be1 	ldr	x1, [sp, #80]
    10d0:	f9402fe0 	ldr	x0, [sp, #88]
    10d4:	94000004 	bl	10e4 <__vsnprintf>
/home/avees/optee_local_build/Linux_for_Tegra/sources/tegra/optee-src/nv-optee/optee/optee_os/lib/libutils/ext/snprintk.c:132
    10d8:	f9400bf3 	ldr	x19, [sp, #16]
    10dc:	a8c67bfd 	ldp	x29, x30, [sp], #96
    10e0:	d65f03c0 	ret

00000000000010e4 <__vsnprintf>:
__vsnprintf():
/home/avees/optee_local_build/Linux_for_Tegra/sources/tegra/optee-src/nv-optee/optee/optee_os/lib/libutils/ext/snprintk.c:138
    10e4:	a9b87bfd 	stp	x29, x30, [sp, #-128]!
    10e8:	910003fd 	mov	x29, sp
    10ec:	f9000bf3 	str	x19, [sp, #16]
    10f0:	f9002fe0 	str	x0, [sp, #88]
    10f4:	f9002be1 	str	x1, [sp, #80]
    10f8:	f90027e2 	str	x2, [sp, #72]
    10fc:	aa0303f3 	mov	x19, x3
    1100:	39011fe4 	strb	w4, [sp, #71]
    1104:	d0000100 	adrp	x0, 23000 <_DYNAMIC>
    1108:	f9409800 	ldr	x0, [x0, #304]
    110c:	f9400001 	ldr	x1, [x0]
    1110:	f9003fe1 	str	x1, [sp, #120]
    1114:	d2800001 	mov	x1, #0x0                   	// #0
/home/avees/optee_local_build/Linux_for_Tegra/sources/tegra/optee-src/nv-optee/optee/optee_os/lib/libutils/ext/snprintk.c:142
    1118:	f9402fe1 	ldr	x1, [sp, #88]
    111c:	f9402be0 	ldr	x0, [sp, #80]
    1120:	8b000020 	add	x0, x1, x0
    1124:	f9003be0 	str	x0, [sp, #112]
/home/avees/optee_local_build/Linux_for_Tegra/sources/tegra/optee-src/nv-optee/optee/optee_os/lib/libutils/ext/snprintk.c:143
    1128:	f9400260 	ldr	x0, [x19]
    112c:	f90013e0 	str	x0, [sp, #32]
    1130:	f9400660 	ldr	x0, [x19, #8]
    1134:	f90017e0 	str	x0, [sp, #40]
    1138:	f9400a60 	ldr	x0, [x19, #16]
    113c:	f9001be0 	str	x0, [sp, #48]
    1140:	f9400e60 	ldr	x0, [x19, #24]
    1144:	f9001fe0 	str	x0, [sp, #56]
    1148:	910083e1 	add	x1, sp, #0x20
    114c:	9101c3e0 	add	x0, sp, #0x70
    1150:	39411fe5 	ldrb	w5, [sp, #71]
    1154:	aa0103e4 	mov	x4, x1
    1158:	f9402fe3 	ldr	x3, [sp, #88]
    115c:	aa0003e2 	mov	x2, x0
    1160:	52800101 	mov	w1, #0x8                   	// #8
    1164:	f94027e0 	ldr	x0, [sp, #72]
    1168:	94000076 	bl	1340 <kprintf>
    116c:	b9006fe0 	str	w0, [sp, #108]
/home/avees/optee_local_build/Linux_for_Tegra/sources/tegra/optee-src/nv-optee/optee/optee_os/lib/libutils/ext/snprintk.c:144
    1170:	f9402fe0 	ldr	x0, [sp, #88]
    1174:	f100001f 	cmp	x0, #0x0
    1178:	54000240 	b.eq	11c0 <__vsnprintf+0xdc>  // b.none
/home/avees/optee_local_build/Linux_for_Tegra/sources/tegra/optee-src/nv-optee/optee/optee_os/lib/libutils/ext/snprintk.c:144 (discriminator 1)
    117c:	f9402be0 	ldr	x0, [sp, #80]
    1180:	f100001f 	cmp	x0, #0x0
    1184:	540001e0 	b.eq	11c0 <__vsnprintf+0xdc>  // b.none
/home/avees/optee_local_build/Linux_for_Tegra/sources/tegra/optee-src/nv-optee/optee/optee_os/lib/libutils/ext/snprintk.c:146
    1188:	b9806fe0 	ldrsw	x0, [sp, #108]
    118c:	f9402be1 	ldr	x1, [sp, #80]
    1190:	eb00003f 	cmp	x1, x0
    1194:	540000e8 	b.hi	11b0 <__vsnprintf+0xcc>  // b.pmore
/home/avees/optee_local_build/Linux_for_Tegra/sources/tegra/optee-src/nv-optee/optee/optee_os/lib/libutils/ext/snprintk.c:147
    1198:	f9402be0 	ldr	x0, [sp, #80]
    119c:	d1000400 	sub	x0, x0, #0x1
    11a0:	f9402fe1 	ldr	x1, [sp, #88]
    11a4:	8b000020 	add	x0, x1, x0
    11a8:	3900001f 	strb	wzr, [x0]
    11ac:	14000005 	b	11c0 <__vsnprintf+0xdc>
/home/avees/optee_local_build/Linux_for_Tegra/sources/tegra/optee-src/nv-optee/optee/optee_os/lib/libutils/ext/snprintk.c:149
    11b0:	b9806fe0 	ldrsw	x0, [sp, #108]
    11b4:	f9402fe1 	ldr	x1, [sp, #88]
    11b8:	8b000020 	add	x0, x1, x0
    11bc:	3900001f 	strb	wzr, [x0]
/home/avees/optee_local_build/Linux_for_Tegra/sources/tegra/optee-src/nv-optee/optee/optee_os/lib/libutils/ext/snprintk.c:151
    11c0:	b9406fe0 	ldr	w0, [sp, #108]
    11c4:	2a0003e1 	mov	w1, w0
/home/avees/optee_local_build/Linux_for_Tegra/sources/tegra/optee-src/nv-optee/optee/optee_os/lib/libutils/ext/snprintk.c:152
    11c8:	d0000100 	adrp	x0, 23000 <_DYNAMIC>
    11cc:	f9409800 	ldr	x0, [x0, #304]
    11d0:	f9403fe2 	ldr	x2, [sp, #120]
    11d4:	f9400003 	ldr	x3, [x0]
    11d8:	eb030042 	subs	x2, x2, x3
    11dc:	d2800003 	mov	x3, #0x0                   	// #0
    11e0:	54000040 	b.eq	11e8 <__vsnprintf+0x104>  // b.none
    11e4:	97fffccc 	bl	514 <__stack_chk_fail>
    11e8:	2a0103e0 	mov	w0, w1
    11ec:	f9400bf3 	ldr	x19, [sp, #16]
    11f0:	a8c87bfd 	ldp	x29, x30, [sp], #128
    11f4:	d65f03c0 	ret

00000000000011f8 <__vsprintf>:
__vsprintf():
/home/avees/optee_local_build/Linux_for_Tegra/sources/tegra/optee-src/nv-optee/optee/optee_os/lib/libutils/ext/snprintk.c:155
    11f8:	a9bb7bfd 	stp	x29, x30, [sp, #-80]!
    11fc:	910003fd 	mov	x29, sp
    1200:	f9000bf3 	str	x19, [sp, #16]
    1204:	f90027e0 	str	x0, [sp, #72]
    1208:	f90023e1 	str	x1, [sp, #64]
    120c:	aa0203f3 	mov	x19, x2
/home/avees/optee_local_build/Linux_for_Tegra/sources/tegra/optee-src/nv-optee/optee/optee_os/lib/libutils/ext/snprintk.c:156
    1210:	f9400260 	ldr	x0, [x19]
    1214:	f90013e0 	str	x0, [sp, #32]
    1218:	f9400660 	ldr	x0, [x19, #8]
    121c:	f90017e0 	str	x0, [sp, #40]
    1220:	f9400a60 	ldr	x0, [x19, #16]
    1224:	f9001be0 	str	x0, [sp, #48]
    1228:	f9400e60 	ldr	x0, [x19, #24]
    122c:	f9001fe0 	str	x0, [sp, #56]
    1230:	910083e0 	add	x0, sp, #0x20
    1234:	52800005 	mov	w5, #0x0                   	// #0
    1238:	aa0003e4 	mov	x4, x0
    123c:	f94027e3 	ldr	x3, [sp, #72]
    1240:	d2800002 	mov	x2, #0x0                   	// #0
    1244:	52800101 	mov	w1, #0x8                   	// #8
    1248:	f94023e0 	ldr	x0, [sp, #64]
    124c:	9400003d 	bl	1340 <kprintf>
/home/avees/optee_local_build/Linux_for_Tegra/sources/tegra/optee-src/nv-optee/optee/optee_os/lib/libutils/ext/snprintk.c:157
    1250:	f9400bf3 	ldr	x19, [sp, #16]
    1254:	a8c57bfd 	ldp	x29, x30, [sp], #80
    1258:	d65f03c0 	ret

000000000000125c <uuid2str>:
uuid2str():
/home/avees/optee_local_build/Linux_for_Tegra/sources/tegra/optee-src/nv-optee/optee/optee_os/lib/libutils/ext/snprintk.c:221
    125c:	d101c3ff 	sub	sp, sp, #0x70
    1260:	a9037bfd 	stp	x29, x30, [sp, #48]
    1264:	9100c3fd 	add	x29, sp, #0x30
    1268:	f9002fe0 	str	x0, [sp, #88]
    126c:	f9002be1 	str	x1, [sp, #80]
    1270:	f90027e2 	str	x2, [sp, #72]
/home/avees/optee_local_build/Linux_for_Tegra/sources/tegra/optee-src/nv-optee/optee/optee_os/lib/libutils/ext/snprintk.c:227
    1274:	f94027e0 	ldr	x0, [sp, #72]
    1278:	f90037e0 	str	x0, [sp, #104]
/home/avees/optee_local_build/Linux_for_Tegra/sources/tegra/optee-src/nv-optee/optee/optee_os/lib/libutils/ext/snprintk.c:229
    127c:	f94037e0 	ldr	x0, [sp, #104]
    1280:	b9400001 	ldr	w1, [x0]
/home/avees/optee_local_build/Linux_for_Tegra/sources/tegra/optee-src/nv-optee/optee/optee_os/lib/libutils/ext/snprintk.c:231
    1284:	f94037e0 	ldr	x0, [sp, #104]
    1288:	79400800 	ldrh	w0, [x0, #4]
/home/avees/optee_local_build/Linux_for_Tegra/sources/tegra/optee-src/nv-optee/optee/optee_os/lib/libutils/ext/snprintk.c:229
    128c:	2a0003e8 	mov	w8, w0
/home/avees/optee_local_build/Linux_for_Tegra/sources/tegra/optee-src/nv-optee/optee/optee_os/lib/libutils/ext/snprintk.c:231
    1290:	f94037e0 	ldr	x0, [sp, #104]
    1294:	79400c00 	ldrh	w0, [x0, #6]
/home/avees/optee_local_build/Linux_for_Tegra/sources/tegra/optee-src/nv-optee/optee/optee_os/lib/libutils/ext/snprintk.c:229
    1298:	2a0003e9 	mov	w9, w0
/home/avees/optee_local_build/Linux_for_Tegra/sources/tegra/optee-src/nv-optee/optee/optee_os/lib/libutils/ext/snprintk.c:232
    129c:	f94037e0 	ldr	x0, [sp, #104]
    12a0:	39402000 	ldrb	w0, [x0, #8]
/home/avees/optee_local_build/Linux_for_Tegra/sources/tegra/optee-src/nv-optee/optee/optee_os/lib/libutils/ext/snprintk.c:229
    12a4:	2a0003ea 	mov	w10, w0
/home/avees/optee_local_build/Linux_for_Tegra/sources/tegra/optee-src/nv-optee/optee/optee_os/lib/libutils/ext/snprintk.c:232
    12a8:	f94037e0 	ldr	x0, [sp, #104]
    12ac:	39402400 	ldrb	w0, [x0, #9]
/home/avees/optee_local_build/Linux_for_Tegra/sources/tegra/optee-src/nv-optee/optee/optee_os/lib/libutils/ext/snprintk.c:229
    12b0:	2a0003e7 	mov	w7, w0
/home/avees/optee_local_build/Linux_for_Tegra/sources/tegra/optee-src/nv-optee/optee/optee_os/lib/libutils/ext/snprintk.c:233
    12b4:	f94037e0 	ldr	x0, [sp, #104]
    12b8:	39402800 	ldrb	w0, [x0, #10]
/home/avees/optee_local_build/Linux_for_Tegra/sources/tegra/optee-src/nv-optee/optee/optee_os/lib/libutils/ext/snprintk.c:229
    12bc:	2a0003e2 	mov	w2, w0
/home/avees/optee_local_build/Linux_for_Tegra/sources/tegra/optee-src/nv-optee/optee/optee_os/lib/libutils/ext/snprintk.c:233
    12c0:	f94037e0 	ldr	x0, [sp, #104]
    12c4:	39402c00 	ldrb	w0, [x0, #11]
/home/avees/optee_local_build/Linux_for_Tegra/sources/tegra/optee-src/nv-optee/optee/optee_os/lib/libutils/ext/snprintk.c:229
    12c8:	2a0003e3 	mov	w3, w0
/home/avees/optee_local_build/Linux_for_Tegra/sources/tegra/optee-src/nv-optee/optee/optee_os/lib/libutils/ext/snprintk.c:234
    12cc:	f94037e0 	ldr	x0, [sp, #104]
    12d0:	39403000 	ldrb	w0, [x0, #12]
/home/avees/optee_local_build/Linux_for_Tegra/sources/tegra/optee-src/nv-optee/optee/optee_os/lib/libutils/ext/snprintk.c:229
    12d4:	2a0003e4 	mov	w4, w0
/home/avees/optee_local_build/Linux_for_Tegra/sources/tegra/optee-src/nv-optee/optee/optee_os/lib/libutils/ext/snprintk.c:234
    12d8:	f94037e0 	ldr	x0, [sp, #104]
    12dc:	39403400 	ldrb	w0, [x0, #13]
/home/avees/optee_local_build/Linux_for_Tegra/sources/tegra/optee-src/nv-optee/optee/optee_os/lib/libutils/ext/snprintk.c:229
    12e0:	2a0003e5 	mov	w5, w0
/home/avees/optee_local_build/Linux_for_Tegra/sources/tegra/optee-src/nv-optee/optee/optee_os/lib/libutils/ext/snprintk.c:235
    12e4:	f94037e0 	ldr	x0, [sp, #104]
    12e8:	39403800 	ldrb	w0, [x0, #14]
/home/avees/optee_local_build/Linux_for_Tegra/sources/tegra/optee-src/nv-optee/optee/optee_os/lib/libutils/ext/snprintk.c:229
    12ec:	2a0003e6 	mov	w6, w0
/home/avees/optee_local_build/Linux_for_Tegra/sources/tegra/optee-src/nv-optee/optee/optee_os/lib/libutils/ext/snprintk.c:235
    12f0:	f94037e0 	ldr	x0, [sp, #104]
    12f4:	39403c00 	ldrb	w0, [x0, #15]
/home/avees/optee_local_build/Linux_for_Tegra/sources/tegra/optee-src/nv-optee/optee/optee_os/lib/libutils/ext/snprintk.c:229
    12f8:	b9002be0 	str	w0, [sp, #40]
    12fc:	b90023e6 	str	w6, [sp, #32]
    1300:	b9001be5 	str	w5, [sp, #24]
    1304:	b90013e4 	str	w4, [sp, #16]
    1308:	b9000be3 	str	w3, [sp, #8]
    130c:	b90003e2 	str	w2, [sp]
    1310:	2a0a03e6 	mov	w6, w10
    1314:	2a0903e5 	mov	w5, w9
    1318:	2a0803e4 	mov	w4, w8
    131c:	2a0103e3 	mov	w3, w1
    1320:	90000100 	adrp	x0, 21000 <__compound_literal.7+0x134>
    1324:	9104a002 	add	x2, x0, #0x128
    1328:	f9402be1 	ldr	x1, [sp, #80]
    132c:	f9402fe0 	ldr	x0, [sp, #88]
    1330:	97ffff17 	bl	f8c <snprintk>
/home/avees/optee_local_build/Linux_for_Tegra/sources/tegra/optee-src/nv-optee/optee/optee_os/lib/libutils/ext/snprintk.c:236
    1334:	a9437bfd 	ldp	x29, x30, [sp, #48]
    1338:	9101c3ff 	add	sp, sp, #0x70
    133c:	d65f03c0 	ret

0000000000001340 <kprintf>:
kprintf():
/home/avees/optee_local_build/Linux_for_Tegra/sources/tegra/optee-src/nv-optee/optee/optee_os/lib/libutils/ext/snprintk.c:244
    1340:	a9b37bfd 	stp	x29, x30, [sp, #-208]!
    1344:	910003fd 	mov	x29, sp
    1348:	f9000bf3 	str	x19, [sp, #16]
    134c:	f9001fe0 	str	x0, [sp, #56]
    1350:	b90037e1 	str	w1, [sp, #52]
    1354:	f90017e2 	str	x2, [sp, #40]
    1358:	f90013e3 	str	x3, [sp, #32]
    135c:	aa0403f3 	mov	x19, x4
    1360:	3900cfe5 	strb	w5, [sp, #51]
    1364:	d0000100 	adrp	x0, 23000 <_DYNAMIC>
    1368:	f9409800 	ldr	x0, [x0, #304]
    136c:	f9400001 	ldr	x1, [x0]
    1370:	f90067e1 	str	x1, [sp, #200]
    1374:	d2800001 	mov	x1, #0x0                   	// #0
/home/avees/optee_local_build/Linux_for_Tegra/sources/tegra/optee-src/nv-optee/optee/optee_os/lib/libutils/ext/snprintk.c:264
    1378:	b94037e0 	ldr	w0, [sp, #52]
    137c:	7100201f 	cmp	w0, #0x8
    1380:	54000101 	b.ne	13a0 <kprintf+0x60>  // b.any
/home/avees/optee_local_build/Linux_for_Tegra/sources/tegra/optee-src/nv-optee/optee/optee_os/lib/libutils/ext/snprintk.c:264 (discriminator 1)
    1384:	f94017e0 	ldr	x0, [sp, #40]
    1388:	f100001f 	cmp	x0, #0x0
    138c:	540000a0 	b.eq	13a0 <kprintf+0x60>  // b.none
/home/avees/optee_local_build/Linux_for_Tegra/sources/tegra/optee-src/nv-optee/optee/optee_os/lib/libutils/ext/snprintk.c:265
    1390:	f94017e0 	ldr	x0, [sp, #40]
    1394:	f9400000 	ldr	x0, [x0]
    1398:	f9004be0 	str	x0, [sp, #144]
    139c:	14000002 	b	13a4 <kprintf+0x64>
/home/avees/optee_local_build/Linux_for_Tegra/sources/tegra/optee-src/nv-optee/optee/optee_os/lib/libutils/ext/snprintk.c:267
    13a0:	f9004bff 	str	xzr, [sp, #144]
/home/avees/optee_local_build/Linux_for_Tegra/sources/tegra/optee-src/nv-optee/optee/optee_os/lib/libutils/ext/snprintk.c:269
    13a4:	f9003fff 	str	xzr, [sp, #120]
/home/avees/optee_local_build/Linux_for_Tegra/sources/tegra/optee-src/nv-optee/optee/optee_os/lib/libutils/ext/snprintk.c:270
    13a8:	b9006fff 	str	wzr, [sp, #108]
/home/avees/optee_local_build/Linux_for_Tegra/sources/tegra/optee-src/nv-optee/optee/optee_os/lib/libutils/ext/snprintk.c:272
    13ac:	f9401fe0 	ldr	x0, [sp, #56]
    13b0:	f9003be0 	str	x0, [sp, #112]
/home/avees/optee_local_build/Linux_for_Tegra/sources/tegra/optee-src/nv-optee/optee/optee_os/lib/libutils/ext/snprintk.c:273
    13b4:	b90057ff 	str	wzr, [sp, #84]
/home/avees/optee_local_build/Linux_for_Tegra/sources/tegra/optee-src/nv-optee/optee/optee_os/lib/libutils/ext/snprintk.c:275
    13b8:	f90047ff 	str	xzr, [sp, #136]
/home/avees/optee_local_build/Linux_for_Tegra/sources/tegra/optee-src/nv-optee/optee/optee_os/lib/libutils/ext/snprintk.c:281
    13bc:	1400001a 	b	1424 <kprintf+0xe4>
/home/avees/optee_local_build/Linux_for_Tegra/sources/tegra/optee-src/nv-optee/optee/optee_os/lib/libutils/ext/snprintk.c:282
    13c0:	b94057e0 	ldr	w0, [sp, #84]
    13c4:	11000400 	add	w0, w0, #0x1
    13c8:	b90057e0 	str	w0, [sp, #84]
/home/avees/optee_local_build/Linux_for_Tegra/sources/tegra/optee-src/nv-optee/optee/optee_os/lib/libutils/ext/snprintk.c:283
    13cc:	b94037e0 	ldr	w0, [sp, #52]
    13d0:	7100201f 	cmp	w0, #0x8
    13d4:	54000221 	b.ne	1418 <kprintf+0xd8>  // b.any
/home/avees/optee_local_build/Linux_for_Tegra/sources/tegra/optee-src/nv-optee/optee/optee_os/lib/libutils/ext/snprintk.c:283 (discriminator 1)
    13d8:	f94013e0 	ldr	x0, [sp, #32]
    13dc:	f100001f 	cmp	x0, #0x0
    13e0:	540001c0 	b.eq	1418 <kprintf+0xd8>  // b.none
/home/avees/optee_local_build/Linux_for_Tegra/sources/tegra/optee-src/nv-optee/optee/optee_os/lib/libutils/ext/snprintk.c:283 (discriminator 2)
    13e4:	f94017e0 	ldr	x0, [sp, #40]
    13e8:	f100001f 	cmp	x0, #0x0
    13ec:	540000a0 	b.eq	1400 <kprintf+0xc0>  // b.none
/home/avees/optee_local_build/Linux_for_Tegra/sources/tegra/optee-src/nv-optee/optee/optee_os/lib/libutils/ext/snprintk.c:283 (discriminator 4)
    13f0:	f94013e1 	ldr	x1, [sp, #32]
    13f4:	f9404be0 	ldr	x0, [sp, #144]
    13f8:	eb00003f 	cmp	x1, x0
    13fc:	540000e2 	b.cs	1418 <kprintf+0xd8>  // b.hs, b.nlast
/home/avees/optee_local_build/Linux_for_Tegra/sources/tegra/optee-src/nv-optee/optee/optee_os/lib/libutils/ext/snprintk.c:283 (discriminator 5)
    1400:	f94013e0 	ldr	x0, [sp, #32]
    1404:	91000401 	add	x1, x0, #0x1
    1408:	f90013e1 	str	x1, [sp, #32]
    140c:	f9403be1 	ldr	x1, [sp, #112]
    1410:	39400021 	ldrb	w1, [x1]
    1414:	39000001 	strb	w1, [x0]
/home/avees/optee_local_build/Linux_for_Tegra/sources/tegra/optee-src/nv-optee/optee/optee_os/lib/libutils/ext/snprintk.c:281
    1418:	f9403be0 	ldr	x0, [sp, #112]
    141c:	91000400 	add	x0, x0, #0x1
    1420:	f9003be0 	str	x0, [sp, #112]
/home/avees/optee_local_build/Linux_for_Tegra/sources/tegra/optee-src/nv-optee/optee/optee_os/lib/libutils/ext/snprintk.c:281 (discriminator 1)
    1424:	f9403be0 	ldr	x0, [sp, #112]
    1428:	39400000 	ldrb	w0, [x0]
    142c:	7100941f 	cmp	w0, #0x25
    1430:	540000a0 	b.eq	1444 <kprintf+0x104>  // b.none
/home/avees/optee_local_build/Linux_for_Tegra/sources/tegra/optee-src/nv-optee/optee/optee_os/lib/libutils/ext/snprintk.c:281 (discriminator 2)
    1434:	f9403be0 	ldr	x0, [sp, #112]
    1438:	39400000 	ldrb	w0, [x0]
    143c:	7100001f 	cmp	w0, #0x0
    1440:	54fffc01 	b.ne	13c0 <kprintf+0x80>  // b.any
/home/avees/optee_local_build/Linux_for_Tegra/sources/tegra/optee-src/nv-optee/optee/optee_os/lib/libutils/ext/snprintk.c:285
    1444:	f9403be0 	ldr	x0, [sp, #112]
    1448:	39400000 	ldrb	w0, [x0]
    144c:	7100001f 	cmp	w0, #0x0
    1450:	5400d760 	b.eq	2f3c <kprintf+0x1bfc>  // b.none
/home/avees/optee_local_build/Linux_for_Tegra/sources/tegra/optee-src/nv-optee/optee/optee_os/lib/libutils/ext/snprintk.c:288
    1454:	f9403be0 	ldr	x0, [sp, #112]
    1458:	91000400 	add	x0, x0, #0x1
    145c:	f9003be0 	str	x0, [sp, #112]
/home/avees/optee_local_build/Linux_for_Tegra/sources/tegra/optee-src/nv-optee/optee/optee_os/lib/libutils/ext/snprintk.c:290
    1460:	b90053ff 	str	wzr, [sp, #80]
/home/avees/optee_local_build/Linux_for_Tegra/sources/tegra/optee-src/nv-optee/optee/optee_os/lib/libutils/ext/snprintk.c:291
    1464:	b90067ff 	str	wzr, [sp, #100]
/home/avees/optee_local_build/Linux_for_Tegra/sources/tegra/optee-src/nv-optee/optee/optee_os/lib/libutils/ext/snprintk.c:292
    1468:	b9005bff 	str	wzr, [sp, #88]
/home/avees/optee_local_build/Linux_for_Tegra/sources/tegra/optee-src/nv-optee/optee/optee_os/lib/libutils/ext/snprintk.c:293
    146c:	12800000 	mov	w0, #0xffffffff            	// #-1
    1470:	b9005fe0 	str	w0, [sp, #92]
/home/avees/optee_local_build/Linux_for_Tegra/sources/tegra/optee-src/nv-optee/optee/optee_os/lib/libutils/ext/snprintk.c:294
    1474:	39011fff 	strb	wzr, [sp, #71]
/home/avees/optee_local_build/Linux_for_Tegra/sources/tegra/optee-src/nv-optee/optee/optee_os/lib/libutils/ext/snprintk.c:296
    1478:	f9403be0 	ldr	x0, [sp, #112]
    147c:	91000401 	add	x1, x0, #0x1
    1480:	f9003be1 	str	x1, [sp, #112]
    1484:	39400000 	ldrb	w0, [x0]
    1488:	b9004be0 	str	w0, [sp, #72]
    148c:	b9404be0 	ldr	w0, [sp, #72]
    1490:	51008000 	sub	w0, w0, #0x20
    1494:	7101681f 	cmp	w0, #0x5a
    1498:	5400b4c8 	b.hi	2b30 <kprintf+0x17f0>  // b.pmore
    149c:	90000101 	adrp	x1, 21000 <__compound_literal.7+0x134>
    14a0:	91061021 	add	x1, x1, #0x184
    14a4:	b8605820 	ldr	w0, [x1, w0, uxtw #2]
    14a8:	10000061 	adr	x1, 14b4 <kprintf+0x174>
    14ac:	8b20c820 	add	x0, x1, w0, sxtw #2
    14b0:	d61f0000 	br	x0
/home/avees/optee_local_build/Linux_for_Tegra/sources/tegra/optee-src/nv-optee/optee/optee_os/lib/libutils/ext/snprintk.c:304
    14b4:	39411fe0 	ldrb	w0, [sp, #71]
    14b8:	7100001f 	cmp	w0, #0x0
    14bc:	54fffde1 	b.ne	1478 <kprintf+0x138>  // b.any
/home/avees/optee_local_build/Linux_for_Tegra/sources/tegra/optee-src/nv-optee/optee/optee_os/lib/libutils/ext/snprintk.c:305
    14c0:	52800400 	mov	w0, #0x20                  	// #32
    14c4:	39011fe0 	strb	w0, [sp, #71]
/home/avees/optee_local_build/Linux_for_Tegra/sources/tegra/optee-src/nv-optee/optee/optee_os/lib/libutils/ext/snprintk.c:306
    14c8:	17ffffec 	b	1478 <kprintf+0x138>
/home/avees/optee_local_build/Linux_for_Tegra/sources/tegra/optee-src/nv-optee/optee/optee_os/lib/libutils/ext/snprintk.c:308
    14cc:	b94053e0 	ldr	w0, [sp, #80]
    14d0:	32000000 	orr	w0, w0, #0x1
    14d4:	b90053e0 	str	w0, [sp, #80]
/home/avees/optee_local_build/Linux_for_Tegra/sources/tegra/optee-src/nv-optee/optee/optee_os/lib/libutils/ext/snprintk.c:309
    14d8:	17ffffe8 	b	1478 <kprintf+0x138>
/home/avees/optee_local_build/Linux_for_Tegra/sources/tegra/optee-src/nv-optee/optee/optee_os/lib/libutils/ext/snprintk.c:317
    14dc:	b9401a61 	ldr	w1, [x19, #24]
    14e0:	f9400260 	ldr	x0, [x19]
    14e4:	7100003f 	cmp	w1, #0x0
    14e8:	540000ab 	b.lt	14fc <kprintf+0x1bc>  // b.tstop
    14ec:	91002c01 	add	x1, x0, #0xb
    14f0:	927df021 	and	x1, x1, #0xfffffffffffffff8
    14f4:	f9000261 	str	x1, [x19]
    14f8:	1400000d 	b	152c <kprintf+0x1ec>
    14fc:	11002022 	add	w2, w1, #0x8
    1500:	b9001a62 	str	w2, [x19, #24]
    1504:	b9401a62 	ldr	w2, [x19, #24]
    1508:	7100005f 	cmp	w2, #0x0
    150c:	540000ad 	b.le	1520 <kprintf+0x1e0>
    1510:	91002c01 	add	x1, x0, #0xb
    1514:	927df021 	and	x1, x1, #0xfffffffffffffff8
    1518:	f9000261 	str	x1, [x19]
    151c:	14000004 	b	152c <kprintf+0x1ec>
    1520:	f9400662 	ldr	x2, [x19, #8]
    1524:	93407c20 	sxtw	x0, w1
    1528:	8b000040 	add	x0, x2, x0
    152c:	b9400000 	ldr	w0, [x0]
    1530:	b9005be0 	str	w0, [sp, #88]
    1534:	b9405be0 	ldr	w0, [sp, #88]
    1538:	7100001f 	cmp	w0, #0x0
    153c:	5400004b 	b.lt	1544 <kprintf+0x204>  // b.tstop
/home/avees/optee_local_build/Linux_for_Tegra/sources/tegra/optee-src/nv-optee/optee/optee_os/lib/libutils/ext/snprintk.c:318
    1540:	17ffffce 	b	1478 <kprintf+0x138>
/home/avees/optee_local_build/Linux_for_Tegra/sources/tegra/optee-src/nv-optee/optee/optee_os/lib/libutils/ext/snprintk.c:319
    1544:	b9405be0 	ldr	w0, [sp, #88]
    1548:	4b0003e0 	neg	w0, w0
    154c:	b9005be0 	str	w0, [sp, #88]
/home/avees/optee_local_build/Linux_for_Tegra/sources/tegra/optee-src/nv-optee/optee/optee_os/lib/libutils/ext/snprintk.c:322
    1550:	b94053e0 	ldr	w0, [sp, #80]
    1554:	321e0000 	orr	w0, w0, #0x4
    1558:	b90053e0 	str	w0, [sp, #80]
/home/avees/optee_local_build/Linux_for_Tegra/sources/tegra/optee-src/nv-optee/optee/optee_os/lib/libutils/ext/snprintk.c:323
    155c:	17ffffc7 	b	1478 <kprintf+0x138>
/home/avees/optee_local_build/Linux_for_Tegra/sources/tegra/optee-src/nv-optee/optee/optee_os/lib/libutils/ext/snprintk.c:325
    1560:	52800560 	mov	w0, #0x2b                  	// #43
    1564:	39011fe0 	strb	w0, [sp, #71]
/home/avees/optee_local_build/Linux_for_Tegra/sources/tegra/optee-src/nv-optee/optee/optee_os/lib/libutils/ext/snprintk.c:326
    1568:	17ffffc4 	b	1478 <kprintf+0x138>
/home/avees/optee_local_build/Linux_for_Tegra/sources/tegra/optee-src/nv-optee/optee/optee_os/lib/libutils/ext/snprintk.c:328
    156c:	f9403be0 	ldr	x0, [sp, #112]
    1570:	91000401 	add	x1, x0, #0x1
    1574:	f9003be1 	str	x1, [sp, #112]
    1578:	39400000 	ldrb	w0, [x0]
    157c:	b9004be0 	str	w0, [sp, #72]
    1580:	b9404be0 	ldr	w0, [sp, #72]
    1584:	7100a81f 	cmp	w0, #0x2a
    1588:	540003c1 	b.ne	1600 <kprintf+0x2c0>  // b.any
/home/avees/optee_local_build/Linux_for_Tegra/sources/tegra/optee-src/nv-optee/optee/optee_os/lib/libutils/ext/snprintk.c:329
    158c:	b9401a61 	ldr	w1, [x19, #24]
    1590:	f9400260 	ldr	x0, [x19]
    1594:	7100003f 	cmp	w1, #0x0
    1598:	540000ab 	b.lt	15ac <kprintf+0x26c>  // b.tstop
    159c:	91002c01 	add	x1, x0, #0xb
    15a0:	927df021 	and	x1, x1, #0xfffffffffffffff8
    15a4:	f9000261 	str	x1, [x19]
    15a8:	1400000d 	b	15dc <kprintf+0x29c>
    15ac:	11002022 	add	w2, w1, #0x8
    15b0:	b9001a62 	str	w2, [x19, #24]
    15b4:	b9401a62 	ldr	w2, [x19, #24]
    15b8:	7100005f 	cmp	w2, #0x0
    15bc:	540000ad 	b.le	15d0 <kprintf+0x290>
    15c0:	91002c01 	add	x1, x0, #0xb
    15c4:	927df021 	and	x1, x1, #0xfffffffffffffff8
    15c8:	f9000261 	str	x1, [x19]
    15cc:	14000004 	b	15dc <kprintf+0x29c>
    15d0:	f9400662 	ldr	x2, [x19, #8]
    15d4:	93407c20 	sxtw	x0, w1
    15d8:	8b000040 	add	x0, x2, x0
    15dc:	b9400000 	ldr	w0, [x0]
    15e0:	b9004fe0 	str	w0, [sp, #76]
/home/avees/optee_local_build/Linux_for_Tegra/sources/tegra/optee-src/nv-optee/optee/optee_os/lib/libutils/ext/snprintk.c:330
    15e4:	b9404fe2 	ldr	w2, [sp, #76]
    15e8:	b9404fe1 	ldr	w1, [sp, #76]
    15ec:	12800000 	mov	w0, #0xffffffff            	// #-1
    15f0:	7100005f 	cmp	w2, #0x0
    15f4:	1a80a020 	csel	w0, w1, w0, ge  // ge = tcont
    15f8:	b9005fe0 	str	w0, [sp, #92]
/home/avees/optee_local_build/Linux_for_Tegra/sources/tegra/optee-src/nv-optee/optee/optee_os/lib/libutils/ext/snprintk.c:331
    15fc:	17ffff9f 	b	1478 <kprintf+0x138>
/home/avees/optee_local_build/Linux_for_Tegra/sources/tegra/optee-src/nv-optee/optee/optee_os/lib/libutils/ext/snprintk.c:333
    1600:	b9004fff 	str	wzr, [sp, #76]
/home/avees/optee_local_build/Linux_for_Tegra/sources/tegra/optee-src/nv-optee/optee/optee_os/lib/libutils/ext/snprintk.c:334
    1604:	14000010 	b	1644 <kprintf+0x304>
/home/avees/optee_local_build/Linux_for_Tegra/sources/tegra/optee-src/nv-optee/optee/optee_os/lib/libutils/ext/snprintk.c:335
    1608:	b9404fe1 	ldr	w1, [sp, #76]
    160c:	2a0103e0 	mov	w0, w1
    1610:	531e7400 	lsl	w0, w0, #2
    1614:	0b010000 	add	w0, w0, w1
    1618:	531f7800 	lsl	w0, w0, #1
    161c:	2a0003e1 	mov	w1, w0
    1620:	b9404be0 	ldr	w0, [sp, #72]
    1624:	5100c000 	sub	w0, w0, #0x30
    1628:	0b000020 	add	w0, w1, w0
    162c:	b9004fe0 	str	w0, [sp, #76]
/home/avees/optee_local_build/Linux_for_Tegra/sources/tegra/optee-src/nv-optee/optee/optee_os/lib/libutils/ext/snprintk.c:336
    1630:	f9403be0 	ldr	x0, [sp, #112]
    1634:	91000401 	add	x1, x0, #0x1
    1638:	f9003be1 	str	x1, [sp, #112]
    163c:	39400000 	ldrb	w0, [x0]
    1640:	b9004be0 	str	w0, [sp, #72]
/home/avees/optee_local_build/Linux_for_Tegra/sources/tegra/optee-src/nv-optee/optee/optee_os/lib/libutils/ext/snprintk.c:334
    1644:	b9404be0 	ldr	w0, [sp, #72]
    1648:	5100c000 	sub	w0, w0, #0x30
    164c:	7100241f 	cmp	w0, #0x9
    1650:	54fffdc9 	b.ls	1608 <kprintf+0x2c8>  // b.plast
/home/avees/optee_local_build/Linux_for_Tegra/sources/tegra/optee-src/nv-optee/optee/optee_os/lib/libutils/ext/snprintk.c:338
    1654:	b9404fe2 	ldr	w2, [sp, #76]
    1658:	b9404fe1 	ldr	w1, [sp, #76]
    165c:	12800000 	mov	w0, #0xffffffff            	// #-1
    1660:	7100005f 	cmp	w2, #0x0
    1664:	1a80a020 	csel	w0, w1, w0, ge  // ge = tcont
    1668:	b9005fe0 	str	w0, [sp, #92]
/home/avees/optee_local_build/Linux_for_Tegra/sources/tegra/optee-src/nv-optee/optee/optee_os/lib/libutils/ext/snprintk.c:339
    166c:	17ffff88 	b	148c <kprintf+0x14c>
/home/avees/optee_local_build/Linux_for_Tegra/sources/tegra/optee-src/nv-optee/optee/optee_os/lib/libutils/ext/snprintk.c:346
    1670:	b94053e0 	ldr	w0, [sp, #80]
    1674:	32160000 	orr	w0, w0, #0x400
    1678:	b90053e0 	str	w0, [sp, #80]
/home/avees/optee_local_build/Linux_for_Tegra/sources/tegra/optee-src/nv-optee/optee/optee_os/lib/libutils/ext/snprintk.c:347
    167c:	17ffff7f 	b	1478 <kprintf+0x138>
/home/avees/optee_local_build/Linux_for_Tegra/sources/tegra/optee-src/nv-optee/optee/optee_os/lib/libutils/ext/snprintk.c:350
    1680:	b9004fff 	str	wzr, [sp, #76]
/home/avees/optee_local_build/Linux_for_Tegra/sources/tegra/optee-src/nv-optee/optee/optee_os/lib/libutils/ext/snprintk.c:352 (discriminator 1)
    1684:	b9404fe1 	ldr	w1, [sp, #76]
    1688:	2a0103e0 	mov	w0, w1
    168c:	531e7400 	lsl	w0, w0, #2
    1690:	0b010000 	add	w0, w0, w1
    1694:	531f7800 	lsl	w0, w0, #1
    1698:	2a0003e1 	mov	w1, w0
    169c:	b9404be0 	ldr	w0, [sp, #72]
    16a0:	5100c000 	sub	w0, w0, #0x30
    16a4:	0b000020 	add	w0, w1, w0
    16a8:	b9004fe0 	str	w0, [sp, #76]
/home/avees/optee_local_build/Linux_for_Tegra/sources/tegra/optee-src/nv-optee/optee/optee_os/lib/libutils/ext/snprintk.c:353 (discriminator 1)
    16ac:	f9403be0 	ldr	x0, [sp, #112]
    16b0:	91000401 	add	x1, x0, #0x1
    16b4:	f9003be1 	str	x1, [sp, #112]
    16b8:	39400000 	ldrb	w0, [x0]
    16bc:	b9004be0 	str	w0, [sp, #72]
/home/avees/optee_local_build/Linux_for_Tegra/sources/tegra/optee-src/nv-optee/optee/optee_os/lib/libutils/ext/snprintk.c:354 (discriminator 1)
    16c0:	b9404be0 	ldr	w0, [sp, #72]
    16c4:	5100c000 	sub	w0, w0, #0x30
    16c8:	7100241f 	cmp	w0, #0x9
    16cc:	54fffdc9 	b.ls	1684 <kprintf+0x344>  // b.plast
/home/avees/optee_local_build/Linux_for_Tegra/sources/tegra/optee-src/nv-optee/optee/optee_os/lib/libutils/ext/snprintk.c:355
    16d0:	b9404fe0 	ldr	w0, [sp, #76]
    16d4:	b9005be0 	str	w0, [sp, #88]
/home/avees/optee_local_build/Linux_for_Tegra/sources/tegra/optee-src/nv-optee/optee/optee_os/lib/libutils/ext/snprintk.c:356
    16d8:	17ffff6d 	b	148c <kprintf+0x14c>
/home/avees/optee_local_build/Linux_for_Tegra/sources/tegra/optee-src/nv-optee/optee/optee_os/lib/libutils/ext/snprintk.c:358
    16dc:	b94053e0 	ldr	w0, [sp, #80]
    16e0:	321a0000 	orr	w0, w0, #0x40
    16e4:	b90053e0 	str	w0, [sp, #80]
/home/avees/optee_local_build/Linux_for_Tegra/sources/tegra/optee-src/nv-optee/optee/optee_os/lib/libutils/ext/snprintk.c:359
    16e8:	17ffff64 	b	1478 <kprintf+0x138>
/home/avees/optee_local_build/Linux_for_Tegra/sources/tegra/optee-src/nv-optee/optee/optee_os/lib/libutils/ext/snprintk.c:361
    16ec:	b94053e0 	ldr	w0, [sp, #80]
    16f0:	32190000 	orr	w0, w0, #0x80
    16f4:	b90053e0 	str	w0, [sp, #80]
/home/avees/optee_local_build/Linux_for_Tegra/sources/tegra/optee-src/nv-optee/optee/optee_os/lib/libutils/ext/snprintk.c:362
    16f8:	17ffff60 	b	1478 <kprintf+0x138>
/home/avees/optee_local_build/Linux_for_Tegra/sources/tegra/optee-src/nv-optee/optee/optee_os/lib/libutils/ext/snprintk.c:364
    16fc:	f9403be0 	ldr	x0, [sp, #112]
    1700:	39400000 	ldrb	w0, [x0]
    1704:	7101b01f 	cmp	w0, #0x6c
    1708:	54000101 	b.ne	1728 <kprintf+0x3e8>  // b.any
/home/avees/optee_local_build/Linux_for_Tegra/sources/tegra/optee-src/nv-optee/optee/optee_os/lib/libutils/ext/snprintk.c:365
    170c:	f9403be0 	ldr	x0, [sp, #112]
    1710:	91000400 	add	x0, x0, #0x1
    1714:	f9003be0 	str	x0, [sp, #112]
/home/avees/optee_local_build/Linux_for_Tegra/sources/tegra/optee-src/nv-optee/optee/optee_os/lib/libutils/ext/snprintk.c:366
    1718:	b94053e0 	ldr	w0, [sp, #80]
    171c:	321b0000 	orr	w0, w0, #0x20
    1720:	b90053e0 	str	w0, [sp, #80]
    1724:	17ffff55 	b	1478 <kprintf+0x138>
/home/avees/optee_local_build/Linux_for_Tegra/sources/tegra/optee-src/nv-optee/optee/optee_os/lib/libutils/ext/snprintk.c:368
    1728:	b94053e0 	ldr	w0, [sp, #80]
    172c:	321c0000 	orr	w0, w0, #0x10
    1730:	b90053e0 	str	w0, [sp, #80]
/home/avees/optee_local_build/Linux_for_Tegra/sources/tegra/optee-src/nv-optee/optee/optee_os/lib/libutils/ext/snprintk.c:370
    1734:	17ffff51 	b	1478 <kprintf+0x138>
/home/avees/optee_local_build/Linux_for_Tegra/sources/tegra/optee-src/nv-optee/optee/optee_os/lib/libutils/ext/snprintk.c:372
    1738:	b94053e0 	ldr	w0, [sp, #80]
    173c:	321b0000 	orr	w0, w0, #0x20
    1740:	b90053e0 	str	w0, [sp, #80]
/home/avees/optee_local_build/Linux_for_Tegra/sources/tegra/optee-src/nv-optee/optee/optee_os/lib/libutils/ext/snprintk.c:373
    1744:	17ffff4d 	b	1478 <kprintf+0x138>
/home/avees/optee_local_build/Linux_for_Tegra/sources/tegra/optee-src/nv-optee/optee/optee_os/lib/libutils/ext/snprintk.c:375
    1748:	b94053e0 	ldr	w0, [sp, #80]
    174c:	32180000 	orr	w0, w0, #0x100
    1750:	b90053e0 	str	w0, [sp, #80]
/home/avees/optee_local_build/Linux_for_Tegra/sources/tegra/optee-src/nv-optee/optee/optee_os/lib/libutils/ext/snprintk.c:376
    1754:	17ffff49 	b	1478 <kprintf+0x138>
/home/avees/optee_local_build/Linux_for_Tegra/sources/tegra/optee-src/nv-optee/optee/optee_os/lib/libutils/ext/snprintk.c:378
    1758:	b94053e0 	ldr	w0, [sp, #80]
    175c:	32170000 	orr	w0, w0, #0x200
    1760:	b90053e0 	str	w0, [sp, #80]
/home/avees/optee_local_build/Linux_for_Tegra/sources/tegra/optee-src/nv-optee/optee/optee_os/lib/libutils/ext/snprintk.c:379
    1764:	17ffff45 	b	1478 <kprintf+0x138>
/home/avees/optee_local_build/Linux_for_Tegra/sources/tegra/optee-src/nv-optee/optee/optee_os/lib/libutils/ext/snprintk.c:381
    1768:	b9401a61 	ldr	w1, [x19, #24]
    176c:	f9400260 	ldr	x0, [x19]
    1770:	7100003f 	cmp	w1, #0x0
    1774:	540000ab 	b.lt	1788 <kprintf+0x448>  // b.tstop
    1778:	91002c01 	add	x1, x0, #0xb
    177c:	927df021 	and	x1, x1, #0xfffffffffffffff8
    1780:	f9000261 	str	x1, [x19]
    1784:	1400000d 	b	17b8 <kprintf+0x478>
    1788:	11002022 	add	w2, w1, #0x8
    178c:	b9001a62 	str	w2, [x19, #24]
    1790:	b9401a62 	ldr	w2, [x19, #24]
    1794:	7100005f 	cmp	w2, #0x0
    1798:	540000ad 	b.le	17ac <kprintf+0x46c>
    179c:	91002c01 	add	x1, x0, #0xb
    17a0:	927df021 	and	x1, x1, #0xfffffffffffffff8
    17a4:	f9000261 	str	x1, [x19]
    17a8:	14000004 	b	17b8 <kprintf+0x478>
    17ac:	f9400662 	ldr	x2, [x19, #8]
    17b0:	93407c20 	sxtw	x0, w1
    17b4:	8b000040 	add	x0, x2, x0
    17b8:	b9400001 	ldr	w1, [x0]
    17bc:	910283e0 	add	x0, sp, #0xa0
    17c0:	f9003fe0 	str	x0, [sp, #120]
    17c4:	12001c21 	and	w1, w1, #0xff
    17c8:	f9403fe0 	ldr	x0, [sp, #120]
    17cc:	39000001 	strb	w1, [x0]
/home/avees/optee_local_build/Linux_for_Tegra/sources/tegra/optee-src/nv-optee/optee/optee_os/lib/libutils/ext/snprintk.c:382
    17d0:	52800020 	mov	w0, #0x1                   	// #1
    17d4:	b9006fe0 	str	w0, [sp, #108]
/home/avees/optee_local_build/Linux_for_Tegra/sources/tegra/optee-src/nv-optee/optee/optee_os/lib/libutils/ext/snprintk.c:383
    17d8:	39011fff 	strb	wzr, [sp, #71]
/home/avees/optee_local_build/Linux_for_Tegra/sources/tegra/optee-src/nv-optee/optee/optee_os/lib/libutils/ext/snprintk.c:384
    17dc:	140004e2 	b	2b64 <kprintf+0x1824>
/home/avees/optee_local_build/Linux_for_Tegra/sources/tegra/optee-src/nv-optee/optee/optee_os/lib/libutils/ext/snprintk.c:386
    17e0:	b94053e0 	ldr	w0, [sp, #80]
    17e4:	321c0000 	orr	w0, w0, #0x10
    17e8:	b90053e0 	str	w0, [sp, #80]
/home/avees/optee_local_build/Linux_for_Tegra/sources/tegra/optee-src/nv-optee/optee/optee_os/lib/libutils/ext/snprintk.c:390
    17ec:	b94053e0 	ldr	w0, [sp, #80]
    17f0:	12190000 	and	w0, w0, #0x80
    17f4:	7100001f 	cmp	w0, #0x0
    17f8:	540002e0 	b.eq	1854 <kprintf+0x514>  // b.none
    17fc:	b9401a61 	ldr	w1, [x19, #24]
    1800:	f9400260 	ldr	x0, [x19]
    1804:	7100003f 	cmp	w1, #0x0
    1808:	540000ab 	b.lt	181c <kprintf+0x4dc>  // b.tstop
    180c:	91003c01 	add	x1, x0, #0xf
    1810:	927df021 	and	x1, x1, #0xfffffffffffffff8
    1814:	f9000261 	str	x1, [x19]
    1818:	1400000d 	b	184c <kprintf+0x50c>
    181c:	11002022 	add	w2, w1, #0x8
    1820:	b9001a62 	str	w2, [x19, #24]
    1824:	b9401a62 	ldr	w2, [x19, #24]
    1828:	7100005f 	cmp	w2, #0x0
    182c:	540000ad 	b.le	1840 <kprintf+0x500>
    1830:	91003c01 	add	x1, x0, #0xf
    1834:	927df021 	and	x1, x1, #0xfffffffffffffff8
    1838:	f9000261 	str	x1, [x19]
    183c:	14000004 	b	184c <kprintf+0x50c>
    1840:	f9400662 	ldr	x2, [x19, #8]
    1844:	93407c20 	sxtw	x0, w1
    1848:	8b000040 	add	x0, x2, x0
    184c:	f9400000 	ldr	x0, [x0]
    1850:	1400009b 	b	1abc <kprintf+0x77c>
/home/avees/optee_local_build/Linux_for_Tegra/sources/tegra/optee-src/nv-optee/optee/optee_os/lib/libutils/ext/snprintk.c:390 (discriminator 2)
    1854:	b94053e0 	ldr	w0, [sp, #80]
    1858:	12180000 	and	w0, w0, #0x100
    185c:	7100001f 	cmp	w0, #0x0
    1860:	540002e0 	b.eq	18bc <kprintf+0x57c>  // b.none
/home/avees/optee_local_build/Linux_for_Tegra/sources/tegra/optee-src/nv-optee/optee/optee_os/lib/libutils/ext/snprintk.c:390
    1864:	b9401a61 	ldr	w1, [x19, #24]
    1868:	f9400260 	ldr	x0, [x19]
    186c:	7100003f 	cmp	w1, #0x0
    1870:	540000ab 	b.lt	1884 <kprintf+0x544>  // b.tstop
    1874:	91003c01 	add	x1, x0, #0xf
    1878:	927df021 	and	x1, x1, #0xfffffffffffffff8
    187c:	f9000261 	str	x1, [x19]
    1880:	1400000d 	b	18b4 <kprintf+0x574>
    1884:	11002022 	add	w2, w1, #0x8
    1888:	b9001a62 	str	w2, [x19, #24]
    188c:	b9401a62 	ldr	w2, [x19, #24]
    1890:	7100005f 	cmp	w2, #0x0
    1894:	540000ad 	b.le	18a8 <kprintf+0x568>
    1898:	91003c01 	add	x1, x0, #0xf
    189c:	927df021 	and	x1, x1, #0xfffffffffffffff8
    18a0:	f9000261 	str	x1, [x19]
    18a4:	14000004 	b	18b4 <kprintf+0x574>
    18a8:	f9400662 	ldr	x2, [x19, #8]
    18ac:	93407c20 	sxtw	x0, w1
    18b0:	8b000040 	add	x0, x2, x0
    18b4:	f9400000 	ldr	x0, [x0]
    18b8:	14000081 	b	1abc <kprintf+0x77c>
/home/avees/optee_local_build/Linux_for_Tegra/sources/tegra/optee-src/nv-optee/optee/optee_os/lib/libutils/ext/snprintk.c:390 (discriminator 5)
    18bc:	b94053e0 	ldr	w0, [sp, #80]
    18c0:	12170000 	and	w0, w0, #0x200
    18c4:	7100001f 	cmp	w0, #0x0
    18c8:	540002e0 	b.eq	1924 <kprintf+0x5e4>  // b.none
/home/avees/optee_local_build/Linux_for_Tegra/sources/tegra/optee-src/nv-optee/optee/optee_os/lib/libutils/ext/snprintk.c:390
    18cc:	b9401a61 	ldr	w1, [x19, #24]
    18d0:	f9400260 	ldr	x0, [x19]
    18d4:	7100003f 	cmp	w1, #0x0
    18d8:	540000ab 	b.lt	18ec <kprintf+0x5ac>  // b.tstop
    18dc:	91003c01 	add	x1, x0, #0xf
    18e0:	927df021 	and	x1, x1, #0xfffffffffffffff8
    18e4:	f9000261 	str	x1, [x19]
    18e8:	1400000d 	b	191c <kprintf+0x5dc>
    18ec:	11002022 	add	w2, w1, #0x8
    18f0:	b9001a62 	str	w2, [x19, #24]
    18f4:	b9401a62 	ldr	w2, [x19, #24]
    18f8:	7100005f 	cmp	w2, #0x0
    18fc:	540000ad 	b.le	1910 <kprintf+0x5d0>
    1900:	91003c01 	add	x1, x0, #0xf
    1904:	927df021 	and	x1, x1, #0xfffffffffffffff8
    1908:	f9000261 	str	x1, [x19]
    190c:	14000004 	b	191c <kprintf+0x5dc>
    1910:	f9400662 	ldr	x2, [x19, #8]
    1914:	93407c20 	sxtw	x0, w1
    1918:	8b000040 	add	x0, x2, x0
    191c:	f9400000 	ldr	x0, [x0]
    1920:	14000067 	b	1abc <kprintf+0x77c>
/home/avees/optee_local_build/Linux_for_Tegra/sources/tegra/optee-src/nv-optee/optee/optee_os/lib/libutils/ext/snprintk.c:390 (discriminator 8)
    1924:	b94053e0 	ldr	w0, [sp, #80]
    1928:	121b0000 	and	w0, w0, #0x20
    192c:	7100001f 	cmp	w0, #0x0
    1930:	540002e0 	b.eq	198c <kprintf+0x64c>  // b.none
/home/avees/optee_local_build/Linux_for_Tegra/sources/tegra/optee-src/nv-optee/optee/optee_os/lib/libutils/ext/snprintk.c:390
    1934:	b9401a61 	ldr	w1, [x19, #24]
    1938:	f9400260 	ldr	x0, [x19]
    193c:	7100003f 	cmp	w1, #0x0
    1940:	540000ab 	b.lt	1954 <kprintf+0x614>  // b.tstop
    1944:	91003c01 	add	x1, x0, #0xf
    1948:	927df021 	and	x1, x1, #0xfffffffffffffff8
    194c:	f9000261 	str	x1, [x19]
    1950:	1400000d 	b	1984 <kprintf+0x644>
    1954:	11002022 	add	w2, w1, #0x8
    1958:	b9001a62 	str	w2, [x19, #24]
    195c:	b9401a62 	ldr	w2, [x19, #24]
    1960:	7100005f 	cmp	w2, #0x0
    1964:	540000ad 	b.le	1978 <kprintf+0x638>
    1968:	91003c01 	add	x1, x0, #0xf
    196c:	927df021 	and	x1, x1, #0xfffffffffffffff8
    1970:	f9000261 	str	x1, [x19]
    1974:	14000004 	b	1984 <kprintf+0x644>
    1978:	f9400662 	ldr	x2, [x19, #8]
    197c:	93407c20 	sxtw	x0, w1
    1980:	8b000040 	add	x0, x2, x0
    1984:	f9400000 	ldr	x0, [x0]
    1988:	1400004d 	b	1abc <kprintf+0x77c>
/home/avees/optee_local_build/Linux_for_Tegra/sources/tegra/optee-src/nv-optee/optee/optee_os/lib/libutils/ext/snprintk.c:390 (discriminator 11)
    198c:	b94053e0 	ldr	w0, [sp, #80]
    1990:	121c0000 	and	w0, w0, #0x10
    1994:	7100001f 	cmp	w0, #0x0
    1998:	540002e0 	b.eq	19f4 <kprintf+0x6b4>  // b.none
/home/avees/optee_local_build/Linux_for_Tegra/sources/tegra/optee-src/nv-optee/optee/optee_os/lib/libutils/ext/snprintk.c:390
    199c:	b9401a61 	ldr	w1, [x19, #24]
    19a0:	f9400260 	ldr	x0, [x19]
    19a4:	7100003f 	cmp	w1, #0x0
    19a8:	540000ab 	b.lt	19bc <kprintf+0x67c>  // b.tstop
    19ac:	91003c01 	add	x1, x0, #0xf
    19b0:	927df021 	and	x1, x1, #0xfffffffffffffff8
    19b4:	f9000261 	str	x1, [x19]
    19b8:	1400000d 	b	19ec <kprintf+0x6ac>
    19bc:	11002022 	add	w2, w1, #0x8
    19c0:	b9001a62 	str	w2, [x19, #24]
    19c4:	b9401a62 	ldr	w2, [x19, #24]
    19c8:	7100005f 	cmp	w2, #0x0
    19cc:	540000ad 	b.le	19e0 <kprintf+0x6a0>
    19d0:	91003c01 	add	x1, x0, #0xf
    19d4:	927df021 	and	x1, x1, #0xfffffffffffffff8
    19d8:	f9000261 	str	x1, [x19]
    19dc:	14000004 	b	19ec <kprintf+0x6ac>
    19e0:	f9400662 	ldr	x2, [x19, #8]
    19e4:	93407c20 	sxtw	x0, w1
    19e8:	8b000040 	add	x0, x2, x0
    19ec:	f9400000 	ldr	x0, [x0]
    19f0:	14000033 	b	1abc <kprintf+0x77c>
/home/avees/optee_local_build/Linux_for_Tegra/sources/tegra/optee-src/nv-optee/optee/optee_os/lib/libutils/ext/snprintk.c:390 (discriminator 14)
    19f4:	b94053e0 	ldr	w0, [sp, #80]
    19f8:	121a0000 	and	w0, w0, #0x40
    19fc:	7100001f 	cmp	w0, #0x0
    1a00:	54000320 	b.eq	1a64 <kprintf+0x724>  // b.none
/home/avees/optee_local_build/Linux_for_Tegra/sources/tegra/optee-src/nv-optee/optee/optee_os/lib/libutils/ext/snprintk.c:390
    1a04:	b9401a61 	ldr	w1, [x19, #24]
    1a08:	f9400260 	ldr	x0, [x19]
    1a0c:	7100003f 	cmp	w1, #0x0
    1a10:	540000ab 	b.lt	1a24 <kprintf+0x6e4>  // b.tstop
    1a14:	91002c01 	add	x1, x0, #0xb
    1a18:	927df021 	and	x1, x1, #0xfffffffffffffff8
    1a1c:	f9000261 	str	x1, [x19]
    1a20:	1400000d 	b	1a54 <kprintf+0x714>
    1a24:	11002022 	add	w2, w1, #0x8
    1a28:	b9001a62 	str	w2, [x19, #24]
    1a2c:	b9401a62 	ldr	w2, [x19, #24]
    1a30:	7100005f 	cmp	w2, #0x0
    1a34:	540000ad 	b.le	1a48 <kprintf+0x708>
    1a38:	91002c01 	add	x1, x0, #0xb
    1a3c:	927df021 	and	x1, x1, #0xfffffffffffffff8
    1a40:	f9000261 	str	x1, [x19]
    1a44:	14000004 	b	1a54 <kprintf+0x714>
    1a48:	f9400662 	ldr	x2, [x19, #8]
    1a4c:	93407c20 	sxtw	x0, w1
    1a50:	8b000040 	add	x0, x2, x0
    1a54:	b9400000 	ldr	w0, [x0]
    1a58:	13003c00 	sxth	w0, w0
    1a5c:	93403c00 	sxth	x0, w0
    1a60:	14000017 	b	1abc <kprintf+0x77c>
    1a64:	b9401a61 	ldr	w1, [x19, #24]
    1a68:	f9400260 	ldr	x0, [x19]
    1a6c:	7100003f 	cmp	w1, #0x0
    1a70:	540000ab 	b.lt	1a84 <kprintf+0x744>  // b.tstop
    1a74:	91002c01 	add	x1, x0, #0xb
    1a78:	927df021 	and	x1, x1, #0xfffffffffffffff8
    1a7c:	f9000261 	str	x1, [x19]
    1a80:	1400000d 	b	1ab4 <kprintf+0x774>
    1a84:	11002022 	add	w2, w1, #0x8
    1a88:	b9001a62 	str	w2, [x19, #24]
    1a8c:	b9401a62 	ldr	w2, [x19, #24]
    1a90:	7100005f 	cmp	w2, #0x0
    1a94:	540000ad 	b.le	1aa8 <kprintf+0x768>
    1a98:	91002c01 	add	x1, x0, #0xb
    1a9c:	927df021 	and	x1, x1, #0xfffffffffffffff8
    1aa0:	f9000261 	str	x1, [x19]
    1aa4:	14000004 	b	1ab4 <kprintf+0x774>
    1aa8:	f9400662 	ldr	x2, [x19, #8]
    1aac:	93407c20 	sxtw	x0, w1
    1ab0:	8b000040 	add	x0, x2, x0
    1ab4:	b9400000 	ldr	w0, [x0]
    1ab8:	93407c00 	sxtw	x0, w0
/home/avees/optee_local_build/Linux_for_Tegra/sources/tegra/optee-src/nv-optee/optee/optee_os/lib/libutils/ext/snprintk.c:390 (discriminator 24)
    1abc:	f90043e0 	str	x0, [sp, #128]
/home/avees/optee_local_build/Linux_for_Tegra/sources/tegra/optee-src/nv-optee/optee/optee_os/lib/libutils/ext/snprintk.c:391 (discriminator 24)
    1ac0:	f94043e0 	ldr	x0, [sp, #128]
    1ac4:	f100001f 	cmp	x0, #0x0
    1ac8:	540000ca 	b.ge	1ae0 <kprintf+0x7a0>  // b.tcont
/home/avees/optee_local_build/Linux_for_Tegra/sources/tegra/optee-src/nv-optee/optee/optee_os/lib/libutils/ext/snprintk.c:392
    1acc:	f94043e0 	ldr	x0, [sp, #128]
    1ad0:	cb0003e0 	neg	x0, x0
    1ad4:	f90043e0 	str	x0, [sp, #128]
/home/avees/optee_local_build/Linux_for_Tegra/sources/tegra/optee-src/nv-optee/optee/optee_os/lib/libutils/ext/snprintk.c:393
    1ad8:	528005a0 	mov	w0, #0x2d                  	// #45
    1adc:	39011fe0 	strb	w0, [sp, #71]
/home/avees/optee_local_build/Linux_for_Tegra/sources/tegra/optee-src/nv-optee/optee/optee_os/lib/libutils/ext/snprintk.c:395
    1ae0:	52800020 	mov	w0, #0x1                   	// #1
    1ae4:	b90063e0 	str	w0, [sp, #96]
/home/avees/optee_local_build/Linux_for_Tegra/sources/tegra/optee-src/nv-optee/optee/optee_os/lib/libutils/ext/snprintk.c:396
    1ae8:	1400038b 	b	2914 <kprintf+0x15d4>
/home/avees/optee_local_build/Linux_for_Tegra/sources/tegra/optee-src/nv-optee/optee/optee_os/lib/libutils/ext/snprintk.c:398
    1aec:	b94053e0 	ldr	w0, [sp, #80]
    1af0:	12190000 	and	w0, w0, #0x80
    1af4:	7100001f 	cmp	w0, #0x0
    1af8:	54000320 	b.eq	1b5c <kprintf+0x81c>  // b.none
/home/avees/optee_local_build/Linux_for_Tegra/sources/tegra/optee-src/nv-optee/optee/optee_os/lib/libutils/ext/snprintk.c:399
    1afc:	b9401a61 	ldr	w1, [x19, #24]
    1b00:	f9400260 	ldr	x0, [x19]
    1b04:	7100003f 	cmp	w1, #0x0
    1b08:	540000ab 	b.lt	1b1c <kprintf+0x7dc>  // b.tstop
    1b0c:	91003c01 	add	x1, x0, #0xf
    1b10:	927df021 	and	x1, x1, #0xfffffffffffffff8
    1b14:	f9000261 	str	x1, [x19]
    1b18:	1400000d 	b	1b4c <kprintf+0x80c>
    1b1c:	11002022 	add	w2, w1, #0x8
    1b20:	b9001a62 	str	w2, [x19, #24]
    1b24:	b9401a62 	ldr	w2, [x19, #24]
    1b28:	7100005f 	cmp	w2, #0x0
    1b2c:	540000ad 	b.le	1b40 <kprintf+0x800>
    1b30:	91003c01 	add	x1, x0, #0xf
    1b34:	927df021 	and	x1, x1, #0xfffffffffffffff8
    1b38:	f9000261 	str	x1, [x19]
    1b3c:	14000004 	b	1b4c <kprintf+0x80c>
    1b40:	f9400662 	ldr	x2, [x19, #8]
    1b44:	93407c20 	sxtw	x0, w1
    1b48:	8b000040 	add	x0, x2, x0
    1b4c:	f9400000 	ldr	x0, [x0]
    1b50:	b98057e1 	ldrsw	x1, [sp, #84]
    1b54:	f9000001 	str	x1, [x0]
/home/avees/optee_local_build/Linux_for_Tegra/sources/tegra/optee-src/nv-optee/optee/optee_os/lib/libutils/ext/snprintk.c:412
    1b58:	140004f8 	b	2f38 <kprintf+0x1bf8>
/home/avees/optee_local_build/Linux_for_Tegra/sources/tegra/optee-src/nv-optee/optee/optee_os/lib/libutils/ext/snprintk.c:400
    1b5c:	b94053e0 	ldr	w0, [sp, #80]
    1b60:	12180000 	and	w0, w0, #0x100
    1b64:	7100001f 	cmp	w0, #0x0
    1b68:	54000320 	b.eq	1bcc <kprintf+0x88c>  // b.none
/home/avees/optee_local_build/Linux_for_Tegra/sources/tegra/optee-src/nv-optee/optee/optee_os/lib/libutils/ext/snprintk.c:401
    1b6c:	b9401a61 	ldr	w1, [x19, #24]
    1b70:	f9400260 	ldr	x0, [x19]
    1b74:	7100003f 	cmp	w1, #0x0
    1b78:	540000ab 	b.lt	1b8c <kprintf+0x84c>  // b.tstop
    1b7c:	91003c01 	add	x1, x0, #0xf
    1b80:	927df021 	and	x1, x1, #0xfffffffffffffff8
    1b84:	f9000261 	str	x1, [x19]
    1b88:	1400000d 	b	1bbc <kprintf+0x87c>
    1b8c:	11002022 	add	w2, w1, #0x8
    1b90:	b9001a62 	str	w2, [x19, #24]
    1b94:	b9401a62 	ldr	w2, [x19, #24]
    1b98:	7100005f 	cmp	w2, #0x0
    1b9c:	540000ad 	b.le	1bb0 <kprintf+0x870>
    1ba0:	91003c01 	add	x1, x0, #0xf
    1ba4:	927df021 	and	x1, x1, #0xfffffffffffffff8
    1ba8:	f9000261 	str	x1, [x19]
    1bac:	14000004 	b	1bbc <kprintf+0x87c>
    1bb0:	f9400662 	ldr	x2, [x19, #8]
    1bb4:	93407c20 	sxtw	x0, w1
    1bb8:	8b000040 	add	x0, x2, x0
    1bbc:	f9400000 	ldr	x0, [x0]
    1bc0:	b98057e1 	ldrsw	x1, [sp, #84]
    1bc4:	f9000001 	str	x1, [x0]
/home/avees/optee_local_build/Linux_for_Tegra/sources/tegra/optee-src/nv-optee/optee/optee_os/lib/libutils/ext/snprintk.c:412
    1bc8:	140004dc 	b	2f38 <kprintf+0x1bf8>
/home/avees/optee_local_build/Linux_for_Tegra/sources/tegra/optee-src/nv-optee/optee/optee_os/lib/libutils/ext/snprintk.c:402
    1bcc:	b94053e0 	ldr	w0, [sp, #80]
    1bd0:	12170000 	and	w0, w0, #0x200
    1bd4:	7100001f 	cmp	w0, #0x0
    1bd8:	54000320 	b.eq	1c3c <kprintf+0x8fc>  // b.none
/home/avees/optee_local_build/Linux_for_Tegra/sources/tegra/optee-src/nv-optee/optee/optee_os/lib/libutils/ext/snprintk.c:403
    1bdc:	b9401a61 	ldr	w1, [x19, #24]
    1be0:	f9400260 	ldr	x0, [x19]
    1be4:	7100003f 	cmp	w1, #0x0
    1be8:	540000ab 	b.lt	1bfc <kprintf+0x8bc>  // b.tstop
    1bec:	91003c01 	add	x1, x0, #0xf
    1bf0:	927df021 	and	x1, x1, #0xfffffffffffffff8
    1bf4:	f9000261 	str	x1, [x19]
    1bf8:	1400000d 	b	1c2c <kprintf+0x8ec>
    1bfc:	11002022 	add	w2, w1, #0x8
    1c00:	b9001a62 	str	w2, [x19, #24]
    1c04:	b9401a62 	ldr	w2, [x19, #24]
    1c08:	7100005f 	cmp	w2, #0x0
    1c0c:	540000ad 	b.le	1c20 <kprintf+0x8e0>
    1c10:	91003c01 	add	x1, x0, #0xf
    1c14:	927df021 	and	x1, x1, #0xfffffffffffffff8
    1c18:	f9000261 	str	x1, [x19]
    1c1c:	14000004 	b	1c2c <kprintf+0x8ec>
    1c20:	f9400662 	ldr	x2, [x19, #8]
    1c24:	93407c20 	sxtw	x0, w1
    1c28:	8b000040 	add	x0, x2, x0
    1c2c:	f9400000 	ldr	x0, [x0]
    1c30:	b98057e1 	ldrsw	x1, [sp, #84]
    1c34:	f9000001 	str	x1, [x0]
/home/avees/optee_local_build/Linux_for_Tegra/sources/tegra/optee-src/nv-optee/optee/optee_os/lib/libutils/ext/snprintk.c:412
    1c38:	140004c0 	b	2f38 <kprintf+0x1bf8>
/home/avees/optee_local_build/Linux_for_Tegra/sources/tegra/optee-src/nv-optee/optee/optee_os/lib/libutils/ext/snprintk.c:404
    1c3c:	b94053e0 	ldr	w0, [sp, #80]
    1c40:	121b0000 	and	w0, w0, #0x20
    1c44:	7100001f 	cmp	w0, #0x0
    1c48:	54000320 	b.eq	1cac <kprintf+0x96c>  // b.none
/home/avees/optee_local_build/Linux_for_Tegra/sources/tegra/optee-src/nv-optee/optee/optee_os/lib/libutils/ext/snprintk.c:405
    1c4c:	b9401a61 	ldr	w1, [x19, #24]
    1c50:	f9400260 	ldr	x0, [x19]
    1c54:	7100003f 	cmp	w1, #0x0
    1c58:	540000ab 	b.lt	1c6c <kprintf+0x92c>  // b.tstop
    1c5c:	91003c01 	add	x1, x0, #0xf
    1c60:	927df021 	and	x1, x1, #0xfffffffffffffff8
    1c64:	f9000261 	str	x1, [x19]
    1c68:	1400000d 	b	1c9c <kprintf+0x95c>
    1c6c:	11002022 	add	w2, w1, #0x8
    1c70:	b9001a62 	str	w2, [x19, #24]
    1c74:	b9401a62 	ldr	w2, [x19, #24]
    1c78:	7100005f 	cmp	w2, #0x0
    1c7c:	540000ad 	b.le	1c90 <kprintf+0x950>
    1c80:	91003c01 	add	x1, x0, #0xf
    1c84:	927df021 	and	x1, x1, #0xfffffffffffffff8
    1c88:	f9000261 	str	x1, [x19]
    1c8c:	14000004 	b	1c9c <kprintf+0x95c>
    1c90:	f9400662 	ldr	x2, [x19, #8]
    1c94:	93407c20 	sxtw	x0, w1
    1c98:	8b000040 	add	x0, x2, x0
    1c9c:	f9400000 	ldr	x0, [x0]
    1ca0:	b98057e1 	ldrsw	x1, [sp, #84]
    1ca4:	f9000001 	str	x1, [x0]
/home/avees/optee_local_build/Linux_for_Tegra/sources/tegra/optee-src/nv-optee/optee/optee_os/lib/libutils/ext/snprintk.c:412
    1ca8:	140004a4 	b	2f38 <kprintf+0x1bf8>
/home/avees/optee_local_build/Linux_for_Tegra/sources/tegra/optee-src/nv-optee/optee/optee_os/lib/libutils/ext/snprintk.c:406
    1cac:	b94053e0 	ldr	w0, [sp, #80]
    1cb0:	121c0000 	and	w0, w0, #0x10
    1cb4:	7100001f 	cmp	w0, #0x0
    1cb8:	54000320 	b.eq	1d1c <kprintf+0x9dc>  // b.none
/home/avees/optee_local_build/Linux_for_Tegra/sources/tegra/optee-src/nv-optee/optee/optee_os/lib/libutils/ext/snprintk.c:407
    1cbc:	b9401a61 	ldr	w1, [x19, #24]
    1cc0:	f9400260 	ldr	x0, [x19]
    1cc4:	7100003f 	cmp	w1, #0x0
    1cc8:	540000ab 	b.lt	1cdc <kprintf+0x99c>  // b.tstop
    1ccc:	91003c01 	add	x1, x0, #0xf
    1cd0:	927df021 	and	x1, x1, #0xfffffffffffffff8
    1cd4:	f9000261 	str	x1, [x19]
    1cd8:	1400000d 	b	1d0c <kprintf+0x9cc>
    1cdc:	11002022 	add	w2, w1, #0x8
    1ce0:	b9001a62 	str	w2, [x19, #24]
    1ce4:	b9401a62 	ldr	w2, [x19, #24]
    1ce8:	7100005f 	cmp	w2, #0x0
    1cec:	540000ad 	b.le	1d00 <kprintf+0x9c0>
    1cf0:	91003c01 	add	x1, x0, #0xf
    1cf4:	927df021 	and	x1, x1, #0xfffffffffffffff8
    1cf8:	f9000261 	str	x1, [x19]
    1cfc:	14000004 	b	1d0c <kprintf+0x9cc>
    1d00:	f9400662 	ldr	x2, [x19, #8]
    1d04:	93407c20 	sxtw	x0, w1
    1d08:	8b000040 	add	x0, x2, x0
    1d0c:	f9400000 	ldr	x0, [x0]
    1d10:	b98057e1 	ldrsw	x1, [sp, #84]
    1d14:	f9000001 	str	x1, [x0]
/home/avees/optee_local_build/Linux_for_Tegra/sources/tegra/optee-src/nv-optee/optee/optee_os/lib/libutils/ext/snprintk.c:412
    1d18:	14000488 	b	2f38 <kprintf+0x1bf8>
/home/avees/optee_local_build/Linux_for_Tegra/sources/tegra/optee-src/nv-optee/optee/optee_os/lib/libutils/ext/snprintk.c:408
    1d1c:	b94053e0 	ldr	w0, [sp, #80]
    1d20:	121a0000 	and	w0, w0, #0x40
    1d24:	7100001f 	cmp	w0, #0x0
    1d28:	54000340 	b.eq	1d90 <kprintf+0xa50>  // b.none
/home/avees/optee_local_build/Linux_for_Tegra/sources/tegra/optee-src/nv-optee/optee/optee_os/lib/libutils/ext/snprintk.c:409
    1d2c:	b9401a61 	ldr	w1, [x19, #24]
    1d30:	f9400260 	ldr	x0, [x19]
    1d34:	7100003f 	cmp	w1, #0x0
    1d38:	540000ab 	b.lt	1d4c <kprintf+0xa0c>  // b.tstop
    1d3c:	91003c01 	add	x1, x0, #0xf
    1d40:	927df021 	and	x1, x1, #0xfffffffffffffff8
    1d44:	f9000261 	str	x1, [x19]
    1d48:	1400000d 	b	1d7c <kprintf+0xa3c>
    1d4c:	11002022 	add	w2, w1, #0x8
    1d50:	b9001a62 	str	w2, [x19, #24]
    1d54:	b9401a62 	ldr	w2, [x19, #24]
    1d58:	7100005f 	cmp	w2, #0x0
    1d5c:	540000ad 	b.le	1d70 <kprintf+0xa30>
    1d60:	91003c01 	add	x1, x0, #0xf
    1d64:	927df021 	and	x1, x1, #0xfffffffffffffff8
    1d68:	f9000261 	str	x1, [x19]
    1d6c:	14000004 	b	1d7c <kprintf+0xa3c>
    1d70:	f9400662 	ldr	x2, [x19, #8]
    1d74:	93407c20 	sxtw	x0, w1
    1d78:	8b000040 	add	x0, x2, x0
    1d7c:	f9400000 	ldr	x0, [x0]
    1d80:	b94057e1 	ldr	w1, [sp, #84]
    1d84:	13003c21 	sxth	w1, w1
    1d88:	79000001 	strh	w1, [x0]
/home/avees/optee_local_build/Linux_for_Tegra/sources/tegra/optee-src/nv-optee/optee/optee_os/lib/libutils/ext/snprintk.c:412
    1d8c:	1400046b 	b	2f38 <kprintf+0x1bf8>
/home/avees/optee_local_build/Linux_for_Tegra/sources/tegra/optee-src/nv-optee/optee/optee_os/lib/libutils/ext/snprintk.c:411
    1d90:	b9401a61 	ldr	w1, [x19, #24]
    1d94:	f9400260 	ldr	x0, [x19]
    1d98:	7100003f 	cmp	w1, #0x0
    1d9c:	540000ab 	b.lt	1db0 <kprintf+0xa70>  // b.tstop
    1da0:	91003c01 	add	x1, x0, #0xf
    1da4:	927df021 	and	x1, x1, #0xfffffffffffffff8
    1da8:	f9000261 	str	x1, [x19]
    1dac:	1400000d 	b	1de0 <kprintf+0xaa0>
    1db0:	11002022 	add	w2, w1, #0x8
    1db4:	b9001a62 	str	w2, [x19, #24]
    1db8:	b9401a62 	ldr	w2, [x19, #24]
    1dbc:	7100005f 	cmp	w2, #0x0
    1dc0:	540000ad 	b.le	1dd4 <kprintf+0xa94>
    1dc4:	91003c01 	add	x1, x0, #0xf
    1dc8:	927df021 	and	x1, x1, #0xfffffffffffffff8
    1dcc:	f9000261 	str	x1, [x19]
    1dd0:	14000004 	b	1de0 <kprintf+0xaa0>
    1dd4:	f9400662 	ldr	x2, [x19, #8]
    1dd8:	93407c20 	sxtw	x0, w1
    1ddc:	8b000040 	add	x0, x2, x0
    1de0:	f9400000 	ldr	x0, [x0]
    1de4:	b94057e1 	ldr	w1, [sp, #84]
    1de8:	b9000001 	str	w1, [x0]
/home/avees/optee_local_build/Linux_for_Tegra/sources/tegra/optee-src/nv-optee/optee/optee_os/lib/libutils/ext/snprintk.c:412
    1dec:	14000453 	b	2f38 <kprintf+0x1bf8>
/home/avees/optee_local_build/Linux_for_Tegra/sources/tegra/optee-src/nv-optee/optee/optee_os/lib/libutils/ext/snprintk.c:414
    1df0:	b94053e0 	ldr	w0, [sp, #80]
    1df4:	321c0000 	orr	w0, w0, #0x10
    1df8:	b90053e0 	str	w0, [sp, #80]
/home/avees/optee_local_build/Linux_for_Tegra/sources/tegra/optee-src/nv-optee/optee/optee_os/lib/libutils/ext/snprintk.c:417
    1dfc:	b94053e0 	ldr	w0, [sp, #80]
    1e00:	12190000 	and	w0, w0, #0x80
    1e04:	7100001f 	cmp	w0, #0x0
    1e08:	540002e0 	b.eq	1e64 <kprintf+0xb24>  // b.none
    1e0c:	b9401a61 	ldr	w1, [x19, #24]
    1e10:	f9400260 	ldr	x0, [x19]
    1e14:	7100003f 	cmp	w1, #0x0
    1e18:	540000ab 	b.lt	1e2c <kprintf+0xaec>  // b.tstop
    1e1c:	91003c01 	add	x1, x0, #0xf
    1e20:	927df021 	and	x1, x1, #0xfffffffffffffff8
    1e24:	f9000261 	str	x1, [x19]
    1e28:	1400000d 	b	1e5c <kprintf+0xb1c>
    1e2c:	11002022 	add	w2, w1, #0x8
    1e30:	b9001a62 	str	w2, [x19, #24]
    1e34:	b9401a62 	ldr	w2, [x19, #24]
    1e38:	7100005f 	cmp	w2, #0x0
    1e3c:	540000ad 	b.le	1e50 <kprintf+0xb10>
    1e40:	91003c01 	add	x1, x0, #0xf
    1e44:	927df021 	and	x1, x1, #0xfffffffffffffff8
    1e48:	f9000261 	str	x1, [x19]
    1e4c:	14000004 	b	1e5c <kprintf+0xb1c>
    1e50:	f9400662 	ldr	x2, [x19, #8]
    1e54:	93407c20 	sxtw	x0, w1
    1e58:	8b000040 	add	x0, x2, x0
    1e5c:	f9400000 	ldr	x0, [x0]
    1e60:	1400009b 	b	20cc <kprintf+0xd8c>
/home/avees/optee_local_build/Linux_for_Tegra/sources/tegra/optee-src/nv-optee/optee/optee_os/lib/libutils/ext/snprintk.c:417 (discriminator 2)
    1e64:	b94053e0 	ldr	w0, [sp, #80]
    1e68:	12180000 	and	w0, w0, #0x100
    1e6c:	7100001f 	cmp	w0, #0x0
    1e70:	540002e0 	b.eq	1ecc <kprintf+0xb8c>  // b.none
/home/avees/optee_local_build/Linux_for_Tegra/sources/tegra/optee-src/nv-optee/optee/optee_os/lib/libutils/ext/snprintk.c:417
    1e74:	b9401a61 	ldr	w1, [x19, #24]
    1e78:	f9400260 	ldr	x0, [x19]
    1e7c:	7100003f 	cmp	w1, #0x0
    1e80:	540000ab 	b.lt	1e94 <kprintf+0xb54>  // b.tstop
    1e84:	91003c01 	add	x1, x0, #0xf
    1e88:	927df021 	and	x1, x1, #0xfffffffffffffff8
    1e8c:	f9000261 	str	x1, [x19]
    1e90:	1400000d 	b	1ec4 <kprintf+0xb84>
    1e94:	11002022 	add	w2, w1, #0x8
    1e98:	b9001a62 	str	w2, [x19, #24]
    1e9c:	b9401a62 	ldr	w2, [x19, #24]
    1ea0:	7100005f 	cmp	w2, #0x0
    1ea4:	540000ad 	b.le	1eb8 <kprintf+0xb78>
    1ea8:	91003c01 	add	x1, x0, #0xf
    1eac:	927df021 	and	x1, x1, #0xfffffffffffffff8
    1eb0:	f9000261 	str	x1, [x19]
    1eb4:	14000004 	b	1ec4 <kprintf+0xb84>
    1eb8:	f9400662 	ldr	x2, [x19, #8]
    1ebc:	93407c20 	sxtw	x0, w1
    1ec0:	8b000040 	add	x0, x2, x0
    1ec4:	f9400000 	ldr	x0, [x0]
    1ec8:	14000081 	b	20cc <kprintf+0xd8c>
/home/avees/optee_local_build/Linux_for_Tegra/sources/tegra/optee-src/nv-optee/optee/optee_os/lib/libutils/ext/snprintk.c:417 (discriminator 5)
    1ecc:	b94053e0 	ldr	w0, [sp, #80]
    1ed0:	12170000 	and	w0, w0, #0x200
    1ed4:	7100001f 	cmp	w0, #0x0
    1ed8:	540002e0 	b.eq	1f34 <kprintf+0xbf4>  // b.none
/home/avees/optee_local_build/Linux_for_Tegra/sources/tegra/optee-src/nv-optee/optee/optee_os/lib/libutils/ext/snprintk.c:417
    1edc:	b9401a61 	ldr	w1, [x19, #24]
    1ee0:	f9400260 	ldr	x0, [x19]
    1ee4:	7100003f 	cmp	w1, #0x0
    1ee8:	540000ab 	b.lt	1efc <kprintf+0xbbc>  // b.tstop
    1eec:	91003c01 	add	x1, x0, #0xf
    1ef0:	927df021 	and	x1, x1, #0xfffffffffffffff8
    1ef4:	f9000261 	str	x1, [x19]
    1ef8:	1400000d 	b	1f2c <kprintf+0xbec>
    1efc:	11002022 	add	w2, w1, #0x8
    1f00:	b9001a62 	str	w2, [x19, #24]
    1f04:	b9401a62 	ldr	w2, [x19, #24]
    1f08:	7100005f 	cmp	w2, #0x0
    1f0c:	540000ad 	b.le	1f20 <kprintf+0xbe0>
    1f10:	91003c01 	add	x1, x0, #0xf
    1f14:	927df021 	and	x1, x1, #0xfffffffffffffff8
    1f18:	f9000261 	str	x1, [x19]
    1f1c:	14000004 	b	1f2c <kprintf+0xbec>
    1f20:	f9400662 	ldr	x2, [x19, #8]
    1f24:	93407c20 	sxtw	x0, w1
    1f28:	8b000040 	add	x0, x2, x0
    1f2c:	f9400000 	ldr	x0, [x0]
    1f30:	14000067 	b	20cc <kprintf+0xd8c>
/home/avees/optee_local_build/Linux_for_Tegra/sources/tegra/optee-src/nv-optee/optee/optee_os/lib/libutils/ext/snprintk.c:417 (discriminator 8)
    1f34:	b94053e0 	ldr	w0, [sp, #80]
    1f38:	121b0000 	and	w0, w0, #0x20
    1f3c:	7100001f 	cmp	w0, #0x0
    1f40:	540002e0 	b.eq	1f9c <kprintf+0xc5c>  // b.none
/home/avees/optee_local_build/Linux_for_Tegra/sources/tegra/optee-src/nv-optee/optee/optee_os/lib/libutils/ext/snprintk.c:417
    1f44:	b9401a61 	ldr	w1, [x19, #24]
    1f48:	f9400260 	ldr	x0, [x19]
    1f4c:	7100003f 	cmp	w1, #0x0
    1f50:	540000ab 	b.lt	1f64 <kprintf+0xc24>  // b.tstop
    1f54:	91003c01 	add	x1, x0, #0xf
    1f58:	927df021 	and	x1, x1, #0xfffffffffffffff8
    1f5c:	f9000261 	str	x1, [x19]
    1f60:	1400000d 	b	1f94 <kprintf+0xc54>
    1f64:	11002022 	add	w2, w1, #0x8
    1f68:	b9001a62 	str	w2, [x19, #24]
    1f6c:	b9401a62 	ldr	w2, [x19, #24]
    1f70:	7100005f 	cmp	w2, #0x0
    1f74:	540000ad 	b.le	1f88 <kprintf+0xc48>
    1f78:	91003c01 	add	x1, x0, #0xf
    1f7c:	927df021 	and	x1, x1, #0xfffffffffffffff8
    1f80:	f9000261 	str	x1, [x19]
    1f84:	14000004 	b	1f94 <kprintf+0xc54>
    1f88:	f9400662 	ldr	x2, [x19, #8]
    1f8c:	93407c20 	sxtw	x0, w1
    1f90:	8b000040 	add	x0, x2, x0
    1f94:	f9400000 	ldr	x0, [x0]
    1f98:	1400004d 	b	20cc <kprintf+0xd8c>
/home/avees/optee_local_build/Linux_for_Tegra/sources/tegra/optee-src/nv-optee/optee/optee_os/lib/libutils/ext/snprintk.c:417 (discriminator 11)
    1f9c:	b94053e0 	ldr	w0, [sp, #80]
    1fa0:	121c0000 	and	w0, w0, #0x10
    1fa4:	7100001f 	cmp	w0, #0x0
    1fa8:	540002e0 	b.eq	2004 <kprintf+0xcc4>  // b.none
/home/avees/optee_local_build/Linux_for_Tegra/sources/tegra/optee-src/nv-optee/optee/optee_os/lib/libutils/ext/snprintk.c:417
    1fac:	b9401a61 	ldr	w1, [x19, #24]
    1fb0:	f9400260 	ldr	x0, [x19]
    1fb4:	7100003f 	cmp	w1, #0x0
    1fb8:	540000ab 	b.lt	1fcc <kprintf+0xc8c>  // b.tstop
    1fbc:	91003c01 	add	x1, x0, #0xf
    1fc0:	927df021 	and	x1, x1, #0xfffffffffffffff8
    1fc4:	f9000261 	str	x1, [x19]
    1fc8:	1400000d 	b	1ffc <kprintf+0xcbc>
    1fcc:	11002022 	add	w2, w1, #0x8
    1fd0:	b9001a62 	str	w2, [x19, #24]
    1fd4:	b9401a62 	ldr	w2, [x19, #24]
    1fd8:	7100005f 	cmp	w2, #0x0
    1fdc:	540000ad 	b.le	1ff0 <kprintf+0xcb0>
    1fe0:	91003c01 	add	x1, x0, #0xf
    1fe4:	927df021 	and	x1, x1, #0xfffffffffffffff8
    1fe8:	f9000261 	str	x1, [x19]
    1fec:	14000004 	b	1ffc <kprintf+0xcbc>
    1ff0:	f9400662 	ldr	x2, [x19, #8]
    1ff4:	93407c20 	sxtw	x0, w1
    1ff8:	8b000040 	add	x0, x2, x0
    1ffc:	f9400000 	ldr	x0, [x0]
    2000:	14000033 	b	20cc <kprintf+0xd8c>
/home/avees/optee_local_build/Linux_for_Tegra/sources/tegra/optee-src/nv-optee/optee/optee_os/lib/libutils/ext/snprintk.c:417 (discriminator 14)
    2004:	b94053e0 	ldr	w0, [sp, #80]
    2008:	121a0000 	and	w0, w0, #0x40
    200c:	7100001f 	cmp	w0, #0x0
    2010:	54000320 	b.eq	2074 <kprintf+0xd34>  // b.none
/home/avees/optee_local_build/Linux_for_Tegra/sources/tegra/optee-src/nv-optee/optee/optee_os/lib/libutils/ext/snprintk.c:417
    2014:	b9401a61 	ldr	w1, [x19, #24]
    2018:	f9400260 	ldr	x0, [x19]
    201c:	7100003f 	cmp	w1, #0x0
    2020:	540000ab 	b.lt	2034 <kprintf+0xcf4>  // b.tstop
    2024:	91002c01 	add	x1, x0, #0xb
    2028:	927df021 	and	x1, x1, #0xfffffffffffffff8
    202c:	f9000261 	str	x1, [x19]
    2030:	1400000d 	b	2064 <kprintf+0xd24>
    2034:	11002022 	add	w2, w1, #0x8
    2038:	b9001a62 	str	w2, [x19, #24]
    203c:	b9401a62 	ldr	w2, [x19, #24]
    2040:	7100005f 	cmp	w2, #0x0
    2044:	540000ad 	b.le	2058 <kprintf+0xd18>
    2048:	91002c01 	add	x1, x0, #0xb
    204c:	927df021 	and	x1, x1, #0xfffffffffffffff8
    2050:	f9000261 	str	x1, [x19]
    2054:	14000004 	b	2064 <kprintf+0xd24>
    2058:	f9400662 	ldr	x2, [x19, #8]
    205c:	93407c20 	sxtw	x0, w1
    2060:	8b000040 	add	x0, x2, x0
    2064:	b9400000 	ldr	w0, [x0]
    2068:	12003c00 	and	w0, w0, #0xffff
    206c:	92403c00 	and	x0, x0, #0xffff
    2070:	14000017 	b	20cc <kprintf+0xd8c>
    2074:	b9401a61 	ldr	w1, [x19, #24]
    2078:	f9400260 	ldr	x0, [x19]
    207c:	7100003f 	cmp	w1, #0x0
    2080:	540000ab 	b.lt	2094 <kprintf+0xd54>  // b.tstop
    2084:	91002c01 	add	x1, x0, #0xb
    2088:	927df021 	and	x1, x1, #0xfffffffffffffff8
    208c:	f9000261 	str	x1, [x19]
    2090:	1400000d 	b	20c4 <kprintf+0xd84>
    2094:	11002022 	add	w2, w1, #0x8
    2098:	b9001a62 	str	w2, [x19, #24]
    209c:	b9401a62 	ldr	w2, [x19, #24]
    20a0:	7100005f 	cmp	w2, #0x0
    20a4:	540000ad 	b.le	20b8 <kprintf+0xd78>
    20a8:	91002c01 	add	x1, x0, #0xb
    20ac:	927df021 	and	x1, x1, #0xfffffffffffffff8
    20b0:	f9000261 	str	x1, [x19]
    20b4:	14000004 	b	20c4 <kprintf+0xd84>
    20b8:	f9400662 	ldr	x2, [x19, #8]
    20bc:	93407c20 	sxtw	x0, w1
    20c0:	8b000040 	add	x0, x2, x0
    20c4:	b9400000 	ldr	w0, [x0]
    20c8:	2a0003e0 	mov	w0, w0
/home/avees/optee_local_build/Linux_for_Tegra/sources/tegra/optee-src/nv-optee/optee/optee_os/lib/libutils/ext/snprintk.c:417 (discriminator 24)
    20cc:	f90043e0 	str	x0, [sp, #128]
/home/avees/optee_local_build/Linux_for_Tegra/sources/tegra/optee-src/nv-optee/optee/optee_os/lib/libutils/ext/snprintk.c:418 (discriminator 24)
    20d0:	b90063ff 	str	wzr, [sp, #96]
/home/avees/optee_local_build/Linux_for_Tegra/sources/tegra/optee-src/nv-optee/optee/optee_os/lib/libutils/ext/snprintk.c:419 (discriminator 24)
    20d4:	1400020f 	b	2910 <kprintf+0x15d0>
/home/avees/optee_local_build/Linux_for_Tegra/sources/tegra/optee-src/nv-optee/optee/optee_os/lib/libutils/ext/snprintk.c:421
    20d8:	3940cfe0 	ldrb	w0, [sp, #51]
    20dc:	7100001f 	cmp	w0, #0x0
    20e0:	54000560 	b.eq	218c <kprintf+0xe4c>  // b.none
/home/avees/optee_local_build/Linux_for_Tegra/sources/tegra/optee-src/nv-optee/optee/optee_os/lib/libutils/ext/snprintk.c:421 (discriminator 1)
    20e4:	f9403be0 	ldr	x0, [sp, #112]
    20e8:	39400000 	ldrb	w0, [x0]
    20ec:	7101541f 	cmp	w0, #0x55
    20f0:	540004e1 	b.ne	218c <kprintf+0xe4c>  // b.any
/home/avees/optee_local_build/Linux_for_Tegra/sources/tegra/optee-src/nv-optee/optee/optee_os/lib/libutils/ext/snprintk.c:421 (discriminator 2)
    20f4:	f9403be0 	ldr	x0, [sp, #112]
    20f8:	91000400 	add	x0, x0, #0x1
    20fc:	39400000 	ldrb	w0, [x0]
    2100:	7101b01f 	cmp	w0, #0x6c
    2104:	54000441 	b.ne	218c <kprintf+0xe4c>  // b.any
/home/avees/optee_local_build/Linux_for_Tegra/sources/tegra/optee-src/nv-optee/optee/optee_os/lib/libutils/ext/snprintk.c:426
    2108:	f9403be0 	ldr	x0, [sp, #112]
    210c:	91000800 	add	x0, x0, #0x2
    2110:	f9003be0 	str	x0, [sp, #112]
/home/avees/optee_local_build/Linux_for_Tegra/sources/tegra/optee-src/nv-optee/optee/optee_os/lib/libutils/ext/snprintk.c:427
    2114:	b9401a61 	ldr	w1, [x19, #24]
    2118:	f9400260 	ldr	x0, [x19]
    211c:	7100003f 	cmp	w1, #0x0
    2120:	540000ab 	b.lt	2134 <kprintf+0xdf4>  // b.tstop
    2124:	91003c01 	add	x1, x0, #0xf
    2128:	927df021 	and	x1, x1, #0xfffffffffffffff8
    212c:	f9000261 	str	x1, [x19]
    2130:	1400000d 	b	2164 <kprintf+0xe24>
    2134:	11002022 	add	w2, w1, #0x8
    2138:	b9001a62 	str	w2, [x19, #24]
    213c:	b9401a62 	ldr	w2, [x19, #24]
    2140:	7100005f 	cmp	w2, #0x0
    2144:	540000ad 	b.le	2158 <kprintf+0xe18>
    2148:	91003c01 	add	x1, x0, #0xf
    214c:	927df021 	and	x1, x1, #0xfffffffffffffff8
    2150:	f9000261 	str	x1, [x19]
    2154:	14000004 	b	2164 <kprintf+0xe24>
    2158:	f9400662 	ldr	x2, [x19, #8]
    215c:	93407c20 	sxtw	x0, w1
    2160:	8b000040 	add	x0, x2, x0
    2164:	f9400001 	ldr	x1, [x0]
    2168:	910283e0 	add	x0, sp, #0xa0
    216c:	aa0103e2 	mov	x2, x1
    2170:	d28004a1 	mov	x1, #0x25                  	// #37
    2174:	97fffc3a 	bl	125c <uuid2str>
    2178:	b9006fe0 	str	w0, [sp, #108]
/home/avees/optee_local_build/Linux_for_Tegra/sources/tegra/optee-src/nv-optee/optee/optee_os/lib/libutils/ext/snprintk.c:429
    217c:	910283e0 	add	x0, sp, #0xa0
    2180:	f9003fe0 	str	x0, [sp, #120]
/home/avees/optee_local_build/Linux_for_Tegra/sources/tegra/optee-src/nv-optee/optee/optee_os/lib/libutils/ext/snprintk.c:430
    2184:	39011fff 	strb	wzr, [sp, #71]
/home/avees/optee_local_build/Linux_for_Tegra/sources/tegra/optee-src/nv-optee/optee/optee_os/lib/libutils/ext/snprintk.c:431
    2188:	14000277 	b	2b64 <kprintf+0x1824>
/home/avees/optee_local_build/Linux_for_Tegra/sources/tegra/optee-src/nv-optee/optee/optee_os/lib/libutils/ext/snprintk.c:441
    218c:	b9401a61 	ldr	w1, [x19, #24]
    2190:	f9400260 	ldr	x0, [x19]
    2194:	7100003f 	cmp	w1, #0x0
    2198:	540000ab 	b.lt	21ac <kprintf+0xe6c>  // b.tstop
    219c:	91003c01 	add	x1, x0, #0xf
    21a0:	927df021 	and	x1, x1, #0xfffffffffffffff8
    21a4:	f9000261 	str	x1, [x19]
    21a8:	1400000d 	b	21dc <kprintf+0xe9c>
    21ac:	11002022 	add	w2, w1, #0x8
    21b0:	b9001a62 	str	w2, [x19, #24]
    21b4:	b9401a62 	ldr	w2, [x19, #24]
    21b8:	7100005f 	cmp	w2, #0x0
    21bc:	540000ad 	b.le	21d0 <kprintf+0xe90>
    21c0:	91003c01 	add	x1, x0, #0xf
    21c4:	927df021 	and	x1, x1, #0xfffffffffffffff8
    21c8:	f9000261 	str	x1, [x19]
    21cc:	14000004 	b	21dc <kprintf+0xe9c>
    21d0:	f9400662 	ldr	x2, [x19, #8]
    21d4:	93407c20 	sxtw	x0, w1
    21d8:	8b000040 	add	x0, x2, x0
    21dc:	f9400000 	ldr	x0, [x0]
    21e0:	f90043e0 	str	x0, [sp, #128]
/home/avees/optee_local_build/Linux_for_Tegra/sources/tegra/optee-src/nv-optee/optee/optee_os/lib/libutils/ext/snprintk.c:442
    21e4:	52800040 	mov	w0, #0x2                   	// #2
    21e8:	b90063e0 	str	w0, [sp, #96]
/home/avees/optee_local_build/Linux_for_Tegra/sources/tegra/optee-src/nv-optee/optee/optee_os/lib/libutils/ext/snprintk.c:443
    21ec:	f00000e0 	adrp	x0, 21000 <__compound_literal.7+0x134>
    21f0:	9103e000 	add	x0, x0, #0xf8
    21f4:	f90047e0 	str	x0, [sp, #136]
/home/avees/optee_local_build/Linux_for_Tegra/sources/tegra/optee-src/nv-optee/optee/optee_os/lib/libutils/ext/snprintk.c:444
    21f8:	b94053e0 	ldr	w0, [sp, #80]
    21fc:	321f0000 	orr	w0, w0, #0x2
    2200:	b90053e0 	str	w0, [sp, #80]
/home/avees/optee_local_build/Linux_for_Tegra/sources/tegra/optee-src/nv-optee/optee/optee_os/lib/libutils/ext/snprintk.c:445
    2204:	52800f00 	mov	w0, #0x78                  	// #120
    2208:	b9004be0 	str	w0, [sp, #72]
/home/avees/optee_local_build/Linux_for_Tegra/sources/tegra/optee-src/nv-optee/optee/optee_os/lib/libutils/ext/snprintk.c:446
    220c:	140001c1 	b	2910 <kprintf+0x15d0>
/home/avees/optee_local_build/Linux_for_Tegra/sources/tegra/optee-src/nv-optee/optee/optee_os/lib/libutils/ext/snprintk.c:448
    2210:	b9401a61 	ldr	w1, [x19, #24]
    2214:	f9400260 	ldr	x0, [x19]
    2218:	7100003f 	cmp	w1, #0x0
    221c:	540000ab 	b.lt	2230 <kprintf+0xef0>  // b.tstop
    2220:	91003c01 	add	x1, x0, #0xf
    2224:	927df021 	and	x1, x1, #0xfffffffffffffff8
    2228:	f9000261 	str	x1, [x19]
    222c:	1400000d 	b	2260 <kprintf+0xf20>
    2230:	11002022 	add	w2, w1, #0x8
    2234:	b9001a62 	str	w2, [x19, #24]
    2238:	b9401a62 	ldr	w2, [x19, #24]
    223c:	7100005f 	cmp	w2, #0x0
    2240:	540000ad 	b.le	2254 <kprintf+0xf14>
    2244:	91003c01 	add	x1, x0, #0xf
    2248:	927df021 	and	x1, x1, #0xfffffffffffffff8
    224c:	f9000261 	str	x1, [x19]
    2250:	14000004 	b	2260 <kprintf+0xf20>
    2254:	f9400662 	ldr	x2, [x19, #8]
    2258:	93407c20 	sxtw	x0, w1
    225c:	8b000040 	add	x0, x2, x0
    2260:	f9400000 	ldr	x0, [x0]
    2264:	f9003fe0 	str	x0, [sp, #120]
    2268:	f9403fe0 	ldr	x0, [sp, #120]
    226c:	f100001f 	cmp	x0, #0x0
    2270:	54000081 	b.ne	2280 <kprintf+0xf40>  // b.any
/home/avees/optee_local_build/Linux_for_Tegra/sources/tegra/optee-src/nv-optee/optee/optee_os/lib/libutils/ext/snprintk.c:450
    2274:	f00000e0 	adrp	x0, 21000 <__compound_literal.7+0x134>
    2278:	91058000 	add	x0, x0, #0x160
    227c:	f9003fe0 	str	x0, [sp, #120]
/home/avees/optee_local_build/Linux_for_Tegra/sources/tegra/optee-src/nv-optee/optee/optee_os/lib/libutils/ext/snprintk.c:451
    2280:	b9405fe0 	ldr	w0, [sp, #92]
    2284:	7100001f 	cmp	w0, #0x0
    2288:	5400030b 	b.lt	22e8 <kprintf+0xfa8>  // b.tstop
/home/avees/optee_local_build/Linux_for_Tegra/sources/tegra/optee-src/nv-optee/optee/optee_os/lib/libutils/ext/snprintk.c:457
    228c:	b9805fe0 	ldrsw	x0, [sp, #92]
    2290:	aa0003e2 	mov	x2, x0
    2294:	52800001 	mov	w1, #0x0                   	// #0
    2298:	f9403fe0 	ldr	x0, [sp, #120]
    229c:	94000342 	bl	2fa4 <memchr>
    22a0:	f9004fe0 	str	x0, [sp, #152]
/home/avees/optee_local_build/Linux_for_Tegra/sources/tegra/optee-src/nv-optee/optee/optee_os/lib/libutils/ext/snprintk.c:459
    22a4:	f9404fe0 	ldr	x0, [sp, #152]
    22a8:	f100001f 	cmp	x0, #0x0
    22ac:	54000180 	b.eq	22dc <kprintf+0xf9c>  // b.none
/home/avees/optee_local_build/Linux_for_Tegra/sources/tegra/optee-src/nv-optee/optee/optee_os/lib/libutils/ext/snprintk.c:460
    22b0:	f9404fe1 	ldr	x1, [sp, #152]
    22b4:	f9403fe0 	ldr	x0, [sp, #120]
    22b8:	cb000020 	sub	x0, x1, x0
    22bc:	b9006fe0 	str	w0, [sp, #108]
/home/avees/optee_local_build/Linux_for_Tegra/sources/tegra/optee-src/nv-optee/optee/optee_os/lib/libutils/ext/snprintk.c:461
    22c0:	b9406fe1 	ldr	w1, [sp, #108]
    22c4:	b9405fe0 	ldr	w0, [sp, #92]
    22c8:	6b00003f 	cmp	w1, w0
    22cc:	5400014d 	b.le	22f4 <kprintf+0xfb4>
/home/avees/optee_local_build/Linux_for_Tegra/sources/tegra/optee-src/nv-optee/optee/optee_os/lib/libutils/ext/snprintk.c:462
    22d0:	b9405fe0 	ldr	w0, [sp, #92]
    22d4:	b9006fe0 	str	w0, [sp, #108]
    22d8:	14000007 	b	22f4 <kprintf+0xfb4>
/home/avees/optee_local_build/Linux_for_Tegra/sources/tegra/optee-src/nv-optee/optee/optee_os/lib/libutils/ext/snprintk.c:464
    22dc:	b9405fe0 	ldr	w0, [sp, #92]
    22e0:	b9006fe0 	str	w0, [sp, #108]
    22e4:	14000004 	b	22f4 <kprintf+0xfb4>
/home/avees/optee_local_build/Linux_for_Tegra/sources/tegra/optee-src/nv-optee/optee/optee_os/lib/libutils/ext/snprintk.c:466
    22e8:	f9403fe0 	ldr	x0, [sp, #120]
    22ec:	97fff896 	bl	544 <strlen>
    22f0:	b9006fe0 	str	w0, [sp, #108]
/home/avees/optee_local_build/Linux_for_Tegra/sources/tegra/optee-src/nv-optee/optee/optee_os/lib/libutils/ext/snprintk.c:467
    22f4:	39011fff 	strb	wzr, [sp, #71]
/home/avees/optee_local_build/Linux_for_Tegra/sources/tegra/optee-src/nv-optee/optee/optee_os/lib/libutils/ext/snprintk.c:468
    22f8:	1400021b 	b	2b64 <kprintf+0x1824>
/home/avees/optee_local_build/Linux_for_Tegra/sources/tegra/optee-src/nv-optee/optee/optee_os/lib/libutils/ext/snprintk.c:470
    22fc:	b94053e0 	ldr	w0, [sp, #80]
    2300:	321c0000 	orr	w0, w0, #0x10
    2304:	b90053e0 	str	w0, [sp, #80]
/home/avees/optee_local_build/Linux_for_Tegra/sources/tegra/optee-src/nv-optee/optee/optee_os/lib/libutils/ext/snprintk.c:473
    2308:	b94053e0 	ldr	w0, [sp, #80]
    230c:	12190000 	and	w0, w0, #0x80
    2310:	7100001f 	cmp	w0, #0x0
    2314:	540002e0 	b.eq	2370 <kprintf+0x1030>  // b.none
    2318:	b9401a61 	ldr	w1, [x19, #24]
    231c:	f9400260 	ldr	x0, [x19]
    2320:	7100003f 	cmp	w1, #0x0
    2324:	540000ab 	b.lt	2338 <kprintf+0xff8>  // b.tstop
    2328:	91003c01 	add	x1, x0, #0xf
    232c:	927df021 	and	x1, x1, #0xfffffffffffffff8
    2330:	f9000261 	str	x1, [x19]
    2334:	1400000d 	b	2368 <kprintf+0x1028>
    2338:	11002022 	add	w2, w1, #0x8
    233c:	b9001a62 	str	w2, [x19, #24]
    2340:	b9401a62 	ldr	w2, [x19, #24]
    2344:	7100005f 	cmp	w2, #0x0
    2348:	540000ad 	b.le	235c <kprintf+0x101c>
    234c:	91003c01 	add	x1, x0, #0xf
    2350:	927df021 	and	x1, x1, #0xfffffffffffffff8
    2354:	f9000261 	str	x1, [x19]
    2358:	14000004 	b	2368 <kprintf+0x1028>
    235c:	f9400662 	ldr	x2, [x19, #8]
    2360:	93407c20 	sxtw	x0, w1
    2364:	8b000040 	add	x0, x2, x0
    2368:	f9400000 	ldr	x0, [x0]
    236c:	1400009b 	b	25d8 <kprintf+0x1298>
/home/avees/optee_local_build/Linux_for_Tegra/sources/tegra/optee-src/nv-optee/optee/optee_os/lib/libutils/ext/snprintk.c:473 (discriminator 2)
    2370:	b94053e0 	ldr	w0, [sp, #80]
    2374:	12180000 	and	w0, w0, #0x100
    2378:	7100001f 	cmp	w0, #0x0
    237c:	540002e0 	b.eq	23d8 <kprintf+0x1098>  // b.none
/home/avees/optee_local_build/Linux_for_Tegra/sources/tegra/optee-src/nv-optee/optee/optee_os/lib/libutils/ext/snprintk.c:473
    2380:	b9401a61 	ldr	w1, [x19, #24]
    2384:	f9400260 	ldr	x0, [x19]
    2388:	7100003f 	cmp	w1, #0x0
    238c:	540000ab 	b.lt	23a0 <kprintf+0x1060>  // b.tstop
    2390:	91003c01 	add	x1, x0, #0xf
    2394:	927df021 	and	x1, x1, #0xfffffffffffffff8
    2398:	f9000261 	str	x1, [x19]
    239c:	1400000d 	b	23d0 <kprintf+0x1090>
    23a0:	11002022 	add	w2, w1, #0x8
    23a4:	b9001a62 	str	w2, [x19, #24]
    23a8:	b9401a62 	ldr	w2, [x19, #24]
    23ac:	7100005f 	cmp	w2, #0x0
    23b0:	540000ad 	b.le	23c4 <kprintf+0x1084>
    23b4:	91003c01 	add	x1, x0, #0xf
    23b8:	927df021 	and	x1, x1, #0xfffffffffffffff8
    23bc:	f9000261 	str	x1, [x19]
    23c0:	14000004 	b	23d0 <kprintf+0x1090>
    23c4:	f9400662 	ldr	x2, [x19, #8]
    23c8:	93407c20 	sxtw	x0, w1
    23cc:	8b000040 	add	x0, x2, x0
    23d0:	f9400000 	ldr	x0, [x0]
    23d4:	14000081 	b	25d8 <kprintf+0x1298>
/home/avees/optee_local_build/Linux_for_Tegra/sources/tegra/optee-src/nv-optee/optee/optee_os/lib/libutils/ext/snprintk.c:473 (discriminator 5)
    23d8:	b94053e0 	ldr	w0, [sp, #80]
    23dc:	12170000 	and	w0, w0, #0x200
    23e0:	7100001f 	cmp	w0, #0x0
    23e4:	540002e0 	b.eq	2440 <kprintf+0x1100>  // b.none
/home/avees/optee_local_build/Linux_for_Tegra/sources/tegra/optee-src/nv-optee/optee/optee_os/lib/libutils/ext/snprintk.c:473
    23e8:	b9401a61 	ldr	w1, [x19, #24]
    23ec:	f9400260 	ldr	x0, [x19]
    23f0:	7100003f 	cmp	w1, #0x0
    23f4:	540000ab 	b.lt	2408 <kprintf+0x10c8>  // b.tstop
    23f8:	91003c01 	add	x1, x0, #0xf
    23fc:	927df021 	and	x1, x1, #0xfffffffffffffff8
    2400:	f9000261 	str	x1, [x19]
    2404:	1400000d 	b	2438 <kprintf+0x10f8>
    2408:	11002022 	add	w2, w1, #0x8
    240c:	b9001a62 	str	w2, [x19, #24]
    2410:	b9401a62 	ldr	w2, [x19, #24]
    2414:	7100005f 	cmp	w2, #0x0
    2418:	540000ad 	b.le	242c <kprintf+0x10ec>
    241c:	91003c01 	add	x1, x0, #0xf
    2420:	927df021 	and	x1, x1, #0xfffffffffffffff8
    2424:	f9000261 	str	x1, [x19]
    2428:	14000004 	b	2438 <kprintf+0x10f8>
    242c:	f9400662 	ldr	x2, [x19, #8]
    2430:	93407c20 	sxtw	x0, w1
    2434:	8b000040 	add	x0, x2, x0
    2438:	f9400000 	ldr	x0, [x0]
    243c:	14000067 	b	25d8 <kprintf+0x1298>
/home/avees/optee_local_build/Linux_for_Tegra/sources/tegra/optee-src/nv-optee/optee/optee_os/lib/libutils/ext/snprintk.c:473 (discriminator 8)
    2440:	b94053e0 	ldr	w0, [sp, #80]
    2444:	121b0000 	and	w0, w0, #0x20
    2448:	7100001f 	cmp	w0, #0x0
    244c:	540002e0 	b.eq	24a8 <kprintf+0x1168>  // b.none
/home/avees/optee_local_build/Linux_for_Tegra/sources/tegra/optee-src/nv-optee/optee/optee_os/lib/libutils/ext/snprintk.c:473
    2450:	b9401a61 	ldr	w1, [x19, #24]
    2454:	f9400260 	ldr	x0, [x19]
    2458:	7100003f 	cmp	w1, #0x0
    245c:	540000ab 	b.lt	2470 <kprintf+0x1130>  // b.tstop
    2460:	91003c01 	add	x1, x0, #0xf
    2464:	927df021 	and	x1, x1, #0xfffffffffffffff8
    2468:	f9000261 	str	x1, [x19]
    246c:	1400000d 	b	24a0 <kprintf+0x1160>
    2470:	11002022 	add	w2, w1, #0x8
    2474:	b9001a62 	str	w2, [x19, #24]
    2478:	b9401a62 	ldr	w2, [x19, #24]
    247c:	7100005f 	cmp	w2, #0x0
    2480:	540000ad 	b.le	2494 <kprintf+0x1154>
    2484:	91003c01 	add	x1, x0, #0xf
    2488:	927df021 	and	x1, x1, #0xfffffffffffffff8
    248c:	f9000261 	str	x1, [x19]
    2490:	14000004 	b	24a0 <kprintf+0x1160>
    2494:	f9400662 	ldr	x2, [x19, #8]
    2498:	93407c20 	sxtw	x0, w1
    249c:	8b000040 	add	x0, x2, x0
    24a0:	f9400000 	ldr	x0, [x0]
    24a4:	1400004d 	b	25d8 <kprintf+0x1298>
/home/avees/optee_local_build/Linux_for_Tegra/sources/tegra/optee-src/nv-optee/optee/optee_os/lib/libutils/ext/snprintk.c:473 (discriminator 11)
    24a8:	b94053e0 	ldr	w0, [sp, #80]
    24ac:	121c0000 	and	w0, w0, #0x10
    24b0:	7100001f 	cmp	w0, #0x0
    24b4:	540002e0 	b.eq	2510 <kprintf+0x11d0>  // b.none
/home/avees/optee_local_build/Linux_for_Tegra/sources/tegra/optee-src/nv-optee/optee/optee_os/lib/libutils/ext/snprintk.c:473
    24b8:	b9401a61 	ldr	w1, [x19, #24]
    24bc:	f9400260 	ldr	x0, [x19]
    24c0:	7100003f 	cmp	w1, #0x0
    24c4:	540000ab 	b.lt	24d8 <kprintf+0x1198>  // b.tstop
    24c8:	91003c01 	add	x1, x0, #0xf
    24cc:	927df021 	and	x1, x1, #0xfffffffffffffff8
    24d0:	f9000261 	str	x1, [x19]
    24d4:	1400000d 	b	2508 <kprintf+0x11c8>
    24d8:	11002022 	add	w2, w1, #0x8
    24dc:	b9001a62 	str	w2, [x19, #24]
    24e0:	b9401a62 	ldr	w2, [x19, #24]
    24e4:	7100005f 	cmp	w2, #0x0
    24e8:	540000ad 	b.le	24fc <kprintf+0x11bc>
    24ec:	91003c01 	add	x1, x0, #0xf
    24f0:	927df021 	and	x1, x1, #0xfffffffffffffff8
    24f4:	f9000261 	str	x1, [x19]
    24f8:	14000004 	b	2508 <kprintf+0x11c8>
    24fc:	f9400662 	ldr	x2, [x19, #8]
    2500:	93407c20 	sxtw	x0, w1
    2504:	8b000040 	add	x0, x2, x0
    2508:	f9400000 	ldr	x0, [x0]
    250c:	14000033 	b	25d8 <kprintf+0x1298>
/home/avees/optee_local_build/Linux_for_Tegra/sources/tegra/optee-src/nv-optee/optee/optee_os/lib/libutils/ext/snprintk.c:473 (discriminator 14)
    2510:	b94053e0 	ldr	w0, [sp, #80]
    2514:	121a0000 	and	w0, w0, #0x40
    2518:	7100001f 	cmp	w0, #0x0
    251c:	54000320 	b.eq	2580 <kprintf+0x1240>  // b.none
/home/avees/optee_local_build/Linux_for_Tegra/sources/tegra/optee-src/nv-optee/optee/optee_os/lib/libutils/ext/snprintk.c:473
    2520:	b9401a61 	ldr	w1, [x19, #24]
    2524:	f9400260 	ldr	x0, [x19]
    2528:	7100003f 	cmp	w1, #0x0
    252c:	540000ab 	b.lt	2540 <kprintf+0x1200>  // b.tstop
    2530:	91002c01 	add	x1, x0, #0xb
    2534:	927df021 	and	x1, x1, #0xfffffffffffffff8
    2538:	f9000261 	str	x1, [x19]
    253c:	1400000d 	b	2570 <kprintf+0x1230>
    2540:	11002022 	add	w2, w1, #0x8
    2544:	b9001a62 	str	w2, [x19, #24]
    2548:	b9401a62 	ldr	w2, [x19, #24]
    254c:	7100005f 	cmp	w2, #0x0
    2550:	540000ad 	b.le	2564 <kprintf+0x1224>
    2554:	91002c01 	add	x1, x0, #0xb
    2558:	927df021 	and	x1, x1, #0xfffffffffffffff8
    255c:	f9000261 	str	x1, [x19]
    2560:	14000004 	b	2570 <kprintf+0x1230>
    2564:	f9400662 	ldr	x2, [x19, #8]
    2568:	93407c20 	sxtw	x0, w1
    256c:	8b000040 	add	x0, x2, x0
    2570:	b9400000 	ldr	w0, [x0]
    2574:	12003c00 	and	w0, w0, #0xffff
    2578:	92403c00 	and	x0, x0, #0xffff
    257c:	14000017 	b	25d8 <kprintf+0x1298>
    2580:	b9401a61 	ldr	w1, [x19, #24]
    2584:	f9400260 	ldr	x0, [x19]
    2588:	7100003f 	cmp	w1, #0x0
    258c:	540000ab 	b.lt	25a0 <kprintf+0x1260>  // b.tstop
    2590:	91002c01 	add	x1, x0, #0xb
    2594:	927df021 	and	x1, x1, #0xfffffffffffffff8
    2598:	f9000261 	str	x1, [x19]
    259c:	1400000d 	b	25d0 <kprintf+0x1290>
    25a0:	11002022 	add	w2, w1, #0x8
    25a4:	b9001a62 	str	w2, [x19, #24]
    25a8:	b9401a62 	ldr	w2, [x19, #24]
    25ac:	7100005f 	cmp	w2, #0x0
    25b0:	540000ad 	b.le	25c4 <kprintf+0x1284>
    25b4:	91002c01 	add	x1, x0, #0xb
    25b8:	927df021 	and	x1, x1, #0xfffffffffffffff8
    25bc:	f9000261 	str	x1, [x19]
    25c0:	14000004 	b	25d0 <kprintf+0x1290>
    25c4:	f9400662 	ldr	x2, [x19, #8]
    25c8:	93407c20 	sxtw	x0, w1
    25cc:	8b000040 	add	x0, x2, x0
    25d0:	b9400000 	ldr	w0, [x0]
    25d4:	2a0003e0 	mov	w0, w0
/home/avees/optee_local_build/Linux_for_Tegra/sources/tegra/optee-src/nv-optee/optee/optee_os/lib/libutils/ext/snprintk.c:473 (discriminator 24)
    25d8:	f90043e0 	str	x0, [sp, #128]
/home/avees/optee_local_build/Linux_for_Tegra/sources/tegra/optee-src/nv-optee/optee/optee_os/lib/libutils/ext/snprintk.c:474 (discriminator 24)
    25dc:	52800020 	mov	w0, #0x1                   	// #1
    25e0:	b90063e0 	str	w0, [sp, #96]
/home/avees/optee_local_build/Linux_for_Tegra/sources/tegra/optee-src/nv-optee/optee/optee_os/lib/libutils/ext/snprintk.c:475 (discriminator 24)
    25e4:	140000cb 	b	2910 <kprintf+0x15d0>
/home/avees/optee_local_build/Linux_for_Tegra/sources/tegra/optee-src/nv-optee/optee/optee_os/lib/libutils/ext/snprintk.c:477
    25e8:	f00000e0 	adrp	x0, 21000 <__compound_literal.7+0x134>
    25ec:	91044000 	add	x0, x0, #0x110
    25f0:	f90047e0 	str	x0, [sp, #136]
/home/avees/optee_local_build/Linux_for_Tegra/sources/tegra/optee-src/nv-optee/optee/optee_os/lib/libutils/ext/snprintk.c:478
    25f4:	14000004 	b	2604 <kprintf+0x12c4>
/home/avees/optee_local_build/Linux_for_Tegra/sources/tegra/optee-src/nv-optee/optee/optee_os/lib/libutils/ext/snprintk.c:480
    25f8:	f00000e0 	adrp	x0, 21000 <__compound_literal.7+0x134>
    25fc:	9103e000 	add	x0, x0, #0xf8
    2600:	f90047e0 	str	x0, [sp, #136]
/home/avees/optee_local_build/Linux_for_Tegra/sources/tegra/optee-src/nv-optee/optee/optee_os/lib/libutils/ext/snprintk.c:481
    2604:	b94053e0 	ldr	w0, [sp, #80]
    2608:	12190000 	and	w0, w0, #0x80
    260c:	7100001f 	cmp	w0, #0x0
    2610:	540002e0 	b.eq	266c <kprintf+0x132c>  // b.none
    2614:	b9401a61 	ldr	w1, [x19, #24]
    2618:	f9400260 	ldr	x0, [x19]
    261c:	7100003f 	cmp	w1, #0x0
    2620:	540000ab 	b.lt	2634 <kprintf+0x12f4>  // b.tstop
    2624:	91003c01 	add	x1, x0, #0xf
    2628:	927df021 	and	x1, x1, #0xfffffffffffffff8
    262c:	f9000261 	str	x1, [x19]
    2630:	1400000d 	b	2664 <kprintf+0x1324>
    2634:	11002022 	add	w2, w1, #0x8
    2638:	b9001a62 	str	w2, [x19, #24]
    263c:	b9401a62 	ldr	w2, [x19, #24]
    2640:	7100005f 	cmp	w2, #0x0
    2644:	540000ad 	b.le	2658 <kprintf+0x1318>
    2648:	91003c01 	add	x1, x0, #0xf
    264c:	927df021 	and	x1, x1, #0xfffffffffffffff8
    2650:	f9000261 	str	x1, [x19]
    2654:	14000004 	b	2664 <kprintf+0x1324>
    2658:	f9400662 	ldr	x2, [x19, #8]
    265c:	93407c20 	sxtw	x0, w1
    2660:	8b000040 	add	x0, x2, x0
    2664:	f9400000 	ldr	x0, [x0]
    2668:	1400009b 	b	28d4 <kprintf+0x1594>
/home/avees/optee_local_build/Linux_for_Tegra/sources/tegra/optee-src/nv-optee/optee/optee_os/lib/libutils/ext/snprintk.c:481 (discriminator 2)
    266c:	b94053e0 	ldr	w0, [sp, #80]
    2670:	12180000 	and	w0, w0, #0x100
    2674:	7100001f 	cmp	w0, #0x0
    2678:	540002e0 	b.eq	26d4 <kprintf+0x1394>  // b.none
/home/avees/optee_local_build/Linux_for_Tegra/sources/tegra/optee-src/nv-optee/optee/optee_os/lib/libutils/ext/snprintk.c:481
    267c:	b9401a61 	ldr	w1, [x19, #24]
    2680:	f9400260 	ldr	x0, [x19]
    2684:	7100003f 	cmp	w1, #0x0
    2688:	540000ab 	b.lt	269c <kprintf+0x135c>  // b.tstop
    268c:	91003c01 	add	x1, x0, #0xf
    2690:	927df021 	and	x1, x1, #0xfffffffffffffff8
    2694:	f9000261 	str	x1, [x19]
    2698:	1400000d 	b	26cc <kprintf+0x138c>
    269c:	11002022 	add	w2, w1, #0x8
    26a0:	b9001a62 	str	w2, [x19, #24]
    26a4:	b9401a62 	ldr	w2, [x19, #24]
    26a8:	7100005f 	cmp	w2, #0x0
    26ac:	540000ad 	b.le	26c0 <kprintf+0x1380>
    26b0:	91003c01 	add	x1, x0, #0xf
    26b4:	927df021 	and	x1, x1, #0xfffffffffffffff8
    26b8:	f9000261 	str	x1, [x19]
    26bc:	14000004 	b	26cc <kprintf+0x138c>
    26c0:	f9400662 	ldr	x2, [x19, #8]
    26c4:	93407c20 	sxtw	x0, w1
    26c8:	8b000040 	add	x0, x2, x0
    26cc:	f9400000 	ldr	x0, [x0]
    26d0:	14000081 	b	28d4 <kprintf+0x1594>
/home/avees/optee_local_build/Linux_for_Tegra/sources/tegra/optee-src/nv-optee/optee/optee_os/lib/libutils/ext/snprintk.c:481 (discriminator 5)
    26d4:	b94053e0 	ldr	w0, [sp, #80]
    26d8:	12170000 	and	w0, w0, #0x200
    26dc:	7100001f 	cmp	w0, #0x0
    26e0:	540002e0 	b.eq	273c <kprintf+0x13fc>  // b.none
/home/avees/optee_local_build/Linux_for_Tegra/sources/tegra/optee-src/nv-optee/optee/optee_os/lib/libutils/ext/snprintk.c:481
    26e4:	b9401a61 	ldr	w1, [x19, #24]
    26e8:	f9400260 	ldr	x0, [x19]
    26ec:	7100003f 	cmp	w1, #0x0
    26f0:	540000ab 	b.lt	2704 <kprintf+0x13c4>  // b.tstop
    26f4:	91003c01 	add	x1, x0, #0xf
    26f8:	927df021 	and	x1, x1, #0xfffffffffffffff8
    26fc:	f9000261 	str	x1, [x19]
    2700:	1400000d 	b	2734 <kprintf+0x13f4>
    2704:	11002022 	add	w2, w1, #0x8
    2708:	b9001a62 	str	w2, [x19, #24]
    270c:	b9401a62 	ldr	w2, [x19, #24]
    2710:	7100005f 	cmp	w2, #0x0
    2714:	540000ad 	b.le	2728 <kprintf+0x13e8>
    2718:	91003c01 	add	x1, x0, #0xf
    271c:	927df021 	and	x1, x1, #0xfffffffffffffff8
    2720:	f9000261 	str	x1, [x19]
    2724:	14000004 	b	2734 <kprintf+0x13f4>
    2728:	f9400662 	ldr	x2, [x19, #8]
    272c:	93407c20 	sxtw	x0, w1
    2730:	8b000040 	add	x0, x2, x0
    2734:	f9400000 	ldr	x0, [x0]
    2738:	14000067 	b	28d4 <kprintf+0x1594>
/home/avees/optee_local_build/Linux_for_Tegra/sources/tegra/optee-src/nv-optee/optee/optee_os/lib/libutils/ext/snprintk.c:481 (discriminator 8)
    273c:	b94053e0 	ldr	w0, [sp, #80]
    2740:	121b0000 	and	w0, w0, #0x20
    2744:	7100001f 	cmp	w0, #0x0
    2748:	540002e0 	b.eq	27a4 <kprintf+0x1464>  // b.none
/home/avees/optee_local_build/Linux_for_Tegra/sources/tegra/optee-src/nv-optee/optee/optee_os/lib/libutils/ext/snprintk.c:481
    274c:	b9401a61 	ldr	w1, [x19, #24]
    2750:	f9400260 	ldr	x0, [x19]
    2754:	7100003f 	cmp	w1, #0x0
    2758:	540000ab 	b.lt	276c <kprintf+0x142c>  // b.tstop
    275c:	91003c01 	add	x1, x0, #0xf
    2760:	927df021 	and	x1, x1, #0xfffffffffffffff8
    2764:	f9000261 	str	x1, [x19]
    2768:	1400000d 	b	279c <kprintf+0x145c>
    276c:	11002022 	add	w2, w1, #0x8
    2770:	b9001a62 	str	w2, [x19, #24]
    2774:	b9401a62 	ldr	w2, [x19, #24]
    2778:	7100005f 	cmp	w2, #0x0
    277c:	540000ad 	b.le	2790 <kprintf+0x1450>
    2780:	91003c01 	add	x1, x0, #0xf
    2784:	927df021 	and	x1, x1, #0xfffffffffffffff8
    2788:	f9000261 	str	x1, [x19]
    278c:	14000004 	b	279c <kprintf+0x145c>
    2790:	f9400662 	ldr	x2, [x19, #8]
    2794:	93407c20 	sxtw	x0, w1
    2798:	8b000040 	add	x0, x2, x0
    279c:	f9400000 	ldr	x0, [x0]
    27a0:	1400004d 	b	28d4 <kprintf+0x1594>
/home/avees/optee_local_build/Linux_for_Tegra/sources/tegra/optee-src/nv-optee/optee/optee_os/lib/libutils/ext/snprintk.c:481 (discriminator 11)
    27a4:	b94053e0 	ldr	w0, [sp, #80]
    27a8:	121c0000 	and	w0, w0, #0x10
    27ac:	7100001f 	cmp	w0, #0x0
    27b0:	540002e0 	b.eq	280c <kprintf+0x14cc>  // b.none
/home/avees/optee_local_build/Linux_for_Tegra/sources/tegra/optee-src/nv-optee/optee/optee_os/lib/libutils/ext/snprintk.c:481
    27b4:	b9401a61 	ldr	w1, [x19, #24]
    27b8:	f9400260 	ldr	x0, [x19]
    27bc:	7100003f 	cmp	w1, #0x0
    27c0:	540000ab 	b.lt	27d4 <kprintf+0x1494>  // b.tstop
    27c4:	91003c01 	add	x1, x0, #0xf
    27c8:	927df021 	and	x1, x1, #0xfffffffffffffff8
    27cc:	f9000261 	str	x1, [x19]
    27d0:	1400000d 	b	2804 <kprintf+0x14c4>
    27d4:	11002022 	add	w2, w1, #0x8
    27d8:	b9001a62 	str	w2, [x19, #24]
    27dc:	b9401a62 	ldr	w2, [x19, #24]
    27e0:	7100005f 	cmp	w2, #0x0
    27e4:	540000ad 	b.le	27f8 <kprintf+0x14b8>
    27e8:	91003c01 	add	x1, x0, #0xf
    27ec:	927df021 	and	x1, x1, #0xfffffffffffffff8
    27f0:	f9000261 	str	x1, [x19]
    27f4:	14000004 	b	2804 <kprintf+0x14c4>
    27f8:	f9400662 	ldr	x2, [x19, #8]
    27fc:	93407c20 	sxtw	x0, w1
    2800:	8b000040 	add	x0, x2, x0
    2804:	f9400000 	ldr	x0, [x0]
    2808:	14000033 	b	28d4 <kprintf+0x1594>
/home/avees/optee_local_build/Linux_for_Tegra/sources/tegra/optee-src/nv-optee/optee/optee_os/lib/libutils/ext/snprintk.c:481 (discriminator 14)
    280c:	b94053e0 	ldr	w0, [sp, #80]
    2810:	121a0000 	and	w0, w0, #0x40
    2814:	7100001f 	cmp	w0, #0x0
    2818:	54000320 	b.eq	287c <kprintf+0x153c>  // b.none
/home/avees/optee_local_build/Linux_for_Tegra/sources/tegra/optee-src/nv-optee/optee/optee_os/lib/libutils/ext/snprintk.c:481
    281c:	b9401a61 	ldr	w1, [x19, #24]
    2820:	f9400260 	ldr	x0, [x19]
    2824:	7100003f 	cmp	w1, #0x0
    2828:	540000ab 	b.lt	283c <kprintf+0x14fc>  // b.tstop
    282c:	91002c01 	add	x1, x0, #0xb
    2830:	927df021 	and	x1, x1, #0xfffffffffffffff8
    2834:	f9000261 	str	x1, [x19]
    2838:	1400000d 	b	286c <kprintf+0x152c>
    283c:	11002022 	add	w2, w1, #0x8
    2840:	b9001a62 	str	w2, [x19, #24]
    2844:	b9401a62 	ldr	w2, [x19, #24]
    2848:	7100005f 	cmp	w2, #0x0
    284c:	540000ad 	b.le	2860 <kprintf+0x1520>
    2850:	91002c01 	add	x1, x0, #0xb
    2854:	927df021 	and	x1, x1, #0xfffffffffffffff8
    2858:	f9000261 	str	x1, [x19]
    285c:	14000004 	b	286c <kprintf+0x152c>
    2860:	f9400662 	ldr	x2, [x19, #8]
    2864:	93407c20 	sxtw	x0, w1
    2868:	8b000040 	add	x0, x2, x0
    286c:	b9400000 	ldr	w0, [x0]
    2870:	12003c00 	and	w0, w0, #0xffff
    2874:	92403c00 	and	x0, x0, #0xffff
    2878:	14000017 	b	28d4 <kprintf+0x1594>
    287c:	b9401a61 	ldr	w1, [x19, #24]
    2880:	f9400260 	ldr	x0, [x19]
    2884:	7100003f 	cmp	w1, #0x0
    2888:	540000ab 	b.lt	289c <kprintf+0x155c>  // b.tstop
    288c:	91002c01 	add	x1, x0, #0xb
    2890:	927df021 	and	x1, x1, #0xfffffffffffffff8
    2894:	f9000261 	str	x1, [x19]
    2898:	1400000d 	b	28cc <kprintf+0x158c>
    289c:	11002022 	add	w2, w1, #0x8
    28a0:	b9001a62 	str	w2, [x19, #24]
    28a4:	b9401a62 	ldr	w2, [x19, #24]
    28a8:	7100005f 	cmp	w2, #0x0
    28ac:	540000ad 	b.le	28c0 <kprintf+0x1580>
    28b0:	91002c01 	add	x1, x0, #0xb
    28b4:	927df021 	and	x1, x1, #0xfffffffffffffff8
    28b8:	f9000261 	str	x1, [x19]
    28bc:	14000004 	b	28cc <kprintf+0x158c>
    28c0:	f9400662 	ldr	x2, [x19, #8]
    28c4:	93407c20 	sxtw	x0, w1
    28c8:	8b000040 	add	x0, x2, x0
    28cc:	b9400000 	ldr	w0, [x0]
    28d0:	2a0003e0 	mov	w0, w0
/home/avees/optee_local_build/Linux_for_Tegra/sources/tegra/optee-src/nv-optee/optee/optee_os/lib/libutils/ext/snprintk.c:481 (discriminator 24)
    28d4:	f90043e0 	str	x0, [sp, #128]
/home/avees/optee_local_build/Linux_for_Tegra/sources/tegra/optee-src/nv-optee/optee/optee_os/lib/libutils/ext/snprintk.c:482 (discriminator 24)
    28d8:	52800040 	mov	w0, #0x2                   	// #2
    28dc:	b90063e0 	str	w0, [sp, #96]
/home/avees/optee_local_build/Linux_for_Tegra/sources/tegra/optee-src/nv-optee/optee/optee_os/lib/libutils/ext/snprintk.c:484 (discriminator 24)
    28e0:	b94053e0 	ldr	w0, [sp, #80]
    28e4:	12000000 	and	w0, w0, #0x1
    28e8:	7100001f 	cmp	w0, #0x0
    28ec:	54000100 	b.eq	290c <kprintf+0x15cc>  // b.none
/home/avees/optee_local_build/Linux_for_Tegra/sources/tegra/optee-src/nv-optee/optee/optee_os/lib/libutils/ext/snprintk.c:484 (discriminator 1)
    28f0:	f94043e0 	ldr	x0, [sp, #128]
    28f4:	f100001f 	cmp	x0, #0x0
    28f8:	540000a0 	b.eq	290c <kprintf+0x15cc>  // b.none
/home/avees/optee_local_build/Linux_for_Tegra/sources/tegra/optee-src/nv-optee/optee/optee_os/lib/libutils/ext/snprintk.c:485
    28fc:	b94053e0 	ldr	w0, [sp, #80]
    2900:	321f0000 	orr	w0, w0, #0x2
    2904:	b90053e0 	str	w0, [sp, #80]
    2908:	14000002 	b	2910 <kprintf+0x15d0>
/home/avees/optee_local_build/Linux_for_Tegra/sources/tegra/optee-src/nv-optee/optee/optee_os/lib/libutils/ext/snprintk.c:488
    290c:	d503201f 	nop
    2910:	39011fff 	strb	wzr, [sp, #71]
/home/avees/optee_local_build/Linux_for_Tegra/sources/tegra/optee-src/nv-optee/optee/optee_os/lib/libutils/ext/snprintk.c:494
    2914:	b9405fe0 	ldr	w0, [sp, #92]
    2918:	b90067e0 	str	w0, [sp, #100]
    291c:	b94067e0 	ldr	w0, [sp, #100]
    2920:	7100001f 	cmp	w0, #0x0
    2924:	5400008b 	b.lt	2934 <kprintf+0x15f4>  // b.tstop
/home/avees/optee_local_build/Linux_for_Tegra/sources/tegra/optee-src/nv-optee/optee/optee_os/lib/libutils/ext/snprintk.c:495
    2928:	b94053e0 	ldr	w0, [sp, #80]
    292c:	12157800 	and	w0, w0, #0xfffffbff
    2930:	b90053e0 	str	w0, [sp, #80]
/home/avees/optee_local_build/Linux_for_Tegra/sources/tegra/optee-src/nv-optee/optee/optee_os/lib/libutils/ext/snprintk.c:502
    2934:	910283e0 	add	x0, sp, #0xa0
    2938:	91009400 	add	x0, x0, #0x25
    293c:	f9003fe0 	str	x0, [sp, #120]
/home/avees/optee_local_build/Linux_for_Tegra/sources/tegra/optee-src/nv-optee/optee/optee_os/lib/libutils/ext/snprintk.c:503
    2940:	f94043e0 	ldr	x0, [sp, #128]
    2944:	f100001f 	cmp	x0, #0x0
    2948:	54000081 	b.ne	2958 <kprintf+0x1618>  // b.any
/home/avees/optee_local_build/Linux_for_Tegra/sources/tegra/optee-src/nv-optee/optee/optee_os/lib/libutils/ext/snprintk.c:503 (discriminator 1)
    294c:	b9405fe0 	ldr	w0, [sp, #92]
    2950:	7100001f 	cmp	w0, #0x0
    2954:	54000dc0 	b.eq	2b0c <kprintf+0x17cc>  // b.none
    2958:	b94063e0 	ldr	w0, [sp, #96]
    295c:	7100081f 	cmp	w0, #0x2
    2960:	54000a40 	b.eq	2aa8 <kprintf+0x1768>  // b.none
    2964:	b94063e0 	ldr	w0, [sp, #96]
    2968:	7100081f 	cmp	w0, #0x2
    296c:	54000c08 	b.hi	2aec <kprintf+0x17ac>  // b.pmore
    2970:	b94063e0 	ldr	w0, [sp, #96]
    2974:	7100001f 	cmp	w0, #0x0
    2978:	540000c0 	b.eq	2990 <kprintf+0x1650>  // b.none
    297c:	b94063e0 	ldr	w0, [sp, #96]
    2980:	7100041f 	cmp	w0, #0x1
    2984:	54000760 	b.eq	2a70 <kprintf+0x1730>  // b.none
    2988:	14000059 	b	2aec <kprintf+0x17ac>
/home/avees/optee_local_build/Linux_for_Tegra/sources/tegra/optee-src/nv-optee/optee/optee_os/lib/libutils/ext/snprintk.c:510
    298c:	d503201f 	nop
/home/avees/optee_local_build/Linux_for_Tegra/sources/tegra/optee-src/nv-optee/optee/optee_os/lib/libutils/ext/snprintk.c:512 (discriminator 1)
    2990:	f94043e0 	ldr	x0, [sp, #128]
    2994:	12001c00 	and	w0, w0, #0xff
    2998:	12000800 	and	w0, w0, #0x7
    299c:	12001c00 	and	w0, w0, #0xff
    29a0:	f9403fe1 	ldr	x1, [sp, #120]
    29a4:	d1000421 	sub	x1, x1, #0x1
    29a8:	f9003fe1 	str	x1, [sp, #120]
    29ac:	1100c000 	add	w0, w0, #0x30
    29b0:	12001c01 	and	w1, w0, #0xff
    29b4:	f9403fe0 	ldr	x0, [sp, #120]
    29b8:	39000001 	strb	w1, [x0]
/home/avees/optee_local_build/Linux_for_Tegra/sources/tegra/optee-src/nv-optee/optee/optee_os/lib/libutils/ext/snprintk.c:513 (discriminator 1)
    29bc:	f94043e0 	ldr	x0, [sp, #128]
    29c0:	d343fc00 	lsr	x0, x0, #3
    29c4:	f90043e0 	str	x0, [sp, #128]
/home/avees/optee_local_build/Linux_for_Tegra/sources/tegra/optee-src/nv-optee/optee/optee_os/lib/libutils/ext/snprintk.c:514 (discriminator 1)
    29c8:	f94043e0 	ldr	x0, [sp, #128]
    29cc:	f100001f 	cmp	x0, #0x0
    29d0:	54fffde1 	b.ne	298c <kprintf+0x164c>  // b.any
/home/avees/optee_local_build/Linux_for_Tegra/sources/tegra/optee-src/nv-optee/optee/optee_os/lib/libutils/ext/snprintk.c:516
    29d4:	b94053e0 	ldr	w0, [sp, #80]
    29d8:	12000000 	and	w0, w0, #0x1
    29dc:	7100001f 	cmp	w0, #0x0
    29e0:	540009a0 	b.eq	2b14 <kprintf+0x17d4>  // b.none
/home/avees/optee_local_build/Linux_for_Tegra/sources/tegra/optee-src/nv-optee/optee/optee_os/lib/libutils/ext/snprintk.c:516 (discriminator 1)
    29e4:	f9403fe0 	ldr	x0, [sp, #120]
    29e8:	39400000 	ldrb	w0, [x0]
    29ec:	7100c01f 	cmp	w0, #0x30
    29f0:	54000920 	b.eq	2b14 <kprintf+0x17d4>  // b.none
/home/avees/optee_local_build/Linux_for_Tegra/sources/tegra/optee-src/nv-optee/optee/optee_os/lib/libutils/ext/snprintk.c:517
    29f4:	f9403fe0 	ldr	x0, [sp, #120]
    29f8:	d1000400 	sub	x0, x0, #0x1
    29fc:	f9003fe0 	str	x0, [sp, #120]
    2a00:	f9403fe0 	ldr	x0, [sp, #120]
    2a04:	52800601 	mov	w1, #0x30                  	// #48
    2a08:	39000001 	strb	w1, [x0]
/home/avees/optee_local_build/Linux_for_Tegra/sources/tegra/optee-src/nv-optee/optee/optee_os/lib/libutils/ext/snprintk.c:518
    2a0c:	14000042 	b	2b14 <kprintf+0x17d4>
/home/avees/optee_local_build/Linux_for_Tegra/sources/tegra/optee-src/nv-optee/optee/optee_os/lib/libutils/ext/snprintk.c:523
    2a10:	f94043e2 	ldr	x2, [sp, #128]
    2a14:	b202e7e0 	mov	x0, #0xcccccccccccccccc    	// #-3689348814741910324
    2a18:	f29999a0 	movk	x0, #0xcccd
    2a1c:	9bc07c40 	umulh	x0, x2, x0
    2a20:	d343fc01 	lsr	x1, x0, #3
    2a24:	aa0103e0 	mov	x0, x1
    2a28:	d37ef400 	lsl	x0, x0, #2
    2a2c:	8b010000 	add	x0, x0, x1
    2a30:	d37ff800 	lsl	x0, x0, #1
    2a34:	cb000041 	sub	x1, x2, x0
    2a38:	12001c20 	and	w0, w1, #0xff
    2a3c:	f9403fe1 	ldr	x1, [sp, #120]
    2a40:	d1000421 	sub	x1, x1, #0x1
    2a44:	f9003fe1 	str	x1, [sp, #120]
    2a48:	1100c000 	add	w0, w0, #0x30
    2a4c:	12001c01 	and	w1, w0, #0xff
    2a50:	f9403fe0 	ldr	x0, [sp, #120]
    2a54:	39000001 	strb	w1, [x0]
/home/avees/optee_local_build/Linux_for_Tegra/sources/tegra/optee-src/nv-optee/optee/optee_os/lib/libutils/ext/snprintk.c:524
    2a58:	f94043e1 	ldr	x1, [sp, #128]
    2a5c:	b202e7e0 	mov	x0, #0xcccccccccccccccc    	// #-3689348814741910324
    2a60:	f29999a0 	movk	x0, #0xcccd
    2a64:	9bc07c20 	umulh	x0, x1, x0
    2a68:	d343fc00 	lsr	x0, x0, #3
    2a6c:	f90043e0 	str	x0, [sp, #128]
/home/avees/optee_local_build/Linux_for_Tegra/sources/tegra/optee-src/nv-optee/optee/optee_os/lib/libutils/ext/snprintk.c:522
    2a70:	f94043e0 	ldr	x0, [sp, #128]
    2a74:	f100241f 	cmp	x0, #0x9
    2a78:	54fffcc8 	b.hi	2a10 <kprintf+0x16d0>  // b.pmore
/home/avees/optee_local_build/Linux_for_Tegra/sources/tegra/optee-src/nv-optee/optee/optee_os/lib/libutils/ext/snprintk.c:526
    2a7c:	f94043e0 	ldr	x0, [sp, #128]
    2a80:	12001c00 	and	w0, w0, #0xff
    2a84:	f9403fe1 	ldr	x1, [sp, #120]
    2a88:	d1000421 	sub	x1, x1, #0x1
    2a8c:	f9003fe1 	str	x1, [sp, #120]
    2a90:	1100c000 	add	w0, w0, #0x30
    2a94:	12001c01 	and	w1, w0, #0xff
    2a98:	f9403fe0 	ldr	x0, [sp, #120]
    2a9c:	39000001 	strb	w1, [x0]
/home/avees/optee_local_build/Linux_for_Tegra/sources/tegra/optee-src/nv-optee/optee/optee_os/lib/libutils/ext/snprintk.c:527
    2aa0:	1400001e 	b	2b18 <kprintf+0x17d8>
/home/avees/optee_local_build/Linux_for_Tegra/sources/tegra/optee-src/nv-optee/optee/optee_os/lib/libutils/ext/snprintk.c:529
    2aa4:	d503201f 	nop
/home/avees/optee_local_build/Linux_for_Tegra/sources/tegra/optee-src/nv-optee/optee/optee_os/lib/libutils/ext/snprintk.c:531 (discriminator 1)
    2aa8:	f94043e0 	ldr	x0, [sp, #128]
    2aac:	92400c00 	and	x0, x0, #0xf
    2ab0:	f94047e1 	ldr	x1, [sp, #136]
    2ab4:	8b000020 	add	x0, x1, x0
    2ab8:	f9403fe1 	ldr	x1, [sp, #120]
    2abc:	d1000421 	sub	x1, x1, #0x1
    2ac0:	f9003fe1 	str	x1, [sp, #120]
    2ac4:	39400001 	ldrb	w1, [x0]
    2ac8:	f9403fe0 	ldr	x0, [sp, #120]
    2acc:	39000001 	strb	w1, [x0]
/home/avees/optee_local_build/Linux_for_Tegra/sources/tegra/optee-src/nv-optee/optee/optee_os/lib/libutils/ext/snprintk.c:532 (discriminator 1)
    2ad0:	f94043e0 	ldr	x0, [sp, #128]
    2ad4:	d344fc00 	lsr	x0, x0, #4
    2ad8:	f90043e0 	str	x0, [sp, #128]
/home/avees/optee_local_build/Linux_for_Tegra/sources/tegra/optee-src/nv-optee/optee/optee_os/lib/libutils/ext/snprintk.c:533 (discriminator 1)
    2adc:	f94043e0 	ldr	x0, [sp, #128]
    2ae0:	f100001f 	cmp	x0, #0x0
    2ae4:	54fffe01 	b.ne	2aa4 <kprintf+0x1764>  // b.any
/home/avees/optee_local_build/Linux_for_Tegra/sources/tegra/optee-src/nv-optee/optee/optee_os/lib/libutils/ext/snprintk.c:534
    2ae8:	1400000c 	b	2b18 <kprintf+0x17d8>
/home/avees/optee_local_build/Linux_for_Tegra/sources/tegra/optee-src/nv-optee/optee/optee_os/lib/libutils/ext/snprintk.c:538
    2aec:	f00000e0 	adrp	x0, 21000 <__compound_literal.7+0x134>
    2af0:	9105a000 	add	x0, x0, #0x168
    2af4:	f9003fe0 	str	x0, [sp, #120]
/home/avees/optee_local_build/Linux_for_Tegra/sources/tegra/optee-src/nv-optee/optee/optee_os/lib/libutils/ext/snprintk.c:539
    2af8:	f9403fe0 	ldr	x0, [sp, #120]
    2afc:	97fff692 	bl	544 <strlen>
    2b00:	b9006fe0 	str	w0, [sp, #108]
/home/avees/optee_local_build/Linux_for_Tegra/sources/tegra/optee-src/nv-optee/optee/optee_os/lib/libutils/ext/snprintk.c:540
    2b04:	d503201f 	nop
/home/avees/optee_local_build/Linux_for_Tegra/sources/tegra/optee-src/nv-optee/optee/optee_os/lib/libutils/ext/snprintk.c:545
    2b08:	14000017 	b	2b64 <kprintf+0x1824>
/home/avees/optee_local_build/Linux_for_Tegra/sources/tegra/optee-src/nv-optee/optee/optee_os/lib/libutils/ext/snprintk.c:542
    2b0c:	d503201f 	nop
    2b10:	14000002 	b	2b18 <kprintf+0x17d8>
/home/avees/optee_local_build/Linux_for_Tegra/sources/tegra/optee-src/nv-optee/optee/optee_os/lib/libutils/ext/snprintk.c:518
    2b14:	d503201f 	nop
/home/avees/optee_local_build/Linux_for_Tegra/sources/tegra/optee-src/nv-optee/optee/optee_os/lib/libutils/ext/snprintk.c:543
    2b18:	910283e0 	add	x0, sp, #0xa0
    2b1c:	91009400 	add	x0, x0, #0x25
    2b20:	f9403fe1 	ldr	x1, [sp, #120]
    2b24:	cb010000 	sub	x0, x0, x1
    2b28:	b9006fe0 	str	w0, [sp, #108]
/home/avees/optee_local_build/Linux_for_Tegra/sources/tegra/optee-src/nv-optee/optee/optee_os/lib/libutils/ext/snprintk.c:545
    2b2c:	1400000e 	b	2b64 <kprintf+0x1824>
/home/avees/optee_local_build/Linux_for_Tegra/sources/tegra/optee-src/nv-optee/optee/optee_os/lib/libutils/ext/snprintk.c:547
    2b30:	b9404be0 	ldr	w0, [sp, #72]
    2b34:	7100001f 	cmp	w0, #0x0
    2b38:	54002060 	b.eq	2f44 <kprintf+0x1c04>  // b.none
/home/avees/optee_local_build/Linux_for_Tegra/sources/tegra/optee-src/nv-optee/optee/optee_os/lib/libutils/ext/snprintk.c:550
    2b3c:	910283e0 	add	x0, sp, #0xa0
    2b40:	f9003fe0 	str	x0, [sp, #120]
/home/avees/optee_local_build/Linux_for_Tegra/sources/tegra/optee-src/nv-optee/optee/optee_os/lib/libutils/ext/snprintk.c:551
    2b44:	b9404be0 	ldr	w0, [sp, #72]
    2b48:	12001c01 	and	w1, w0, #0xff
    2b4c:	f9403fe0 	ldr	x0, [sp, #120]
    2b50:	39000001 	strb	w1, [x0]
/home/avees/optee_local_build/Linux_for_Tegra/sources/tegra/optee-src/nv-optee/optee/optee_os/lib/libutils/ext/snprintk.c:552
    2b54:	52800020 	mov	w0, #0x1                   	// #1
    2b58:	b9006fe0 	str	w0, [sp, #108]
/home/avees/optee_local_build/Linux_for_Tegra/sources/tegra/optee-src/nv-optee/optee/optee_os/lib/libutils/ext/snprintk.c:553
    2b5c:	39011fff 	strb	wzr, [sp, #71]
/home/avees/optee_local_build/Linux_for_Tegra/sources/tegra/optee-src/nv-optee/optee/optee_os/lib/libutils/ext/snprintk.c:554
    2b60:	d503201f 	nop
/home/avees/optee_local_build/Linux_for_Tegra/sources/tegra/optee-src/nv-optee/optee/optee_os/lib/libutils/ext/snprintk.c:571
    2b64:	b94067e0 	ldr	w0, [sp, #100]
    2b68:	b9406fe2 	ldr	w2, [sp, #108]
    2b6c:	b9406fe1 	ldr	w1, [sp, #108]
    2b70:	6b00005f 	cmp	w2, w0
    2b74:	1a80a020 	csel	w0, w1, w0, ge  // ge = tcont
    2b78:	b9006be0 	str	w0, [sp, #104]
/home/avees/optee_local_build/Linux_for_Tegra/sources/tegra/optee-src/nv-optee/optee/optee_os/lib/libutils/ext/snprintk.c:572
    2b7c:	39411fe0 	ldrb	w0, [sp, #71]
    2b80:	7100001f 	cmp	w0, #0x0
    2b84:	540000a0 	b.eq	2b98 <kprintf+0x1858>  // b.none
/home/avees/optee_local_build/Linux_for_Tegra/sources/tegra/optee-src/nv-optee/optee/optee_os/lib/libutils/ext/snprintk.c:573
    2b88:	b9406be0 	ldr	w0, [sp, #104]
    2b8c:	11000400 	add	w0, w0, #0x1
    2b90:	b9006be0 	str	w0, [sp, #104]
    2b94:	14000008 	b	2bb4 <kprintf+0x1874>
/home/avees/optee_local_build/Linux_for_Tegra/sources/tegra/optee-src/nv-optee/optee/optee_os/lib/libutils/ext/snprintk.c:574
    2b98:	b94053e0 	ldr	w0, [sp, #80]
    2b9c:	121f0000 	and	w0, w0, #0x2
    2ba0:	7100001f 	cmp	w0, #0x0
    2ba4:	54000080 	b.eq	2bb4 <kprintf+0x1874>  // b.none
/home/avees/optee_local_build/Linux_for_Tegra/sources/tegra/optee-src/nv-optee/optee/optee_os/lib/libutils/ext/snprintk.c:575
    2ba8:	b9406be0 	ldr	w0, [sp, #104]
    2bac:	11000800 	add	w0, w0, #0x2
    2bb0:	b9006be0 	str	w0, [sp, #104]
/home/avees/optee_local_build/Linux_for_Tegra/sources/tegra/optee-src/nv-optee/optee/optee_os/lib/libutils/ext/snprintk.c:578
    2bb4:	b9405be0 	ldr	w0, [sp, #88]
    2bb8:	b9406be2 	ldr	w2, [sp, #104]
    2bbc:	b9406be1 	ldr	w1, [sp, #104]
    2bc0:	6b00005f 	cmp	w2, w0
    2bc4:	1a80a020 	csel	w0, w1, w0, ge  // ge = tcont
    2bc8:	b94057e1 	ldr	w1, [sp, #84]
    2bcc:	0b000020 	add	w0, w1, w0
    2bd0:	b90057e0 	str	w0, [sp, #84]
/home/avees/optee_local_build/Linux_for_Tegra/sources/tegra/optee-src/nv-optee/optee/optee_os/lib/libutils/ext/snprintk.c:581
    2bd4:	b94053e1 	ldr	w1, [sp, #80]
    2bd8:	52808080 	mov	w0, #0x404                 	// #1028
    2bdc:	0a000020 	and	w0, w1, w0
    2be0:	7100001f 	cmp	w0, #0x0
    2be4:	540003a1 	b.ne	2c58 <kprintf+0x1918>  // b.any
/home/avees/optee_local_build/Linux_for_Tegra/sources/tegra/optee-src/nv-optee/optee/optee_os/lib/libutils/ext/snprintk.c:582
    2be8:	b9405be1 	ldr	w1, [sp, #88]
    2bec:	b9406be0 	ldr	w0, [sp, #104]
    2bf0:	4b000020 	sub	w0, w1, w0
    2bf4:	b9004fe0 	str	w0, [sp, #76]
/home/avees/optee_local_build/Linux_for_Tegra/sources/tegra/optee-src/nv-optee/optee/optee_os/lib/libutils/ext/snprintk.c:583
    2bf8:	14000013 	b	2c44 <kprintf+0x1904>
/home/avees/optee_local_build/Linux_for_Tegra/sources/tegra/optee-src/nv-optee/optee/optee_os/lib/libutils/ext/snprintk.c:584
    2bfc:	b94037e0 	ldr	w0, [sp, #52]
    2c00:	7100201f 	cmp	w0, #0x8
    2c04:	54000201 	b.ne	2c44 <kprintf+0x1904>  // b.any
/home/avees/optee_local_build/Linux_for_Tegra/sources/tegra/optee-src/nv-optee/optee/optee_os/lib/libutils/ext/snprintk.c:584 (discriminator 1)
    2c08:	f94013e0 	ldr	x0, [sp, #32]
    2c0c:	f100001f 	cmp	x0, #0x0
    2c10:	540001a0 	b.eq	2c44 <kprintf+0x1904>  // b.none
/home/avees/optee_local_build/Linux_for_Tegra/sources/tegra/optee-src/nv-optee/optee/optee_os/lib/libutils/ext/snprintk.c:584 (discriminator 2)
    2c14:	f94017e0 	ldr	x0, [sp, #40]
    2c18:	f100001f 	cmp	x0, #0x0
    2c1c:	540000a0 	b.eq	2c30 <kprintf+0x18f0>  // b.none
/home/avees/optee_local_build/Linux_for_Tegra/sources/tegra/optee-src/nv-optee/optee/optee_os/lib/libutils/ext/snprintk.c:584 (discriminator 4)
    2c20:	f94013e1 	ldr	x1, [sp, #32]
    2c24:	f9404be0 	ldr	x0, [sp, #144]
    2c28:	eb00003f 	cmp	x1, x0
    2c2c:	540000c2 	b.cs	2c44 <kprintf+0x1904>  // b.hs, b.nlast
/home/avees/optee_local_build/Linux_for_Tegra/sources/tegra/optee-src/nv-optee/optee/optee_os/lib/libutils/ext/snprintk.c:584 (discriminator 5)
    2c30:	f94013e0 	ldr	x0, [sp, #32]
    2c34:	91000401 	add	x1, x0, #0x1
    2c38:	f90013e1 	str	x1, [sp, #32]
    2c3c:	52800401 	mov	w1, #0x20                  	// #32
    2c40:	39000001 	strb	w1, [x0]
/home/avees/optee_local_build/Linux_for_Tegra/sources/tegra/optee-src/nv-optee/optee/optee_os/lib/libutils/ext/snprintk.c:583
    2c44:	b9404fe0 	ldr	w0, [sp, #76]
    2c48:	51000401 	sub	w1, w0, #0x1
    2c4c:	b9004fe1 	str	w1, [sp, #76]
    2c50:	7100001f 	cmp	w0, #0x0
    2c54:	54fffd4c 	b.gt	2bfc <kprintf+0x18bc>
/home/avees/optee_local_build/Linux_for_Tegra/sources/tegra/optee-src/nv-optee/optee/optee_os/lib/libutils/ext/snprintk.c:588
    2c58:	39411fe0 	ldrb	w0, [sp, #71]
    2c5c:	7100001f 	cmp	w0, #0x0
    2c60:	54000280 	b.eq	2cb0 <kprintf+0x1970>  // b.none
/home/avees/optee_local_build/Linux_for_Tegra/sources/tegra/optee-src/nv-optee/optee/optee_os/lib/libutils/ext/snprintk.c:589
    2c64:	b94037e0 	ldr	w0, [sp, #52]
    2c68:	7100201f 	cmp	w0, #0x8
    2c6c:	54000741 	b.ne	2d54 <kprintf+0x1a14>  // b.any
/home/avees/optee_local_build/Linux_for_Tegra/sources/tegra/optee-src/nv-optee/optee/optee_os/lib/libutils/ext/snprintk.c:589 (discriminator 1)
    2c70:	f94013e0 	ldr	x0, [sp, #32]
    2c74:	f100001f 	cmp	x0, #0x0
    2c78:	540006e0 	b.eq	2d54 <kprintf+0x1a14>  // b.none
/home/avees/optee_local_build/Linux_for_Tegra/sources/tegra/optee-src/nv-optee/optee/optee_os/lib/libutils/ext/snprintk.c:589 (discriminator 2)
    2c7c:	f94017e0 	ldr	x0, [sp, #40]
    2c80:	f100001f 	cmp	x0, #0x0
    2c84:	540000a0 	b.eq	2c98 <kprintf+0x1958>  // b.none
/home/avees/optee_local_build/Linux_for_Tegra/sources/tegra/optee-src/nv-optee/optee/optee_os/lib/libutils/ext/snprintk.c:589 (discriminator 4)
    2c88:	f94013e1 	ldr	x1, [sp, #32]
    2c8c:	f9404be0 	ldr	x0, [sp, #144]
    2c90:	eb00003f 	cmp	x1, x0
    2c94:	54000602 	b.cs	2d54 <kprintf+0x1a14>  // b.hs, b.nlast
/home/avees/optee_local_build/Linux_for_Tegra/sources/tegra/optee-src/nv-optee/optee/optee_os/lib/libutils/ext/snprintk.c:589 (discriminator 5)
    2c98:	f94013e0 	ldr	x0, [sp, #32]
    2c9c:	91000401 	add	x1, x0, #0x1
    2ca0:	f90013e1 	str	x1, [sp, #32]
    2ca4:	39411fe1 	ldrb	w1, [sp, #71]
    2ca8:	39000001 	strb	w1, [x0]
    2cac:	1400002a 	b	2d54 <kprintf+0x1a14>
/home/avees/optee_local_build/Linux_for_Tegra/sources/tegra/optee-src/nv-optee/optee/optee_os/lib/libutils/ext/snprintk.c:590
    2cb0:	b94053e0 	ldr	w0, [sp, #80]
    2cb4:	121f0000 	and	w0, w0, #0x2
    2cb8:	7100001f 	cmp	w0, #0x0
    2cbc:	540004c0 	b.eq	2d54 <kprintf+0x1a14>  // b.none
/home/avees/optee_local_build/Linux_for_Tegra/sources/tegra/optee-src/nv-optee/optee/optee_os/lib/libutils/ext/snprintk.c:591
    2cc0:	b94037e0 	ldr	w0, [sp, #52]
    2cc4:	7100201f 	cmp	w0, #0x8
    2cc8:	54000201 	b.ne	2d08 <kprintf+0x19c8>  // b.any
/home/avees/optee_local_build/Linux_for_Tegra/sources/tegra/optee-src/nv-optee/optee/optee_os/lib/libutils/ext/snprintk.c:591 (discriminator 1)
    2ccc:	f94013e0 	ldr	x0, [sp, #32]
    2cd0:	f100001f 	cmp	x0, #0x0
    2cd4:	540001a0 	b.eq	2d08 <kprintf+0x19c8>  // b.none
/home/avees/optee_local_build/Linux_for_Tegra/sources/tegra/optee-src/nv-optee/optee/optee_os/lib/libutils/ext/snprintk.c:591 (discriminator 2)
    2cd8:	f94017e0 	ldr	x0, [sp, #40]
    2cdc:	f100001f 	cmp	x0, #0x0
    2ce0:	540000a0 	b.eq	2cf4 <kprintf+0x19b4>  // b.none
/home/avees/optee_local_build/Linux_for_Tegra/sources/tegra/optee-src/nv-optee/optee/optee_os/lib/libutils/ext/snprintk.c:591 (discriminator 4)
    2ce4:	f94013e1 	ldr	x1, [sp, #32]
    2ce8:	f9404be0 	ldr	x0, [sp, #144]
    2cec:	eb00003f 	cmp	x1, x0
    2cf0:	540000c2 	b.cs	2d08 <kprintf+0x19c8>  // b.hs, b.nlast
/home/avees/optee_local_build/Linux_for_Tegra/sources/tegra/optee-src/nv-optee/optee/optee_os/lib/libutils/ext/snprintk.c:591 (discriminator 5)
    2cf4:	f94013e0 	ldr	x0, [sp, #32]
    2cf8:	91000401 	add	x1, x0, #0x1
    2cfc:	f90013e1 	str	x1, [sp, #32]
    2d00:	52800601 	mov	w1, #0x30                  	// #48
    2d04:	39000001 	strb	w1, [x0]
/home/avees/optee_local_build/Linux_for_Tegra/sources/tegra/optee-src/nv-optee/optee/optee_os/lib/libutils/ext/snprintk.c:592
    2d08:	b94037e0 	ldr	w0, [sp, #52]
    2d0c:	7100201f 	cmp	w0, #0x8
    2d10:	54000221 	b.ne	2d54 <kprintf+0x1a14>  // b.any
/home/avees/optee_local_build/Linux_for_Tegra/sources/tegra/optee-src/nv-optee/optee/optee_os/lib/libutils/ext/snprintk.c:592 (discriminator 1)
    2d14:	f94013e0 	ldr	x0, [sp, #32]
    2d18:	f100001f 	cmp	x0, #0x0
    2d1c:	540001c0 	b.eq	2d54 <kprintf+0x1a14>  // b.none
/home/avees/optee_local_build/Linux_for_Tegra/sources/tegra/optee-src/nv-optee/optee/optee_os/lib/libutils/ext/snprintk.c:592 (discriminator 2)
    2d20:	f94017e0 	ldr	x0, [sp, #40]
    2d24:	f100001f 	cmp	x0, #0x0
    2d28:	540000a0 	b.eq	2d3c <kprintf+0x19fc>  // b.none
/home/avees/optee_local_build/Linux_for_Tegra/sources/tegra/optee-src/nv-optee/optee/optee_os/lib/libutils/ext/snprintk.c:592 (discriminator 4)
    2d2c:	f94013e1 	ldr	x1, [sp, #32]
    2d30:	f9404be0 	ldr	x0, [sp, #144]
    2d34:	eb00003f 	cmp	x1, x0
    2d38:	540000e2 	b.cs	2d54 <kprintf+0x1a14>  // b.hs, b.nlast
/home/avees/optee_local_build/Linux_for_Tegra/sources/tegra/optee-src/nv-optee/optee/optee_os/lib/libutils/ext/snprintk.c:592 (discriminator 5)
    2d3c:	f94013e0 	ldr	x0, [sp, #32]
    2d40:	91000401 	add	x1, x0, #0x1
    2d44:	f90013e1 	str	x1, [sp, #32]
    2d48:	b9404be1 	ldr	w1, [sp, #72]
    2d4c:	12001c21 	and	w1, w1, #0xff
    2d50:	39000001 	strb	w1, [x0]
/home/avees/optee_local_build/Linux_for_Tegra/sources/tegra/optee-src/nv-optee/optee/optee_os/lib/libutils/ext/snprintk.c:596
    2d54:	b94053e1 	ldr	w1, [sp, #80]
    2d58:	52808080 	mov	w0, #0x404                 	// #1028
    2d5c:	0a000020 	and	w0, w1, w0
    2d60:	7110001f 	cmp	w0, #0x400
    2d64:	540003a1 	b.ne	2dd8 <kprintf+0x1a98>  // b.any
/home/avees/optee_local_build/Linux_for_Tegra/sources/tegra/optee-src/nv-optee/optee/optee_os/lib/libutils/ext/snprintk.c:597
    2d68:	b9405be1 	ldr	w1, [sp, #88]
    2d6c:	b9406be0 	ldr	w0, [sp, #104]
    2d70:	4b000020 	sub	w0, w1, w0
    2d74:	b9004fe0 	str	w0, [sp, #76]
/home/avees/optee_local_build/Linux_for_Tegra/sources/tegra/optee-src/nv-optee/optee/optee_os/lib/libutils/ext/snprintk.c:598
    2d78:	14000013 	b	2dc4 <kprintf+0x1a84>
/home/avees/optee_local_build/Linux_for_Tegra/sources/tegra/optee-src/nv-optee/optee/optee_os/lib/libutils/ext/snprintk.c:599
    2d7c:	b94037e0 	ldr	w0, [sp, #52]
    2d80:	7100201f 	cmp	w0, #0x8
    2d84:	54000201 	b.ne	2dc4 <kprintf+0x1a84>  // b.any
/home/avees/optee_local_build/Linux_for_Tegra/sources/tegra/optee-src/nv-optee/optee/optee_os/lib/libutils/ext/snprintk.c:599 (discriminator 1)
    2d88:	f94013e0 	ldr	x0, [sp, #32]
    2d8c:	f100001f 	cmp	x0, #0x0
    2d90:	540001a0 	b.eq	2dc4 <kprintf+0x1a84>  // b.none
/home/avees/optee_local_build/Linux_for_Tegra/sources/tegra/optee-src/nv-optee/optee/optee_os/lib/libutils/ext/snprintk.c:599 (discriminator 2)
    2d94:	f94017e0 	ldr	x0, [sp, #40]
    2d98:	f100001f 	cmp	x0, #0x0
    2d9c:	540000a0 	b.eq	2db0 <kprintf+0x1a70>  // b.none
/home/avees/optee_local_build/Linux_for_Tegra/sources/tegra/optee-src/nv-optee/optee/optee_os/lib/libutils/ext/snprintk.c:599 (discriminator 4)
    2da0:	f94013e1 	ldr	x1, [sp, #32]
    2da4:	f9404be0 	ldr	x0, [sp, #144]
    2da8:	eb00003f 	cmp	x1, x0
    2dac:	540000c2 	b.cs	2dc4 <kprintf+0x1a84>  // b.hs, b.nlast
/home/avees/optee_local_build/Linux_for_Tegra/sources/tegra/optee-src/nv-optee/optee/optee_os/lib/libutils/ext/snprintk.c:599 (discriminator 5)
    2db0:	f94013e0 	ldr	x0, [sp, #32]
    2db4:	91000401 	add	x1, x0, #0x1
    2db8:	f90013e1 	str	x1, [sp, #32]
    2dbc:	52800601 	mov	w1, #0x30                  	// #48
    2dc0:	39000001 	strb	w1, [x0]
/home/avees/optee_local_build/Linux_for_Tegra/sources/tegra/optee-src/nv-optee/optee/optee_os/lib/libutils/ext/snprintk.c:598
    2dc4:	b9404fe0 	ldr	w0, [sp, #76]
    2dc8:	51000401 	sub	w1, w0, #0x1
    2dcc:	b9004fe1 	str	w1, [sp, #76]
    2dd0:	7100001f 	cmp	w0, #0x0
    2dd4:	54fffd4c 	b.gt	2d7c <kprintf+0x1a3c>
/home/avees/optee_local_build/Linux_for_Tegra/sources/tegra/optee-src/nv-optee/optee/optee_os/lib/libutils/ext/snprintk.c:603
    2dd8:	b94067e1 	ldr	w1, [sp, #100]
    2ddc:	b9406fe0 	ldr	w0, [sp, #108]
    2de0:	4b000020 	sub	w0, w1, w0
    2de4:	b9004fe0 	str	w0, [sp, #76]
/home/avees/optee_local_build/Linux_for_Tegra/sources/tegra/optee-src/nv-optee/optee/optee_os/lib/libutils/ext/snprintk.c:604
    2de8:	14000013 	b	2e34 <kprintf+0x1af4>
/home/avees/optee_local_build/Linux_for_Tegra/sources/tegra/optee-src/nv-optee/optee/optee_os/lib/libutils/ext/snprintk.c:605
    2dec:	b94037e0 	ldr	w0, [sp, #52]
    2df0:	7100201f 	cmp	w0, #0x8
    2df4:	54000201 	b.ne	2e34 <kprintf+0x1af4>  // b.any
/home/avees/optee_local_build/Linux_for_Tegra/sources/tegra/optee-src/nv-optee/optee/optee_os/lib/libutils/ext/snprintk.c:605 (discriminator 1)
    2df8:	f94013e0 	ldr	x0, [sp, #32]
    2dfc:	f100001f 	cmp	x0, #0x0
    2e00:	540001a0 	b.eq	2e34 <kprintf+0x1af4>  // b.none
/home/avees/optee_local_build/Linux_for_Tegra/sources/tegra/optee-src/nv-optee/optee/optee_os/lib/libutils/ext/snprintk.c:605 (discriminator 2)
    2e04:	f94017e0 	ldr	x0, [sp, #40]
    2e08:	f100001f 	cmp	x0, #0x0
    2e0c:	540000a0 	b.eq	2e20 <kprintf+0x1ae0>  // b.none
/home/avees/optee_local_build/Linux_for_Tegra/sources/tegra/optee-src/nv-optee/optee/optee_os/lib/libutils/ext/snprintk.c:605 (discriminator 4)
    2e10:	f94013e1 	ldr	x1, [sp, #32]
    2e14:	f9404be0 	ldr	x0, [sp, #144]
    2e18:	eb00003f 	cmp	x1, x0
    2e1c:	540000c2 	b.cs	2e34 <kprintf+0x1af4>  // b.hs, b.nlast
/home/avees/optee_local_build/Linux_for_Tegra/sources/tegra/optee-src/nv-optee/optee/optee_os/lib/libutils/ext/snprintk.c:605 (discriminator 5)
    2e20:	f94013e0 	ldr	x0, [sp, #32]
    2e24:	91000401 	add	x1, x0, #0x1
    2e28:	f90013e1 	str	x1, [sp, #32]
    2e2c:	52800601 	mov	w1, #0x30                  	// #48
    2e30:	39000001 	strb	w1, [x0]
/home/avees/optee_local_build/Linux_for_Tegra/sources/tegra/optee-src/nv-optee/optee/optee_os/lib/libutils/ext/snprintk.c:604
    2e34:	b9404fe0 	ldr	w0, [sp, #76]
    2e38:	51000401 	sub	w1, w0, #0x1
    2e3c:	b9004fe1 	str	w1, [sp, #76]
    2e40:	7100001f 	cmp	w0, #0x0
    2e44:	54fffd4c 	b.gt	2dec <kprintf+0x1aac>
/home/avees/optee_local_build/Linux_for_Tegra/sources/tegra/optee-src/nv-optee/optee/optee_os/lib/libutils/ext/snprintk.c:608
    2e48:	14000017 	b	2ea4 <kprintf+0x1b64>
/home/avees/optee_local_build/Linux_for_Tegra/sources/tegra/optee-src/nv-optee/optee/optee_os/lib/libutils/ext/snprintk.c:609
    2e4c:	b94037e0 	ldr	w0, [sp, #52]
    2e50:	7100201f 	cmp	w0, #0x8
    2e54:	54000221 	b.ne	2e98 <kprintf+0x1b58>  // b.any
/home/avees/optee_local_build/Linux_for_Tegra/sources/tegra/optee-src/nv-optee/optee/optee_os/lib/libutils/ext/snprintk.c:609 (discriminator 1)
    2e58:	f94013e0 	ldr	x0, [sp, #32]
    2e5c:	f100001f 	cmp	x0, #0x0
    2e60:	540001c0 	b.eq	2e98 <kprintf+0x1b58>  // b.none
/home/avees/optee_local_build/Linux_for_Tegra/sources/tegra/optee-src/nv-optee/optee/optee_os/lib/libutils/ext/snprintk.c:609 (discriminator 2)
    2e64:	f94017e0 	ldr	x0, [sp, #40]
    2e68:	f100001f 	cmp	x0, #0x0
    2e6c:	540000a0 	b.eq	2e80 <kprintf+0x1b40>  // b.none
/home/avees/optee_local_build/Linux_for_Tegra/sources/tegra/optee-src/nv-optee/optee/optee_os/lib/libutils/ext/snprintk.c:609 (discriminator 4)
    2e70:	f94013e1 	ldr	x1, [sp, #32]
    2e74:	f9404be0 	ldr	x0, [sp, #144]
    2e78:	eb00003f 	cmp	x1, x0
    2e7c:	540000e2 	b.cs	2e98 <kprintf+0x1b58>  // b.hs, b.nlast
/home/avees/optee_local_build/Linux_for_Tegra/sources/tegra/optee-src/nv-optee/optee/optee_os/lib/libutils/ext/snprintk.c:609 (discriminator 5)
    2e80:	f94013e0 	ldr	x0, [sp, #32]
    2e84:	91000401 	add	x1, x0, #0x1
    2e88:	f90013e1 	str	x1, [sp, #32]
    2e8c:	f9403fe1 	ldr	x1, [sp, #120]
    2e90:	39400021 	ldrb	w1, [x1]
    2e94:	39000001 	strb	w1, [x0]
/home/avees/optee_local_build/Linux_for_Tegra/sources/tegra/optee-src/nv-optee/optee/optee_os/lib/libutils/ext/snprintk.c:608
    2e98:	f9403fe0 	ldr	x0, [sp, #120]
    2e9c:	91000400 	add	x0, x0, #0x1
    2ea0:	f9003fe0 	str	x0, [sp, #120]
/home/avees/optee_local_build/Linux_for_Tegra/sources/tegra/optee-src/nv-optee/optee/optee_os/lib/libutils/ext/snprintk.c:608 (discriminator 1)
    2ea4:	b9406fe0 	ldr	w0, [sp, #108]
    2ea8:	51000401 	sub	w1, w0, #0x1
    2eac:	b9006fe1 	str	w1, [sp, #108]
    2eb0:	7100001f 	cmp	w0, #0x0
    2eb4:	54fffcc1 	b.ne	2e4c <kprintf+0x1b0c>  // b.any
/home/avees/optee_local_build/Linux_for_Tegra/sources/tegra/optee-src/nv-optee/optee/optee_os/lib/libutils/ext/snprintk.c:611
    2eb8:	b94053e0 	ldr	w0, [sp, #80]
    2ebc:	121e0000 	and	w0, w0, #0x4
    2ec0:	7100001f 	cmp	w0, #0x0
    2ec4:	54ff2b00 	b.eq	1424 <kprintf+0xe4>  // b.none
/home/avees/optee_local_build/Linux_for_Tegra/sources/tegra/optee-src/nv-optee/optee/optee_os/lib/libutils/ext/snprintk.c:612
    2ec8:	b9405be1 	ldr	w1, [sp, #88]
    2ecc:	b9406be0 	ldr	w0, [sp, #104]
    2ed0:	4b000020 	sub	w0, w1, w0
    2ed4:	b9004fe0 	str	w0, [sp, #76]
/home/avees/optee_local_build/Linux_for_Tegra/sources/tegra/optee-src/nv-optee/optee/optee_os/lib/libutils/ext/snprintk.c:613
    2ed8:	14000013 	b	2f24 <kprintf+0x1be4>
/home/avees/optee_local_build/Linux_for_Tegra/sources/tegra/optee-src/nv-optee/optee/optee_os/lib/libutils/ext/snprintk.c:614
    2edc:	b94037e0 	ldr	w0, [sp, #52]
    2ee0:	7100201f 	cmp	w0, #0x8
    2ee4:	54000201 	b.ne	2f24 <kprintf+0x1be4>  // b.any
/home/avees/optee_local_build/Linux_for_Tegra/sources/tegra/optee-src/nv-optee/optee/optee_os/lib/libutils/ext/snprintk.c:614 (discriminator 1)
    2ee8:	f94013e0 	ldr	x0, [sp, #32]
    2eec:	f100001f 	cmp	x0, #0x0
    2ef0:	540001a0 	b.eq	2f24 <kprintf+0x1be4>  // b.none
/home/avees/optee_local_build/Linux_for_Tegra/sources/tegra/optee-src/nv-optee/optee/optee_os/lib/libutils/ext/snprintk.c:614 (discriminator 2)
    2ef4:	f94017e0 	ldr	x0, [sp, #40]
    2ef8:	f100001f 	cmp	x0, #0x0
    2efc:	540000a0 	b.eq	2f10 <kprintf+0x1bd0>  // b.none
/home/avees/optee_local_build/Linux_for_Tegra/sources/tegra/optee-src/nv-optee/optee/optee_os/lib/libutils/ext/snprintk.c:614 (discriminator 4)
    2f00:	f94013e1 	ldr	x1, [sp, #32]
    2f04:	f9404be0 	ldr	x0, [sp, #144]
    2f08:	eb00003f 	cmp	x1, x0
    2f0c:	540000c2 	b.cs	2f24 <kprintf+0x1be4>  // b.hs, b.nlast
/home/avees/optee_local_build/Linux_for_Tegra/sources/tegra/optee-src/nv-optee/optee/optee_os/lib/libutils/ext/snprintk.c:614 (discriminator 5)
    2f10:	f94013e0 	ldr	x0, [sp, #32]
    2f14:	91000401 	add	x1, x0, #0x1
    2f18:	f90013e1 	str	x1, [sp, #32]
    2f1c:	52800401 	mov	w1, #0x20                  	// #32
    2f20:	39000001 	strb	w1, [x0]
/home/avees/optee_local_build/Linux_for_Tegra/sources/tegra/optee-src/nv-optee/optee/optee_os/lib/libutils/ext/snprintk.c:613
    2f24:	b9404fe0 	ldr	w0, [sp, #76]
    2f28:	51000401 	sub	w1, w0, #0x1
    2f2c:	b9004fe1 	str	w1, [sp, #76]
    2f30:	7100001f 	cmp	w0, #0x0
    2f34:	54fffd4c 	b.gt	2edc <kprintf+0x1b9c>
/home/avees/optee_local_build/Linux_for_Tegra/sources/tegra/optee-src/nv-optee/optee/optee_os/lib/libutils/ext/snprintk.c:281
    2f38:	17fff93b 	b	1424 <kprintf+0xe4>
/home/avees/optee_local_build/Linux_for_Tegra/sources/tegra/optee-src/nv-optee/optee/optee_os/lib/libutils/ext/snprintk.c:286
    2f3c:	d503201f 	nop
    2f40:	14000002 	b	2f48 <kprintf+0x1c08>
/home/avees/optee_local_build/Linux_for_Tegra/sources/tegra/optee-src/nv-optee/optee/optee_os/lib/libutils/ext/snprintk.c:548
    2f44:	d503201f 	nop
/home/avees/optee_local_build/Linux_for_Tegra/sources/tegra/optee-src/nv-optee/optee/optee_os/lib/libutils/ext/snprintk.c:619
    2f48:	b94037e0 	ldr	w0, [sp, #52]
    2f4c:	7100201f 	cmp	w0, #0x8
    2f50:	540000e1 	b.ne	2f6c <kprintf+0x1c2c>  // b.any
/home/avees/optee_local_build/Linux_for_Tegra/sources/tegra/optee-src/nv-optee/optee/optee_os/lib/libutils/ext/snprintk.c:619 (discriminator 1)
    2f54:	f94017e0 	ldr	x0, [sp, #40]
    2f58:	f100001f 	cmp	x0, #0x0
    2f5c:	54000080 	b.eq	2f6c <kprintf+0x1c2c>  // b.none
/home/avees/optee_local_build/Linux_for_Tegra/sources/tegra/optee-src/nv-optee/optee/optee_os/lib/libutils/ext/snprintk.c:620
    2f60:	f94017e0 	ldr	x0, [sp, #40]
    2f64:	f94013e1 	ldr	x1, [sp, #32]
    2f68:	f9000001 	str	x1, [x0]
/home/avees/optee_local_build/Linux_for_Tegra/sources/tegra/optee-src/nv-optee/optee/optee_os/lib/libutils/ext/snprintk.c:621
    2f6c:	b94057e0 	ldr	w0, [sp, #84]
    2f70:	2a0003e1 	mov	w1, w0
/home/avees/optee_local_build/Linux_for_Tegra/sources/tegra/optee-src/nv-optee/optee/optee_os/lib/libutils/ext/snprintk.c:622
    2f74:	b0000100 	adrp	x0, 23000 <_DYNAMIC>
    2f78:	f9409800 	ldr	x0, [x0, #304]
    2f7c:	f94067e2 	ldr	x2, [sp, #200]
    2f80:	f9400003 	ldr	x3, [x0]
    2f84:	eb030042 	subs	x2, x2, x3
    2f88:	d2800003 	mov	x3, #0x0                   	// #0
    2f8c:	54000040 	b.eq	2f94 <kprintf+0x1c54>  // b.none
    2f90:	97fff561 	bl	514 <__stack_chk_fail>
    2f94:	2a0103e0 	mov	w0, w1
    2f98:	f9400bf3 	ldr	x19, [sp, #16]
    2f9c:	a8cd7bfd 	ldp	x29, x30, [sp], #208
    2fa0:	d65f03c0 	ret

0000000000002fa4 <memchr>:
memchr():
/home/avees/optee_local_build/Linux_for_Tegra/sources/tegra/optee-src/nv-optee/optee/optee_os/lib/libutils/isoc/newlib/memchr.c:107
    2fa4:	d10103ff 	sub	sp, sp, #0x40
    2fa8:	f9000fe0 	str	x0, [sp, #24]
    2fac:	b90017e1 	str	w1, [sp, #20]
    2fb0:	f90007e2 	str	x2, [sp, #8]
/home/avees/optee_local_build/Linux_for_Tegra/sources/tegra/optee-src/nv-optee/optee/optee_os/lib/libutils/isoc/newlib/memchr.c:108
    2fb4:	f9400fe0 	ldr	x0, [sp, #24]
    2fb8:	f90017e0 	str	x0, [sp, #40]
/home/avees/optee_local_build/Linux_for_Tegra/sources/tegra/optee-src/nv-optee/optee/optee_os/lib/libutils/isoc/newlib/memchr.c:109
    2fbc:	b94017e0 	ldr	w0, [sp, #20]
    2fc0:	39008fe0 	strb	w0, [sp, #35]
/home/avees/optee_local_build/Linux_for_Tegra/sources/tegra/optee-src/nv-optee/optee/optee_os/lib/libutils/isoc/newlib/memchr.c:116
    2fc4:	14000012 	b	300c <memchr+0x68>
/home/avees/optee_local_build/Linux_for_Tegra/sources/tegra/optee-src/nv-optee/optee/optee_os/lib/libutils/isoc/newlib/memchr.c:117
    2fc8:	f94007e0 	ldr	x0, [sp, #8]
    2fcc:	d1000401 	sub	x1, x0, #0x1
    2fd0:	f90007e1 	str	x1, [sp, #8]
    2fd4:	f100001f 	cmp	x0, #0x0
    2fd8:	54000061 	b.ne	2fe4 <memchr+0x40>  // b.any
/home/avees/optee_local_build/Linux_for_Tegra/sources/tegra/optee-src/nv-optee/optee/optee_os/lib/libutils/isoc/newlib/memchr.c:118
    2fdc:	d2800000 	mov	x0, #0x0                   	// #0
    2fe0:	1400005d 	b	3154 <memchr+0x1b0>
/home/avees/optee_local_build/Linux_for_Tegra/sources/tegra/optee-src/nv-optee/optee/optee_os/lib/libutils/isoc/newlib/memchr.c:119
    2fe4:	f94017e0 	ldr	x0, [sp, #40]
    2fe8:	39400000 	ldrb	w0, [x0]
    2fec:	39408fe1 	ldrb	w1, [sp, #35]
    2ff0:	6b00003f 	cmp	w1, w0
    2ff4:	54000061 	b.ne	3000 <memchr+0x5c>  // b.any
/home/avees/optee_local_build/Linux_for_Tegra/sources/tegra/optee-src/nv-optee/optee/optee_os/lib/libutils/isoc/newlib/memchr.c:120
    2ff8:	f94017e0 	ldr	x0, [sp, #40]
    2ffc:	14000056 	b	3154 <memchr+0x1b0>
/home/avees/optee_local_build/Linux_for_Tegra/sources/tegra/optee-src/nv-optee/optee/optee_os/lib/libutils/isoc/newlib/memchr.c:121
    3000:	f94017e0 	ldr	x0, [sp, #40]
    3004:	91000400 	add	x0, x0, #0x1
    3008:	f90017e0 	str	x0, [sp, #40]
/home/avees/optee_local_build/Linux_for_Tegra/sources/tegra/optee-src/nv-optee/optee/optee_os/lib/libutils/isoc/newlib/memchr.c:116
    300c:	f94017e0 	ldr	x0, [sp, #40]
    3010:	92400800 	and	x0, x0, #0x7
    3014:	f100001f 	cmp	x0, #0x0
    3018:	54fffd81 	b.ne	2fc8 <memchr+0x24>  // b.any
/home/avees/optee_local_build/Linux_for_Tegra/sources/tegra/optee-src/nv-optee/optee/optee_os/lib/libutils/isoc/newlib/memchr.c:124
    301c:	f94007e0 	ldr	x0, [sp, #8]
    3020:	f1001c1f 	cmp	x0, #0x7
    3024:	540008c9 	b.ls	313c <memchr+0x198>  // b.plast
/home/avees/optee_local_build/Linux_for_Tegra/sources/tegra/optee-src/nv-optee/optee/optee_os/lib/libutils/isoc/newlib/memchr.c:133
    3028:	f94017e0 	ldr	x0, [sp, #40]
    302c:	f9001be0 	str	x0, [sp, #48]
/home/avees/optee_local_build/Linux_for_Tegra/sources/tegra/optee-src/nv-optee/optee/optee_os/lib/libutils/isoc/newlib/memchr.c:134
    3030:	39408fe0 	ldrb	w0, [sp, #35]
    3034:	53185c01 	lsl	w1, w0, #8
    3038:	39408fe0 	ldrb	w0, [sp, #35]
    303c:	2a000020 	orr	w0, w1, w0
    3040:	93407c00 	sxtw	x0, w0
    3044:	f9001fe0 	str	x0, [sp, #56]
/home/avees/optee_local_build/Linux_for_Tegra/sources/tegra/optee-src/nv-optee/optee/optee_os/lib/libutils/isoc/newlib/memchr.c:135
    3048:	f9401fe0 	ldr	x0, [sp, #56]
    304c:	d370bc00 	lsl	x0, x0, #16
    3050:	f9401fe1 	ldr	x1, [sp, #56]
    3054:	aa000020 	orr	x0, x1, x0
    3058:	f9001fe0 	str	x0, [sp, #56]
/home/avees/optee_local_build/Linux_for_Tegra/sources/tegra/optee-src/nv-optee/optee/optee_os/lib/libutils/isoc/newlib/memchr.c:136
    305c:	52800400 	mov	w0, #0x20                  	// #32
    3060:	b90027e0 	str	w0, [sp, #36]
    3064:	1400000a 	b	308c <memchr+0xe8>
/home/avees/optee_local_build/Linux_for_Tegra/sources/tegra/optee-src/nv-optee/optee/optee_os/lib/libutils/isoc/newlib/memchr.c:137 (discriminator 3)
    3068:	b94027e0 	ldr	w0, [sp, #36]
    306c:	f9401fe1 	ldr	x1, [sp, #56]
    3070:	9ac02020 	lsl	x0, x1, x0
    3074:	f9401fe1 	ldr	x1, [sp, #56]
    3078:	aa000020 	orr	x0, x1, x0
    307c:	f9001fe0 	str	x0, [sp, #56]
/home/avees/optee_local_build/Linux_for_Tegra/sources/tegra/optee-src/nv-optee/optee/optee_os/lib/libutils/isoc/newlib/memchr.c:136 (discriminator 3)
    3080:	b94027e0 	ldr	w0, [sp, #36]
    3084:	531f7800 	lsl	w0, w0, #1
    3088:	b90027e0 	str	w0, [sp, #36]
/home/avees/optee_local_build/Linux_for_Tegra/sources/tegra/optee-src/nv-optee/optee/optee_os/lib/libutils/isoc/newlib/memchr.c:136 (discriminator 1)
    308c:	b94027e0 	ldr	w0, [sp, #36]
    3090:	7100fc1f 	cmp	w0, #0x3f
    3094:	54fffea9 	b.ls	3068 <memchr+0xc4>  // b.plast
/home/avees/optee_local_build/Linux_for_Tegra/sources/tegra/optee-src/nv-optee/optee/optee_os/lib/libutils/isoc/newlib/memchr.c:139
    3098:	14000017 	b	30f4 <memchr+0x150>
/home/avees/optee_local_build/Linux_for_Tegra/sources/tegra/optee-src/nv-optee/optee/optee_os/lib/libutils/isoc/newlib/memchr.c:140
    309c:	f9401be0 	ldr	x0, [sp, #48]
    30a0:	f9400001 	ldr	x1, [x0]
    30a4:	f9401fe0 	ldr	x0, [sp, #56]
    30a8:	ca000021 	eor	x1, x1, x0
