
/home/avees/optee_local_build/Linux_for_Tegra/sources/tegra/optee-src/nv-optee/optee/cp4ad-optee/T2.increment/build/ta/T2.increment/343594e3-d3a3-43e8-930a-706057d38957.elf:     file format elf64-littleaarch64
/home/avees/optee_local_build/Linux_for_Tegra/sources/tegra/optee-src/nv-optee/optee/cp4ad-optee/T2.increment/build/ta/T2.increment/343594e3-d3a3-43e8-930a-706057d38957.elf
architecture: aarch64, flags 0x00000150:
HAS_SYMS, DYNAMIC, D_PAGED
start address 0x0000000000000260

Program Header:
    LOAD off    0x0000000000001000 vaddr 0x0000000000000000 paddr 0x0000000000000000 align 2**12
         filesz 0x0000000000010c30 memsz 0x0000000000010c30 flags r-x
    LOAD off    0x0000000000012000 vaddr 0x0000000000011000 paddr 0x0000000000011000 align 2**12
         filesz 0x000000000000057c memsz 0x000000000000c620 flags rw-
 DYNAMIC off    0x0000000000012000 vaddr 0x0000000000011000 paddr 0x0000000000011000 align 2**3
         filesz 0x0000000000000110 memsz 0x0000000000000110 flags rw-
   STACK off    0x0000000000000000 vaddr 0x0000000000000000 paddr 0x0000000000000000 align 2**4
         filesz 0x0000000000000000 memsz 0x0000000000000000 flags rw-

Dynamic Section:
  HASH                 0x00000000000108b8
  GNU_HASH             0x00000000000107c8
  STRTAB               0x0000000000010888
  SYMTAB               0x00000000000107f8
  STRSZ                0x000000000000002e
  SYMENT               0x0000000000000018
  DEBUG                0x0000000000000000
  RELA                 0x00000000000108e8
  RELASZ               0x0000000000000528
  RELAENT              0x0000000000000018
  FLAGS_1              0x0000000008000000
  RELACOUNT            0x0000000000000023
private flags = 0:

Sections:
Idx Name          Size      VMA               LMA               File off  Algn
  0 .ta_head      00000020  0000000000000000  0000000000000000  00001000  2**3
                  CONTENTS, ALLOC, LOAD, READONLY, DATA
  1 .text         0000cad8  0000000000000020  0000000000000020  00001020  2**3
                  CONTENTS, ALLOC, LOAD, READONLY, CODE
  2 .eh_frame     000028c4  000000000000caf8  000000000000caf8  0000daf8  2**3
                  CONTENTS, ALLOC, LOAD, READONLY, DATA
  3 .rodata       00001408  000000000000f3c0  000000000000f3c0  000103c0  2**3
                  CONTENTS, ALLOC, LOAD, READONLY, DATA
  4 .gnu.hash     00000030  00000000000107c8  00000000000107c8  000117c8  2**3
                  CONTENTS, ALLOC, LOAD, READONLY, DATA
  5 .dynsym       00000090  00000000000107f8  00000000000107f8  000117f8  2**3
                  CONTENTS, ALLOC, LOAD, READONLY, DATA
  6 .dynstr       0000002e  0000000000010888  0000000000010888  00011888  2**0
                  CONTENTS, ALLOC, LOAD, READONLY, DATA
  7 .hash         0000002c  00000000000108b8  00000000000108b8  000118b8  2**3
                  CONTENTS, ALLOC, LOAD, READONLY, DATA
  8 .rela.dyn     00000348  00000000000108e8  00000000000108e8  000118e8  2**3
                  CONTENTS, ALLOC, LOAD, READONLY, DATA
  9 .dynamic      00000110  0000000000011000  0000000000011000  00012000  2**3
                  CONTENTS, ALLOC, LOAD, DATA
 10 .got          000000c0  0000000000011110  0000000000011110  00012110  2**3
                  CONTENTS, ALLOC, LOAD, DATA
 11 .rela.got     000001e0  00000000000111d0  00000000000111d0  000121d0  2**3
                  CONTENTS, ALLOC, LOAD, READONLY, DATA
 12 .data         000001cc  00000000000113b0  00000000000113b0  000123b0  2**3
                  CONTENTS, ALLOC, LOAD, DATA
 13 .bss          0000c0a0  0000000000011580  0000000000011580  0001257c  2**3
                  ALLOC
 14 .debug_info   00019e59  0000000000000000  0000000000000000  0001257c  2**0
                  CONTENTS, READONLY, DEBUGGING, OCTETS
 15 .debug_abbrev 0000405b  0000000000000000  0000000000000000  0002c3d5  2**0
                  CONTENTS, READONLY, DEBUGGING, OCTETS
 16 .debug_loc    000246e6  0000000000000000  0000000000000000  00030430  2**0
                  CONTENTS, READONLY, DEBUGGING, OCTETS
 17 .debug_aranges 00000950  0000000000000000  0000000000000000  00054b20  2**4
                  CONTENTS, READONLY, DEBUGGING, OCTETS
 18 .debug_macro  000179c0  0000000000000000  0000000000000000  00055470  2**0
                  CONTENTS, READONLY, DEBUGGING, OCTETS
 19 .debug_line   0000ed33  0000000000000000  0000000000000000  0006ce30  2**0
                  CONTENTS, READONLY, DEBUGGING, OCTETS
 20 .debug_str    0001a93e  0000000000000000  0000000000000000  0007bb63  2**0
                  CONTENTS, READONLY, DEBUGGING, OCTETS
 21 .comment      0000002b  0000000000000000  0000000000000000  000964a1  2**0
                  CONTENTS, READONLY
 22 .debug_ranges 00001d80  0000000000000000  0000000000000000  000964d0  2**4
                  CONTENTS, READONLY, DEBUGGING, OCTETS
SYMBOL TABLE:
0000000000000000 l    d  .ta_head	0000000000000000 .ta_head
0000000000000020 l    d  .text	0000000000000000 .text
000000000000caf8 l    d  .eh_frame	0000000000000000 .eh_frame
000000000000f3c0 l    d  .rodata	0000000000000000 .rodata
00000000000107c8 l    d  .gnu.hash	0000000000000000 .gnu.hash
00000000000107f8 l    d  .dynsym	0000000000000000 .dynsym
0000000000010888 l    d  .dynstr	0000000000000000 .dynstr
00000000000108b8 l    d  .hash	0000000000000000 .hash
00000000000108e8 l    d  .rela.dyn	0000000000000000 .rela.dyn
0000000000011000 l    d  .dynamic	0000000000000000 .dynamic
0000000000011110 l    d  .got	0000000000000000 .got
00000000000111d0 l    d  .rela.got	0000000000000000 .rela.got
00000000000113b0 l    d  .data	0000000000000000 .data
0000000000011580 l    d  .bss	0000000000000000 .bss
0000000000000000 l    d  .debug_info	0000000000000000 .debug_info
0000000000000000 l    d  .debug_abbrev	0000000000000000 .debug_abbrev
0000000000000000 l    d  .debug_loc	0000000000000000 .debug_loc
0000000000000000 l    d  .debug_aranges	0000000000000000 .debug_aranges
0000000000000000 l    d  .debug_macro	0000000000000000 .debug_macro
0000000000000000 l    d  .debug_line	0000000000000000 .debug_line
0000000000000000 l    d  .debug_str	0000000000000000 .debug_str
0000000000000000 l    d  .comment	0000000000000000 .comment
0000000000000000 l    d  .debug_ranges	0000000000000000 .debug_ranges
0000000000000000 l    df *ABS*	0000000000000000 user_ta_header.c
000000000000f3c8 l     O .rodata	0000000000000004 __compound_literal.7
000000000000f3cc l     O .rodata	0000000000000001 __compound_literal.6
000000000000f3d0 l     O .rodata	0000000000000004 __compound_literal.5
000000000000f3d4 l     O .rodata	0000000000000004 __compound_literal.4
000000000000f3d8 l     O .rodata	0000000000000004 __compound_literal.3
000000000000f3dc l     O .rodata	0000000000000001 __compound_literal.2
000000000000f3dd l     O .rodata	0000000000000001 __compound_literal.1
000000000000f3de l     O .rodata	0000000000000001 __compound_literal.0
0000000000000000 l    df *ABS*	0000000000000000 memcpy.c
0000000000000000 l    df *ABS*	0000000000000000 ta_increment.c
000000000000f87e l     O .rodata	0000000000000014 __func__.4581
000000000000f892 l     O .rodata	0000000000000015 __func__.4585
000000000000f8a7 l     O .rodata	0000000000000019 __func__.4591
000000000000f8c0 l     O .rodata	000000000000001a __func__.4595
000000000000f8da l     O .rodata	000000000000001b __func__.4603
0000000000000000 l    df *ABS*	0000000000000000 trace.c
000000000000027c l     F .text	000000000000010c append
000000000000fa8e l     O .rodata	0000000000000005 lvl_strs.3647
000000000000fa93 l     O .rodata	000000000000000a __func__.3709
0000000000000000 l    df *ABS*	0000000000000000 stack_check.c
0000000000000000 l    df *ABS*	0000000000000000 snprintk.c
0000000000000a5c l     F .text	0000000000000be0 kprintf.constprop.0
000000000000f4a2 l     O .rodata	0000000000000011 HEXDIGITS
000000000000f4b3 l     O .rodata	0000000000000011 hexdigits
0000000000000000 l    df *ABS*	0000000000000000 memchr.c
0000000000000000 l    df *ABS*	0000000000000000 strlen.c
0000000000000000 l    df *ABS*	0000000000000000 trace_ext.c
0000000000000000 l    df *ABS*	0000000000000000 user_ta_entry.c
00000000000018b0 l     F .text	00000000000000b0 _get_fn_array
0000000000001960 l     F .text	0000000000000090 _fini_iterate_phdr_cb
00000000000019f0 l     F .text	0000000000000028 ta_header_get_session
0000000000001a18 l     F .text	000000000000006c to_utee_params
0000000000001a84 l     F .text	000000000000005c from_utee_params
0000000000001ae0 l     F .text	0000000000000094 _init_iterate_phdr_cb
0000000000001cdc l     F .text	0000000000000098 ta_header_remove_session
000000000000fb3c l     O .rodata	0000000000000016 __func__.5424
0000000000011580 l     O .bss	0000000000000008 _num_mod_init
0000000000011588 l     O .bss	0000000000000001 init_done
00000000000114c0 l     O .data	0000000000000010 ta_sessions
00000000000114d0 l     O .data	0000000000000010 __phdr_info_head
0000000000000000 l    df *ABS*	0000000000000000 utee_syscalls_a64.o
0000000000000000 l    df *ABS*	0000000000000000 abort.c
0000000000000000 l    df *ABS*	0000000000000000 tee_api.c
00000000000022c8 l     F .text	000000000000006c copy_param
0000000000002334 l     F .text	0000000000000070 copy_gp11_param
00000000000023a4 l     F .text	0000000000000094 check_mem_access_rights_params
0000000000002438 l     F .text	0000000000000044 buf_overlaps_no_share_heap
000000000000247c l     F .text	00000000000000a8 check_invoke_param
0000000000002524 l     F .text	00000000000000a8 update_out_param
00000000000025cc l     F .text	00000000000000ac update_out_gp11_param
0000000000002848 l     F .text	000000000000019c map_tmp_param
00000000000115f0 l     O .bss	0000000000000008 tee_api_instance_data
000000000000f400 l     O .rodata	000000000000000b __func__.5460
0000000000000000 l    df *ABS*	0000000000000000 tee_api_arith_mpi.c
0000000000003388 l     F .text	0000000000000030 api_panic
00000000000033b8 l     F .text	0000000000000030 mpi_panic
00000000000033e8 l     F .text	0000000000000098 get_mpi
0000000000003480 l     F .text	0000000000000064 copy_mpi_to_bigint
00000000000034e4 l     F .text	000000000000014c bigint_binary
0000000000003630 l     F .text	0000000000000020 mpi_is_odd
0000000000003650 l     F .text	0000000000000028 rng_read
0000000000003678 l     F .text	0000000000000574 mpi_egcd
0000000000011600 l     O .bss	0000000000004000 data.5267
0000000000004118 l     F .text	00000000000001d0 bigint_binary_mod
000000000000fc33 l     O .rodata	0000000000000008 __func__.5301
000000000000fc3b l     O .rodata	000000000000000e __func__.5439
000000000000fc49 l     O .rodata	0000000000000009 __func__.5603
000000000000fc52 l     O .rodata	0000000000000012 __func__.5268
000000000000fc64 l     O .rodata	000000000000000f __func__.5307
000000000000fc73 l     O .rodata	000000000000001f __func__.5335
000000000000fc92 l     O .rodata	0000000000000019 __func__.5349
000000000000fcab l     O .rodata	0000000000000012 __func__.5458
000000000000fcbd l     O .rodata	0000000000000015 __func__.5380
000000000000fcd2 l     O .rodata	000000000000000e __func__.5479
000000000000fce0 l     O .rodata	000000000000000e __func__.5508
000000000000fcee l     O .rodata	000000000000000e __func__.5516
000000000000fcfc l     O .rodata	0000000000000011 __func__.5549
000000000000fd0d l     O .rodata	0000000000000018 __func__.5562
000000000000fd25 l     O .rodata	0000000000000011 __func__.5583
000000000000fd36 l     O .rodata	000000000000001d __func__.5660
000000000000fd53 l     O .rodata	0000000000000019 __func__.5733
000000000000fd6c l     O .rodata	0000000000000015 __func__.5748
0000000000000000 l    df *ABS*	0000000000000000 tee_api_panic.c
00000000000054b4 l     F .text	000000000000001c check_access
00000000000054d8 l     F .text	0000000000000044 check_res
000000000000fdec l     O .rodata	000000000000000a __func__.4914
0000000000000000 l    df *ABS*	0000000000000000 tee_api_property.c
00000000000057a0 l     F .text	000000000000006c propset_get
000000000000580c l     F .text	000000000000002c is_propset_pseudo_handle
0000000000005838 l     F .text	0000000000000148 propget_get_ext_prop
0000000000005980 l     F .text	00000000000001b0 propget_get_property
000000000000f4d4 l     O .rodata	0000000000000004 __compound_literal.3
000000000000f4d8 l     O .rodata	0000000000000004 __compound_literal.2
000000000000f4dc l     O .rodata	0000000000000004 __compound_literal.1
000000000000f4e0 l     O .rodata	0000000000000004 __compound_literal.0
0000000000000000 l    df *ABS*	0000000000000000 tee_system_pta.c
0000000000006718 l     F .text	0000000000000088 invoke_system_pta
000000000000f4e4 l     O .rodata	0000000000000010 uuid.4677
000000000000f4f4 l     O .rodata	000000000000000a __func__.4697
000000000000f4fe l     O .rodata	0000000000000017 __func__.4709
0000000000015600 l     O .bss	0000000000000008 sess.4676
0000000000000000 l    df *ABS*	0000000000000000 tcb.c
000000000000ff5b l     O .rodata	0000000000000010 __func__.4134
000000000000ff6b l     O .rodata	0000000000000010 __func__.4161
0000000000015608 l     O .bss	0000000000000008 _tls_size
0000000000015610 l     O .bss	0000000000000008 _tcb
0000000000000000 l    df *ABS*	0000000000000000 assert.c
0000000000000000 l    df *ABS*	0000000000000000 base64.c
000000000000f51c l     O .rodata	0000000000000041 base64_table
0000000000000000 l    df *ABS*	0000000000000000 bignum.c
0000000000007024 l     F .text	0000000000000064 mpi_get_digit
0000000000007088 l     F .text	000000000000040c mpi_mul_hlp
0000000000007494 l     F .text	0000000000000038 mpi_montg_init.isra.0
00000000000074cc l     F .text	00000000000000ac mpi_bigendian_to_host.part.0
0000000000007578 l     F .text	00000000000000c0 mpi_fill_random_internal
0000000000007638 l     F .text	0000000000000148 mpi_montmul.isra.0
0000000000007780 l     F .text	0000000000000078 mpi_montred
0000000000007984 l     F .text	000000000000006c mbedtls_mpi_resize_clear
00000000000096bc l     F .text	00000000000000c4 mpi_check_small_factors
000000000000a0a0 l     F .text	00000000000002a4 mpi_miller_rabin
000000000000f560 l     O .rodata	00000000000002a0 small_prime
000000000000f800 l     O .rodata	0000000000000024 gcd_pairs
0000000000000000 l    df *ABS*	0000000000000000 constant_time.c
000000000000b1b4 l     F .text	0000000000000020 mbedtls_ct_uchar_mask_of_range
0000000000000000 l    df *ABS*	0000000000000000 platform_util.c
0000000000011540 l     O .data	0000000000000008 memset_func
0000000000000000 l    df *ABS*	0000000000000000 bget_malloc.c
000000000000b994 l     F .text	0000000000000010 _assert_trap
000000000000b9a4 l     F .text	0000000000000028 bget_buf_size.part.0
00000000000106c2 l     O .rodata	000000000000000e __func__.4016
00000000000106d0 l     O .rodata	0000000000000005 __func__.3942
00000000000106d5 l     O .rodata	0000000000000006 __func__.3962
00000000000106db l     O .rodata	0000000000000005 __func__.3983
00000000000106e0 l     O .rodata	0000000000000006 __func__.3973
00000000000106e6 l     O .rodata	0000000000000006 __func__.3992
00000000000106ec l     O .rodata	0000000000000014 __func__.4202
0000000000010700 l     O .rodata	0000000000000013 __func__.4066
0000000000011548 l     O .data	0000000000000030 malloc_ctx
0000000000000000 l    df *ABS*	0000000000000000 snprintf.c
0000000000000000 l    df *ABS*	0000000000000000 memmove.c
0000000000000000 l    df *ABS*	0000000000000000 memset.c
0000000000000000 l    df *ABS*	0000000000000000 strcmp.c
0000000000000000 l    df *ABS*	0000000000000000 strlcpy.c
0000000000000000 l    df *ABS*	0000000000000000 mempool.c
000000000001079c l     O .rodata	0000000000000013 __func__.3748
00000000000107af l     O .rodata	000000000000000b __func__.3729
00000000000107ba l     O .rodata	000000000000000e __func__.3754
0000000000000000 l    df *ABS*	0000000000000000 consttime_memcmp.c
0000000000000000 l    df *ABS*	0000000000000000 
0000000000011000 l     O *ABS*	0000000000000000 _DYNAMIC
0000000000011128 l     O *ABS*	0000000000000000 _GLOBAL_OFFSET_TABLE_
0000000000001840 g     F .text	0000000000000070 putchar
0000000000003d6c g     F .text	0000000000000008 __GP11_TEE_BigIntConvertFromOctetString
0000000000005298 g     F .text	0000000000000004 TEE_BigIntConvertToFMM
0000000000004b0c g     F .text	000000000000000c TEE_BigIntSquareMod
00000000000042e8 g     F .text	00000000000001a0 TEE_BigIntShiftRight
000000000000c3c0 g     F .text	0000000000000110 raw_malloc_add_pool
0000000000006918 g     F .text	0000000000000110 tee_invoke_supp_plugin
000000000000789c g     F .text	00000000000000e8 mbedtls_mpi_grow
0000000000006488 g     F .text	0000000000000128 __GP11_TEE_GetPropertyName
0000000000003290 g     F .text	00000000000000d8 TEE_Realloc
0000000000005774 g     F .text	000000000000002c __utee_check_inout_annotation
000000000000c1a4 g     F .text	0000000000000010 raw_free
0000000000001700 g     F .text	0000000000000100 printf
0000000000004684 g     F .text	000000000000002c TEE_BigIntAbs
0000000000002014 g     F .text	000000000000000c _utee_log
0000000000002c80 g     F .text	0000000000000184 TEE_InvokeTACommand
000000000000551c g     F .text	0000000000000064 __utee_check_outbuf_annotation
0000000000007808 g     F .text	0000000000000028 mbedtls_mpi_init_mempool
0000000000002194 g     F .text	000000000000000c _utee_cryp_random_number_generate
0000000000008004 g     F .text	00000000000000c4 mbedtls_mpi_write_binary
0000000000000938 g     F .text	0000000000000058 vsnprintk
0000000000008880 g     F .text	0000000000000074 mbedtls_mpi_sub_int
000000000000c804 g     F .text	000000000000005c memmove
000000000000c6dc g     F .text	00000000000000d0 snprintf
000000000000409c g     F .text	000000000000007c TEE_BigIntCmpS32
0000000000002fa0 g     F .text	0000000000000008 __GP11_TEE_MemMove
00000000000114b8 g     O .data	0000000000000008 __stack_chk_guard
000000000000b6f8 g     F .text	000000000000027c mbedtls_ct_rsaes_pkcs1_v15_unpadding
00000000000079f0 g     F .text	0000000000000120 mbedtls_mpi_shrink
0000000000002fb8 g     F .text	0000000000000008 __GP11_TEE_MemFill
00000000000046b0 g     F .text	000000000000000c TEE_BigIntAdd
0000000000002134 g     F .text	000000000000000c _utee_cryp_obj_restrict_usage
000000000000f3e8 g     O .rodata	0000000000000008 ta_heap_size
00000000000021dc g     F .text	000000000000000c _utee_asymm_operate
0000000000006dcc g     F .text	0000000000000018 _base64_enc_len
0000000000008b48 g     F .text	000000000000020c mbedtls_mpi_read_string
00000000000046c8 g     F .text	00000000000000e4 TEE_BigIntNeg
0000000000002230 g     F .text	000000000000000c _utee_storage_free_enum
0000000000000020 g       .text	0000000000000000 __text_start
0000000000006638 g     F .text	00000000000000e0 TEE_GetNextProperty
00000000000081d8 g     F .text	00000000000000c0 mbedtls_mpi_shift_r
000000000000c6c8 g     F .text	0000000000000014 malloc_buffer_overlaps_heap
00000000000020e0 g     F .text	000000000000000c _utee_hash_init
0000000000004af4 g     F .text	000000000000000c TEE_BigIntSubMod
000000000000aa40 g     F .text	000000000000034c mbedtls_mpi_gen_prime
00000000000061b8 g     F .text	0000000000000098 TEE_GetPropertyAsBinaryBlock
0000000000007ccc g     F .text	000000000000002c mbedtls_mpi_get_bit
000000000000f3e0 g     O .rodata	0000000000000008 __ta_no_share_heap_size
0000000000007ec8 g     F .text	0000000000000084 mbedtls_mpi_read_binary
00000000000005d0 g     F .text	00000000000000e0 trace_printf
0000000000009788 g     F .text	0000000000000008 mbedtls_mpi_montmul
000000000000229c g     F .text	000000000000000c _utee_cache_operation
0000000000000020 g     F .text	00000000000000ec memcpy
000000000000529c g     F .text	00000000000000d0 TEE_BigIntConvertFromFMM
00000000000054d0 g     F .text	0000000000000008 TEE_Panic
0000000000001800 g     F .text	0000000000000040 puts
000000000000536c g     F .text	0000000000000148 TEE_BigIntComputeFMM
00000000000030dc g     F .text	0000000000000028 TEE_GetREETime
00000000000113b0 g     O .data	0000000000000108 ta_props
0000000000003228 g     F .text	0000000000000008 __GP11_TEE_Malloc
0000000000002b38 g     F .text	0000000000000148 __GP11_TEE_OpenTASession
00000000000055e4 g     F .text	000000000000003c __utee_check_instring_annotation
000000000000c2ec g     F .text	0000000000000018 malloc
0000000000006474 g     F .text	0000000000000004 TEE_FreePropertyEnumerator
000000000000b22c g     F .text	0000000000000010 mbedtls_ct_mpi_uint_mask
000000000000c7ac g     F .text	0000000000000058 vsnprintf
0000000000011578 g     O .data	0000000000000004 trace_level
0000000000004008 g     F .text	0000000000000094 TEE_BigIntCmp
000000000000f3c0 g     O .rodata	0000000000000008 ta_num_props
000000000000bfa0 g     F .text	00000000000000d0 bgetr
00000000000021f4 g     F .text	000000000000000c _utee_storage_obj_open
0000000000002fac g     F .text	0000000000000008 __GP11_TEE_MemCompare
000000000000ca74 g     F .text	0000000000000014 mempool_free
00000000000020ec g     F .text	000000000000000c _utee_hash_update
0000000000003d74 g     F .text	00000000000000c8 TEE_BigIntConvertToOctetString
0000000000007dd8 g     F .text	000000000000005c mbedtls_mpi_bitlen
0000000000004490 g     F .text	0000000000000080 TEE_BigIntGetBit
000000000000f3f0 g     O .rodata	0000000000000003 trace_ext_prefix
0000000000002254 g     F .text	000000000000000c _utee_storage_next_enum
000000000000c194 g     F .text	0000000000000010 raw_malloc
000000000000bc94 g     F .text	0000000000000088 bgetz
000000000000b23c g     F .text	0000000000000018 mbedtls_ct_size_bool_eq
0000000000002f90 g     F .text	000000000000000c TEE_GetInstanceData
0000000000002fe8 g     F .text	000000000000003c TEE_Wait
00000000000088f4 g     F .text	00000000000001ac mbedtls_mpi_mul_mpi
0000000000004488 g     F .text	0000000000000008 __GP11_TEE_BigIntShiftRight
0000000000003378 g     F .text	0000000000000008 TEE_CacheFlush
00000000000003b4 g     F .text	000000000000021c trace_vprintf
0000000000000140 g     F .text	0000000000000024 TA_DestroyEntryPoint
00000000000077f8 g     F .text	0000000000000010 mbedtls_mpi_init
000000000000220c g     F .text	000000000000000c _utee_storage_obj_del
0000000000007d84 g     F .text	0000000000000054 mbedtls_mpi_lsb
0000000000006d74 g     F .text	0000000000000044 _assert_log
00000000000020c8 g     F .text	000000000000000c _utee_cryp_state_copy
0000000000005278 g     F .text	0000000000000008 TEE_BigIntFMMContextSizeInU32
0000000000006850 g     F .text	00000000000000c8 tee_unmap
000000000000b270 g     F .text	0000000000000030 mbedtls_ct_uint_if
0000000000003bec g     F .text	0000000000000050 _TEE_MathAPI_Init
0000000000006a28 g     F .text	0000000000000240 __utee_tcb_init
00000000000086f8 g     F .text	0000000000000088 mbedtls_mpi_add_mpi
00000000000022a8 g     F .text	0000000000000020 abort
000000000000a344 g     F .text	00000000000001b8 mbedtls_mpi_random
0000000000000848 g     F .text	0000000000000030 __stack_chk_fail
00000000000056e8 g     F .text	000000000000002c __utee_check_out_annotation
0000000000015620 g     O .bss	0000000000008000 ta_heap
0000000000004b18 g     F .text	0000000000000150 TEE_BigIntInvMod
0000000000001b74 g     F .text	0000000000000158 __utee_call_elf_init_fn
000000000000019c g     F .text	0000000000000024 TA_CloseSessionEntryPoint
0000000000002050 g     F .text	000000000000000c _utee_close_ta_session
0000000000005240 g     F .text	0000000000000008 __GP11_TEE_BigIntInitFMMContext
0000000000008780 g     F .text	000000000000008c mbedtls_mpi_sub_mpi
000000000000ca88 g     F .text	0000000000000070 consttime_memcmp
0000000000002008 g     F .text	000000000000000c _utee_return
0000000000002020 g     F .text	000000000000000c __utee_panic
000000000000b1d4 g     F .text	0000000000000048 mbedtls_ct_memcmp
0000000000006c68 g     F .text	000000000000001c __tls_get_addr
00000000000001c0 g     F .text	00000000000000a0 TA_InvokeCommandEntryPoint
0000000000001ccc g     F .text	0000000000000010 __utee_call_elf_fini_fn
000000000000c37c g     F .text	0000000000000010 free_wipe
000000000000c9c0 g     F .text	0000000000000064 mempool_alloc
0000000000001ffc g     F .text	000000000000000c _utee_panic
000000000000c394 g     F .text	000000000000002c raw_malloc_init_ctx
000000000000ca24 g     F .text	0000000000000050 mempool_calloc
0000000000002290 g     F .text	000000000000000c _utee_cryp_obj_generate_key
0000000000002278 g     F .text	000000000000000c _utee_storage_obj_trunc
00000000000114e0 g     O .data	0000000000000060 tee_props
0000000000002080 g     F .text	000000000000000c _utee_unmask_cancellation
0000000000006420 g     F .text	000000000000000c TEE_ResetPropertyEnumerator
000000000000c304 g     F .text	000000000000001c calloc
0000000000003104 g     F .text	0000000000000124 TEE_Malloc
00000000000027c0 g     F .text	0000000000000088 TEE_CheckMemoryAccessRights
0000000000006250 g     F .text	00000000000000e8 TEE_GetPropertyAsUUID
000000000000202c g     F .text	000000000000000c _utee_get_property
0000000000004584 g     F .text	00000000000000b0 TEE_BigIntSetBit
0000000000007c64 g     F .text	0000000000000068 mbedtls_mpi_lset
0000000000000164 g     F .text	0000000000000038 TA_OpenSessionEntryPoint
0000000000006c84 g     F .text	00000000000000f0 dl_iterate_phdr
000000000001d620 g       .bss	0000000000000000 __ftrace_buf_end
0000000000011590 g     O .bss	0000000000000004 ta_param_types
0000000000009288 g     F .text	0000000000000074 mbedtls_mpi_div_int
000000000000a954 g     F .text	00000000000000dc mbedtls_mpi_is_prime_ext
00000000000051ac g     F .text	0000000000000084 TEE_BigIntIsProbablePrime
0000000000008aa0 g     F .text	00000000000000a8 mbedtls_mpi_mul_int
0000000000009794 g     F .text	00000000000006cc mbedtls_mpi_exp_mod
000000000000b448 g     F .text	00000000000000bc mbedtls_mpi_safe_cond_assign
0000000000005b30 g     F .text	000000000000025c TEE_GetPropertyAsString
000000000000b600 g     F .text	00000000000000f8 mbedtls_mpi_lt_mpi_ct
0000000000003c3c g     F .text	0000000000000060 TEE_BigIntInit
0000000000003e3c g     F .text	0000000000000060 __GP11_TEE_BigIntConvertToOctetString
0000000000004634 g     F .text	0000000000000050 TEE_BigIntAssign
0000000000005620 g     F .text	0000000000000064 __utee_check_outstring_annotation
0000000000002f9c g     F .text	0000000000000004 TEE_MemMove
000000000000b974 g     F .text	0000000000000020 mbedtls_platform_zeroize
0000000000003ca4 g     F .text	00000000000000c8 TEE_BigIntConvertFromOctetString
00000000000021d0 g     F .text	000000000000000c _utee_authenc_dec_final
0000000000008298 g     F .text	000000000000009c mbedtls_mpi_cmp_abs
0000000000002260 g     F .text	000000000000000c _utee_storage_obj_read
0000000000001688 g     F .text	000000000000002c memchr
0000000000002700 g     F .text	0000000000000060 TEE_UnmaskCancellation
000000000000ad8c g     F .text	0000000000000428 mbedtls_mpi_self_test
0000000000005580 g     F .text	0000000000000064 __utee_check_gp11_outbuf_annotation
0000000000002284 g     F .text	000000000000000c _utee_storage_obj_seek
0000000000002074 g     F .text	000000000000000c _utee_check_access_rights
0000000000002e04 g     F .text	0000000000000178 __GP11_TEE_InvokeTACommand
0000000000008408 g     F .text	0000000000000074 mbedtls_mpi_cmp_int
0000000000006f00 g     F .text	0000000000000124 _base64_dec
000000000000223c g     F .text	000000000000000c _utee_storage_reset_enum
000000000000b38c g     F .text	00000000000000bc mbedtls_ct_base64_dec_value
0000000000005714 g     F .text	0000000000000030 __utee_check_attr_in_annotation
00000000000021b8 g     F .text	000000000000000c _utee_authenc_update_payload
0000000000004a7c g     F .text	000000000000006c TEE_BigIntMod
00000000000093b0 g     F .text	000000000000009c mbedtls_mpi_mod_int
0000000000007e50 g     F .text	0000000000000078 mbedtls_mpi_read_binary_le
00000000000048c8 g     F .text	00000000000001b4 TEE_BigIntDiv
000000000000214c g     F .text	000000000000000c _utee_cryp_obj_alloc
000000000001d620 g       .bss	0000000000000000 __ftrace_buf_start
000000000000c8a0 g     F .text	0000000000000058 strlcpy
000000000000b2dc g     F .text	00000000000000b0 mbedtls_ct_base64_enc_char
0000000000007b10 g     F .text	00000000000000cc mbedtls_mpi_copy
0000000000006338 g     F .text	00000000000000e8 TEE_GetPropertyAsIdentity
000000000000163c g     F .text	000000000000004c __vsprintf
0000000000005fe4 g     F .text	00000000000000e8 TEE_GetPropertyAsU64
00000000000020b0 g     F .text	000000000000000c _utee_set_ta_time
000000000000205c g     F .text	000000000000000c _utee_invoke_ta_command
000000000000c320 g     F .text	0000000000000018 realloc
0000000000007bdc g     F .text	0000000000000088 mbedtls_mpi_swap
000000000000c8f8 g     F .text	00000000000000c8 mempool_alloc_pool
00000000000047ac g     F .text	0000000000000114 TEE_BigIntMul
000000000000c38c g     F .text	0000000000000008 raw_malloc_get_ctx_size
00000000000080c8 g     F .text	0000000000000110 mbedtls_mpi_shift_l
0000000000008334 g     F .text	00000000000000d4 mbedtls_mpi_cmp_mpi
0000000000002fb4 g     F .text	0000000000000004 TEE_MemFill
000000000000c6a0 g     F .text	0000000000000014 malloc_add_pool
00000000000003a4 g     F .text	0000000000000010 trace_get_level
000000000000847c g     F .text	0000000000000120 mbedtls_mpi_add_abs
0000000000005250 g     F .text	0000000000000010 TEE_BigIntFMMSizeInU32
0000000000005e24 g     F .text	00000000000000d8 TEE_GetPropertyAsBool
000000000000c204 g     F .text	00000000000000e8 raw_realloc
0000000000005230 g     F .text	0000000000000004 TEE_BigIntInitFMM
0000000000002104 g     F .text	000000000000000c _utee_cipher_init
0000000000001d74 g     F .text	0000000000000288 __utee_entry
0000000000005efc g     F .text	00000000000000e8 TEE_GetPropertyAsU32
000000000000caf8 g       .text	0000000000000000 __text_end
0000000000004c68 g     F .text	0000000000000108 TEE_BigIntRelativePrime
00000000000092fc g     F .text	00000000000000b4 mbedtls_mpi_mod_mpi
0000000000002128 g     F .text	000000000000000c _utee_cryp_obj_get_info
000000000000c070 g     F .text	00000000000000d0 bpool
000000000000642c g     F .text	0000000000000048 TEE_AllocatePropertyEnumerator
00000000000020bc g     F .text	000000000000000c _utee_cryp_state_alloc
00000000000026a0 g     F .text	0000000000000060 TEE_GetCancellationFlag
0000000000009e60 g     F .text	00000000000001d8 mbedtls_mpi_gcd
0000000000003098 g     F .text	0000000000000044 TEE_SetTAPersistentTime
0000000000007f4c g     F .text	00000000000000b8 mbedtls_mpi_write_binary_le
000000000000c860 g     F .text	000000000000001c memset
000000000000c140 g     F .text	0000000000000054 raw_memalign
0000000000003024 g     F .text	0000000000000074 TEE_GetTAPersistentTime
00000000000006b0 g     F .text	0000000000000198 dhex_dump
0000000000002760 g     F .text	0000000000000060 TEE_MaskCancellation
0000000000002140 g     F .text	000000000000000c _utee_cryp_obj_get_attr
000000000000211c g     F .text	000000000000000c _utee_cipher_final
0000000000000388 g     F .text	000000000000001c trace_set_level
000000000000b254 g     F .text	000000000000001c mbedtls_ct_mpi_uint_lt
00000000000020d4 g     F .text	000000000000000c _utee_cryp_state_free
000000000000c87c g     F .text	0000000000000024 strcmp
0000000000002044 g     F .text	000000000000000c _utee_open_ta_session
0000000000003f4c g     F .text	00000000000000bc TEE_BigIntConvertToS32
00000000000046bc g     F .text	000000000000000c TEE_BigIntSub
0000000000000274 g     F .text	0000000000000008 tahead_get_trace_level
0000000000002248 g     F .text	000000000000000c _utee_storage_start_enum
00000000000067a0 g     F .text	00000000000000b0 tee_map_zi
0000000000009790 g     F .text	0000000000000004 mbedtls_mpi_montred
000000000000c338 g     F .text	000000000000001c memalign
000000000000b21c g     F .text	0000000000000010 mbedtls_ct_uint_mask
0000000000003c9c g     F .text	0000000000000008 __GP11_TEE_BigIntInit
0000000000003e9c g     F .text	00000000000000b0 TEE_BigIntConvertFromS32
000000000000880c g     F .text	0000000000000074 mbedtls_mpi_add_int
00000000000021c4 g     F .text	000000000000000c _utee_authenc_enc_final
000000000000c6b4 g     F .text	0000000000000014 malloc_buffer_is_within_alloced
0000000000002158 g     F .text	000000000000000c _utee_cryp_obj_close
000000000000523c g     F .text	0000000000000004 TEE_BigIntInitFMMContext
000000000000208c g     F .text	000000000000000c _utee_mask_cancellation
0000000000011598 g     O .bss	0000000000000008 __ta_no_share_malloc_ctx
0000000000002218 g     F .text	000000000000000c _utee_storage_obj_rename
0000000000002f7c g     F .text	0000000000000008 __GP11_TEE_CheckMemoryAccessRights
00000000000048c0 g     F .text	0000000000000008 TEE_BigIntSquare
000000000000226c g     F .text	000000000000000c _utee_storage_obj_write
000000000000010c g     F .text	0000000000000034 TA_CreateEntryPoint
0000000000000260 g     F .text	0000000000000014 __ta_entry
000000000001d620 g     O .bss	0000000000000000 __ta_no_share_heap
00000000000021ac g     F .text	000000000000000c _utee_authenc_update_aad
0000000000009780 g     F .text	0000000000000008 mbedtls_mpi_montg_init
0000000000000990 g     F .text	00000000000000cc snprintk
0000000000004510 g     F .text	0000000000000074 TEE_BigIntGetBitCount
000000000000217c g     F .text	000000000000000c _utee_cryp_obj_copy
0000000000004b00 g     F .text	000000000000000c TEE_BigIntMulMod
000000000000a4fc g     F .text	0000000000000458 mbedtls_mpi_inv_mod
0000000000005744 g     F .text	0000000000000030 __utee_check_gp11_attr_in_annotation
00000000000115a0 g     O .bss	0000000000000040 ta_params
0000000000008d54 g     F .text	0000000000000534 mbedtls_mpi_div_mpi
0000000000005684 g     F .text	0000000000000064 __utee_check_gp11_outstring_annotation
0000000000007e34 g     F .text	000000000000001c mbedtls_mpi_size
000000000000b9cc g     F .text	00000000000002c8 bget
0000000000005280 g     F .text	0000000000000018 __GP11_TEE_BigIntFMMContextSizeInU32
0000000000006478 g     F .text	0000000000000010 TEE_StartPropertyEnumerator
0000000000002098 g     F .text	000000000000000c _utee_wait
0000000000007cf8 g     F .text	000000000000008c mbedtls_mpi_set_bit
0000000000003230 g     F .text	0000000000000060 TEE_Free
000000000000aa30 g     F .text	0000000000000010 mbedtls_mpi_is_prime
0000000000003380 g     F .text	0000000000000008 TEE_CacheInvalidate
0000000000006db8 g     F .text	0000000000000014 _assert_break
0000000000004ae8 g     F .text	000000000000000c TEE_BigIntAddMod
000000000000b2a0 g     F .text	000000000000003c mbedtls_ct_mpi_uint_cond_assign
0000000000005234 g     F .text	0000000000000008 __GP11_TEE_BigIntInitFMM
00000000000020a4 g     F .text	000000000000000c _utee_get_time
00000000000065b0 g     F .text	0000000000000088 TEE_GetPropertyName
0000000000003368 g     F .text	0000000000000008 __GP11_TEE_Realloc
0000000000002170 g     F .text	000000000000000c _utee_cryp_obj_populate
0000000000002fa8 g     F .text	0000000000000004 TEE_MemCompare
0000000000002110 g     F .text	000000000000000c _utee_cipher_update
0000000000000878 g     F .text	00000000000000c0 __vsnprintf
00000000000115e0 g     O .bss	0000000000000010 __elf_phdr_info
00000000000029e4 g     F .text	0000000000000154 TEE_OpenTASession
00000000000016d0 g     F .text	0000000000000028 trace_ext_puts
0000000000005d8c g     F .text	0000000000000098 __GP11_TEE_GetPropertyAsString
000000000000c550 g     F .text	0000000000000150 raw_malloc_buffer_is_within_alloced
00000000000016f8 g     F .text	0000000000000008 trace_ext_get_thread_id
000000000000c4d0 g     F .text	0000000000000080 raw_malloc_buffer_overlaps_heap
0000000000002188 g     F .text	000000000000000c _utee_cryp_derive_key
0000000000007830 g     F .text	000000000000006c mbedtls_mpi_free
0000000000002164 g     F .text	000000000000000c _utee_cryp_obj_reset
0000000000003370 g     F .text	0000000000000008 TEE_CacheClean
0000000000002038 g     F .text	000000000000000c _utee_get_property_name_to_index
000000000000c1b4 g     F .text	0000000000000050 raw_calloc
0000000000006de4 g     F .text	000000000000011c _base64_enc
000000000000b504 g     F .text	00000000000000fc mbedtls_mpi_safe_cond_swap
00000000000021a0 g     F .text	000000000000000c _utee_authenc_init
00000000000016b4 g     F .text	000000000000001c strlen
0000000000004f44 g     F .text	0000000000000268 TEE_BigIntComputeExtendedGcd
0000000000002224 g     F .text	000000000000000c _utee_storage_alloc_enum
0000000000004d70 g     F .text	00000000000001d4 TEE_BigIntExpMod
0000000000002fc0 g     F .text	0000000000000028 TEE_GetSystemTime
00000000000021e8 g     F .text	000000000000000c _utee_asymm_verify
0000000000000000 g     O .ta_head	0000000000000020 ta_head
000000000000bd1c g     F .text	0000000000000284 brel
00000000000060cc g     F .text	00000000000000ec __GP11_TEE_GetPropertyAsBinaryBlock
000000000000859c g     F .text	000000000000015c mbedtls_mpi_sub_abs
000000000000a038 g     F .text	0000000000000068 mbedtls_mpi_fill_random
0000000000002f84 g     F .text	000000000000000c TEE_SetInstanceData
0000000000002068 g     F .text	000000000000000c _utee_get_cancellation_flag
000000000000944c g     F .text	0000000000000270 mbedtls_mpi_write_string
000000000000c354 g     F .text	0000000000000018 aligned_alloc
0000000000005248 g     F .text	0000000000000008 TEE_BigIntInitFMMContext1
0000000000002678 g     F .text	0000000000000028 TEE_CloseTASession
0000000000002200 g     F .text	000000000000000c _utee_storage_obj_create
0000000000005260 g     F .text	0000000000000018 __GP11_TEE_BigIntFMMSizeInU32
000000000000c36c g     F .text	0000000000000010 free
0000000000015618 g     O .bss	0000000000000008 mbedtls_mpi_mempool
00000000000020f8 g     F .text	000000000000000c _utee_hash_final



Disassembly of section .text:

0000000000000020 <memcpy>:
memcpy():
/home/avees/optee_local_build/Linux_for_Tegra/sources/tegra/optee-src/nv-optee/optee/optee_os/lib/libutils/isoc/newlib/memcpy.c:106
      20:	f1007c5f 	cmp	x2, #0x1f
      24:	54000629 	b.ls	e8 <memcpy+0xc8>  // b.plast
/home/avees/optee_local_build/Linux_for_Tegra/sources/tegra/optee-src/nv-optee/optee/optee_os/lib/libutils/isoc/newlib/memcpy.c:106 (discriminator 1)
      28:	aa000025 	orr	x5, x1, x0
      2c:	f24008a5 	ands	x5, x5, #0x7
      30:	54000641 	b.ne	f8 <memcpy+0xd8>  // b.any
      34:	d1008048 	sub	x8, x2, #0x20
/home/avees/optee_local_build/Linux_for_Tegra/sources/tegra/optee-src/nv-optee/optee/optee_os/lib/libutils/isoc/newlib/memcpy.c:108
      38:	aa0103e4 	mov	x4, x1
      3c:	927be908 	and	x8, x8, #0xffffffffffffffe0
/home/avees/optee_local_build/Linux_for_Tegra/sources/tegra/optee-src/nv-optee/optee/optee_os/lib/libutils/isoc/newlib/memcpy.c:107
      40:	aa0003e3 	mov	x3, x0
      44:	91008108 	add	x8, x8, #0x20
      48:	8b080007 	add	x7, x0, x8
      4c:	d503201f 	nop
/home/avees/optee_local_build/Linux_for_Tegra/sources/tegra/optee-src/nv-optee/optee/optee_os/lib/libutils/isoc/newlib/memcpy.c:112
      50:	f9400086 	ldr	x6, [x4]
      54:	f9000066 	str	x6, [x3]
/home/avees/optee_local_build/Linux_for_Tegra/sources/tegra/optee-src/nv-optee/optee/optee_os/lib/libutils/isoc/newlib/memcpy.c:113
      58:	91008084 	add	x4, x4, #0x20
      5c:	91008063 	add	x3, x3, #0x20
      60:	f85e8086 	ldur	x6, [x4, #-24]
      64:	f81e8066 	stur	x6, [x3, #-24]
/home/avees/optee_local_build/Linux_for_Tegra/sources/tegra/optee-src/nv-optee/optee/optee_os/lib/libutils/isoc/newlib/memcpy.c:114
      68:	f85f0086 	ldur	x6, [x4, #-16]
      6c:	f81f0066 	stur	x6, [x3, #-16]
/home/avees/optee_local_build/Linux_for_Tegra/sources/tegra/optee-src/nv-optee/optee/optee_os/lib/libutils/isoc/newlib/memcpy.c:111
      70:	eb0300ff 	cmp	x7, x3
/home/avees/optee_local_build/Linux_for_Tegra/sources/tegra/optee-src/nv-optee/optee/optee_os/lib/libutils/isoc/newlib/memcpy.c:115
      74:	f85f8086 	ldur	x6, [x4, #-8]
      78:	f81f8066 	stur	x6, [x3, #-8]
/home/avees/optee_local_build/Linux_for_Tegra/sources/tegra/optee-src/nv-optee/optee/optee_os/lib/libutils/isoc/newlib/memcpy.c:111
      7c:	54fffea1 	b.ne	50 <memcpy+0x30>  // b.any
      80:	8b080021 	add	x1, x1, x8
/home/avees/optee_local_build/Linux_for_Tegra/sources/tegra/optee-src/nv-optee/optee/optee_os/lib/libutils/isoc/newlib/memcpy.c:120
      84:	f27d045f 	tst	x2, #0x18
      88:	92401044 	and	x4, x2, #0x1f
      8c:	540003c0 	b.eq	104 <memcpy+0xe4>  // b.none
/home/avees/optee_local_build/Linux_for_Tegra/sources/tegra/optee-src/nv-optee/optee/optee_os/lib/libutils/isoc/newlib/memcpy.c:121
      90:	f8656826 	ldr	x6, [x1, x5]
      94:	f8256866 	str	x6, [x3, x5]
/home/avees/optee_local_build/Linux_for_Tegra/sources/tegra/optee-src/nv-optee/optee/optee_os/lib/libutils/isoc/newlib/memcpy.c:120
      98:	910020a5 	add	x5, x5, #0x8
      9c:	cb050086 	sub	x6, x4, x5
      a0:	f1001cdf 	cmp	x6, #0x7
      a4:	54ffff68 	b.hi	90 <memcpy+0x70>  // b.pmore
      a8:	d1002084 	sub	x4, x4, #0x8
      ac:	92400842 	and	x2, x2, #0x7
      b0:	927df084 	and	x4, x4, #0xfffffffffffffff8
/home/avees/optee_local_build/Linux_for_Tegra/sources/tegra/optee-src/nv-optee/optee/optee_os/lib/libutils/isoc/newlib/memcpy.c:130
      b4:	d1000446 	sub	x6, x2, #0x1
      b8:	91002084 	add	x4, x4, #0x8
      bc:	8b040063 	add	x3, x3, x4
      c0:	8b040021 	add	x1, x1, x4
      c4:	b4000102 	cbz	x2, e4 <memcpy+0xc4>
/home/avees/optee_local_build/Linux_for_Tegra/sources/tegra/optee-src/nv-optee/optee/optee_os/lib/libutils/isoc/newlib/memcpy.c:99
      c8:	d2800002 	mov	x2, #0x0                   	// #0
      cc:	d503201f 	nop
/home/avees/optee_local_build/Linux_for_Tegra/sources/tegra/optee-src/nv-optee/optee/optee_os/lib/libutils/isoc/newlib/memcpy.c:131
      d0:	38626825 	ldrb	w5, [x1, x2]
/home/avees/optee_local_build/Linux_for_Tegra/sources/tegra/optee-src/nv-optee/optee/optee_os/lib/libutils/isoc/newlib/memcpy.c:130
      d4:	eb0200df 	cmp	x6, x2
/home/avees/optee_local_build/Linux_for_Tegra/sources/tegra/optee-src/nv-optee/optee/optee_os/lib/libutils/isoc/newlib/memcpy.c:131
      d8:	38226865 	strb	w5, [x3, x2]
/home/avees/optee_local_build/Linux_for_Tegra/sources/tegra/optee-src/nv-optee/optee/optee_os/lib/libutils/isoc/newlib/memcpy.c:130
      dc:	91000442 	add	x2, x2, #0x1
      e0:	54ffff81 	b.ne	d0 <memcpy+0xb0>  // b.any
/home/avees/optee_local_build/Linux_for_Tegra/sources/tegra/optee-src/nv-optee/optee/optee_os/lib/libutils/isoc/newlib/memcpy.c:135
      e4:	d65f03c0 	ret
/home/avees/optee_local_build/Linux_for_Tegra/sources/tegra/optee-src/nv-optee/optee/optee_os/lib/libutils/isoc/newlib/memcpy.c:99
      e8:	aa0003e3 	mov	x3, x0
/home/avees/optee_local_build/Linux_for_Tegra/sources/tegra/optee-src/nv-optee/optee/optee_os/lib/libutils/isoc/newlib/memcpy.c:130
      ec:	d1000446 	sub	x6, x2, #0x1
      f0:	b5fffec2 	cbnz	x2, c8 <memcpy+0xa8>
/home/avees/optee_local_build/Linux_for_Tegra/sources/tegra/optee-src/nv-optee/optee/optee_os/lib/libutils/isoc/newlib/memcpy.c:135
      f4:	d65f03c0 	ret
/home/avees/optee_local_build/Linux_for_Tegra/sources/tegra/optee-src/nv-optee/optee/optee_os/lib/libutils/isoc/newlib/memcpy.c:130
      f8:	d1000446 	sub	x6, x2, #0x1
/home/avees/optee_local_build/Linux_for_Tegra/sources/tegra/optee-src/nv-optee/optee/optee_os/lib/libutils/isoc/newlib/memcpy.c:99
      fc:	aa0003e3 	mov	x3, x0
     100:	17fffff2 	b	c8 <memcpy+0xa8>
/home/avees/optee_local_build/Linux_for_Tegra/sources/tegra/optee-src/nv-optee/optee/optee_os/lib/libutils/isoc/newlib/memcpy.c:120
     104:	aa0403e2 	mov	x2, x4
     108:	17fffff9 	b	ec <memcpy+0xcc>

000000000000010c <TA_CreateEntryPoint>:
TA_CreateEntryPoint():
/home/avees/optee_local_build/Linux_for_Tegra/sources/tegra/optee-src/nv-optee/optee/cp4ad-optee/T2.increment/ta/ta_increment.c:7
     10c:	a9bf7bfd 	stp	x29, x30, [sp, #-16]!
/home/avees/optee_local_build/Linux_for_Tegra/sources/tegra/optee-src/nv-optee/optee/cp4ad-optee/T2.increment/ta/ta_increment.c:8
     110:	52800023 	mov	w3, #0x1                   	// #1
     114:	52800062 	mov	w2, #0x3                   	// #3
/home/avees/optee_local_build/Linux_for_Tegra/sources/tegra/optee-src/nv-optee/optee/cp4ad-optee/T2.increment/ta/ta_increment.c:7
     118:	910003fd 	mov	x29, sp
/home/avees/optee_local_build/Linux_for_Tegra/sources/tegra/optee-src/nv-optee/optee/cp4ad-optee/T2.increment/ta/ta_increment.c:8
     11c:	52800101 	mov	w1, #0x8                   	// #8
     120:	f0000064 	adrp	x4, f000 <__text_end+0x2508>
     124:	f0000060 	adrp	x0, f000 <__text_end+0x2508>
     128:	91209084 	add	x4, x4, #0x824
     12c:	9121f800 	add	x0, x0, #0x87e
     130:	94000128 	bl	5d0 <trace_printf>
/home/avees/optee_local_build/Linux_for_Tegra/sources/tegra/optee-src/nv-optee/optee/cp4ad-optee/T2.increment/ta/ta_increment.c:10
     134:	52800000 	mov	w0, #0x0                   	// #0
     138:	a8c17bfd 	ldp	x29, x30, [sp], #16
     13c:	d65f03c0 	ret

0000000000000140 <TA_DestroyEntryPoint>:
TA_DestroyEntryPoint():
/home/avees/optee_local_build/Linux_for_Tegra/sources/tegra/optee-src/nv-optee/optee/cp4ad-optee/T2.increment/ta/ta_increment.c:13
     140:	f0000060 	adrp	x0, f000 <__text_end+0x2508>
     144:	9121f800 	add	x0, x0, #0x87e
     148:	91005000 	add	x0, x0, #0x14
     14c:	f0000064 	adrp	x4, f000 <__text_end+0x2508>
     150:	52800023 	mov	w3, #0x1                   	// #1
     154:	9120c084 	add	x4, x4, #0x830
     158:	52800062 	mov	w2, #0x3                   	// #3
     15c:	528001a1 	mov	w1, #0xd                   	// #13
     160:	1400011c 	b	5d0 <trace_printf>

0000000000000164 <TA_OpenSessionEntryPoint>:
TA_OpenSessionEntryPoint():
/home/avees/optee_local_build/Linux_for_Tegra/sources/tegra/optee-src/nv-optee/optee/cp4ad-optee/T2.increment/ta/ta_increment.c:16
     164:	a9bf7bfd 	stp	x29, x30, [sp, #-16]!
/home/avees/optee_local_build/Linux_for_Tegra/sources/tegra/optee-src/nv-optee/optee/cp4ad-optee/T2.increment/ta/ta_increment.c:20
     168:	f0000060 	adrp	x0, f000 <__text_end+0x2508>
     16c:	9121f800 	add	x0, x0, #0x87e
/home/avees/optee_local_build/Linux_for_Tegra/sources/tegra/optee-src/nv-optee/optee/cp4ad-optee/T2.increment/ta/ta_increment.c:16
     170:	910003fd 	mov	x29, sp
/home/avees/optee_local_build/Linux_for_Tegra/sources/tegra/optee-src/nv-optee/optee/cp4ad-optee/T2.increment/ta/ta_increment.c:20
     174:	9100a400 	add	x0, x0, #0x29
     178:	52800023 	mov	w3, #0x1                   	// #1
     17c:	52800042 	mov	w2, #0x2                   	// #2
     180:	52800281 	mov	w1, #0x14                  	// #20
     184:	f0000064 	adrp	x4, f000 <__text_end+0x2508>
     188:	9120f884 	add	x4, x4, #0x83e
     18c:	94000111 	bl	5d0 <trace_printf>
/home/avees/optee_local_build/Linux_for_Tegra/sources/tegra/optee-src/nv-optee/optee/cp4ad-optee/T2.increment/ta/ta_increment.c:22
     190:	52800000 	mov	w0, #0x0                   	// #0
     194:	a8c17bfd 	ldp	x29, x30, [sp], #16
     198:	d65f03c0 	ret

000000000000019c <TA_CloseSessionEntryPoint>:
TA_CloseSessionEntryPoint():
/home/avees/optee_local_build/Linux_for_Tegra/sources/tegra/optee-src/nv-optee/optee/cp4ad-optee/T2.increment/ta/ta_increment.c:26
     19c:	f0000060 	adrp	x0, f000 <__text_end+0x2508>
     1a0:	9121f800 	add	x0, x0, #0x87e
     1a4:	91010800 	add	x0, x0, #0x42
     1a8:	f0000064 	adrp	x4, f000 <__text_end+0x2508>
     1ac:	52800023 	mov	w3, #0x1                   	// #1
     1b0:	91213884 	add	x4, x4, #0x84e
     1b4:	52800042 	mov	w2, #0x2                   	// #2
     1b8:	52800341 	mov	w1, #0x1a                  	// #26
     1bc:	14000105 	b	5d0 <trace_printf>

00000000000001c0 <TA_InvokeCommandEntryPoint>:
TA_InvokeCommandEntryPoint():
/home/avees/optee_local_build/Linux_for_Tegra/sources/tegra/optee-src/nv-optee/optee/cp4ad-optee/T2.increment/ta/ta_increment.c:30
     1c0:	a9be7bfd 	stp	x29, x30, [sp, #-32]!
     1c4:	910003fd 	mov	x29, sp
     1c8:	a90153f3 	stp	x19, x20, [sp, #16]
     1cc:	2a0103f3 	mov	w19, w1
     1d0:	aa0303f4 	mov	x20, x3
/home/avees/optee_local_build/Linux_for_Tegra/sources/tegra/optee-src/nv-optee/optee/cp4ad-optee/T2.increment/ta/ta_increment.c:35
     1d4:	34000101 	cbz	w1, 1f4 <TA_InvokeCommandEntryPoint+0x34>
     1d8:	7100043f 	cmp	w1, #0x1
     1dc:	54000260 	b.eq	228 <TA_InvokeCommandEntryPoint+0x68>  // b.none
     1e0:	129fff33 	mov	w19, #0xffff0006            	// #-65530
/home/avees/optee_local_build/Linux_for_Tegra/sources/tegra/optee-src/nv-optee/optee/cp4ad-optee/T2.increment/ta/ta_increment.c:47
     1e4:	2a1303e0 	mov	w0, w19
     1e8:	a94153f3 	ldp	x19, x20, [sp, #16]
     1ec:	a8c27bfd 	ldp	x29, x30, [sp], #32
     1f0:	d65f03c0 	ret
/home/avees/optee_local_build/Linux_for_Tegra/sources/tegra/optee-src/nv-optee/optee/cp4ad-optee/T2.increment/ta/ta_increment.c:37
     1f4:	f0000060 	adrp	x0, f000 <__text_end+0x2508>
     1f8:	9121f800 	add	x0, x0, #0x87e
     1fc:	91017000 	add	x0, x0, #0x5c
     200:	f0000064 	adrp	x4, f000 <__text_end+0x2508>
     204:	52800023 	mov	w3, #0x1                   	// #1
     208:	91217884 	add	x4, x4, #0x85e
     20c:	52800042 	mov	w2, #0x2                   	// #2
     210:	528004a1 	mov	w1, #0x25                  	// #37
     214:	940000ef 	bl	5d0 <trace_printf>
/home/avees/optee_local_build/Linux_for_Tegra/sources/tegra/optee-src/nv-optee/optee/cp4ad-optee/T2.increment/ta/ta_increment.c:38
     218:	b9400280 	ldr	w0, [x20]
     21c:	11000400 	add	w0, w0, #0x1
     220:	b9000280 	str	w0, [x20]
/home/avees/optee_local_build/Linux_for_Tegra/sources/tegra/optee-src/nv-optee/optee/cp4ad-optee/T2.increment/ta/ta_increment.c:39
     224:	17fffff0 	b	1e4 <TA_InvokeCommandEntryPoint+0x24>
/home/avees/optee_local_build/Linux_for_Tegra/sources/tegra/optee-src/nv-optee/optee/cp4ad-optee/T2.increment/ta/ta_increment.c:41
     228:	f0000060 	adrp	x0, f000 <__text_end+0x2508>
     22c:	9121f800 	add	x0, x0, #0x87e
     230:	2a0103e3 	mov	w3, w1
     234:	91017000 	add	x0, x0, #0x5c
     238:	f0000064 	adrp	x4, f000 <__text_end+0x2508>
     23c:	52800042 	mov	w2, #0x2                   	// #2
     240:	9121b884 	add	x4, x4, #0x86e
     244:	52800521 	mov	w1, #0x29                  	// #41
     248:	940000e2 	bl	5d0 <trace_printf>
/home/avees/optee_local_build/Linux_for_Tegra/sources/tegra/optee-src/nv-optee/optee/cp4ad-optee/T2.increment/ta/ta_increment.c:43
     24c:	52800013 	mov	w19, #0x0                   	// #0
/home/avees/optee_local_build/Linux_for_Tegra/sources/tegra/optee-src/nv-optee/optee/cp4ad-optee/T2.increment/ta/ta_increment.c:42
     250:	b9400280 	ldr	w0, [x20]
     254:	51000400 	sub	w0, w0, #0x1
     258:	b9000280 	str	w0, [x20]
/home/avees/optee_local_build/Linux_for_Tegra/sources/tegra/optee-src/nv-optee/optee/cp4ad-optee/T2.increment/ta/ta_increment.c:43
     25c:	17ffffe2 	b	1e4 <TA_InvokeCommandEntryPoint+0x24>

0000000000000260 <__ta_entry>:
__ta_entry():
/home/avees/optee_local_build/Linux_for_Tegra/sources/tegra/optee-src/nv-optee/optee/build/t234/export-ta_arm64/src/user_ta_header.c:51
     260:	a9bf7bfd 	stp	x29, x30, [sp, #-16]!
     264:	910003fd 	mov	x29, sp
/home/avees/optee_local_build/Linux_for_Tegra/sources/tegra/optee-src/nv-optee/optee/build/t234/export-ta_arm64/src/user_ta_header.c:70
     268:	940006c3 	bl	1d74 <__utee_entry>
/home/avees/optee_local_build/Linux_for_Tegra/sources/tegra/optee-src/nv-optee/optee/build/t234/export-ta_arm64/src/user_ta_header.c:81
     26c:	2a0003e0 	mov	w0, w0
     270:	94000766 	bl	2008 <_utee_return>

0000000000000274 <tahead_get_trace_level>:
tahead_get_trace_level():
/home/avees/optee_local_build/Linux_for_Tegra/sources/tegra/optee-src/nv-optee/optee/build/t234/export-ta_arm64/src/user_ta_header.c:193
     274:	52800060 	mov	w0, #0x3                   	// #3
     278:	d65f03c0 	ret

000000000000027c <append>:
append():
/home/avees/optee_local_build/Linux_for_Tegra/sources/tegra/optee-src/nv-optee/optee/optee_os/lib/libutils/ext/trace.c:211
     27c:	a9ad7bfd 	stp	x29, x30, [sp, #-304]!
     280:	910003fd 	mov	x29, sp
     284:	a9100fe2 	stp	x2, x3, [sp, #256]
     288:	b0000082 	adrp	x2, 11000 <_DYNAMIC>
     28c:	f9409842 	ldr	x2, [x2, #304]
     290:	a90153f3 	stp	x19, x20, [sp, #16]
     294:	aa0003f3 	mov	x19, x0
     298:	3d8023e0 	str	q0, [sp, #128]
     29c:	3d8027e1 	str	q1, [sp, #144]
     2a0:	3d802be2 	str	q2, [sp, #160]
     2a4:	3d802fe3 	str	q3, [sp, #176]
     2a8:	3d8033e4 	str	q4, [sp, #192]
     2ac:	3d8037e5 	str	q5, [sp, #208]
     2b0:	3d803be6 	str	q6, [sp, #224]
     2b4:	3d803fe7 	str	q7, [sp, #240]
     2b8:	a91117e4 	stp	x4, x5, [sp, #272]
     2bc:	a9121fe6 	stp	x6, x7, [sp, #288]
     2c0:	f9400040 	ldr	x0, [x2]
     2c4:	f9003fe0 	str	x0, [sp, #120]
     2c8:	d2800000 	mov	x0, #0x0                   	// #0
     2cc:	f90013f5 	str	x21, [sp, #32]
/home/avees/optee_local_build/Linux_for_Tegra/sources/tegra/optee-src/nv-optee/optee/optee_os/lib/libutils/ext/trace.c:216
     2d0:	f9408260 	ldr	x0, [x19, #256]
/home/avees/optee_local_build/Linux_for_Tegra/sources/tegra/optee-src/nv-optee/optee/optee_os/lib/libutils/ext/trace.c:211
     2d4:	aa0103f5 	mov	x21, x1
/home/avees/optee_local_build/Linux_for_Tegra/sources/tegra/optee-src/nv-optee/optee/optee_os/lib/libutils/ext/trace.c:216
     2d8:	b5000040 	cbnz	x0, 2e0 <append+0x64>
/home/avees/optee_local_build/Linux_for_Tegra/sources/tegra/optee-src/nv-optee/optee/optee_os/lib/libutils/ext/trace.c:217
     2dc:	f9008273 	str	x19, [x19, #256]
/home/avees/optee_local_build/Linux_for_Tegra/sources/tegra/optee-src/nv-optee/optee/optee_os/lib/libutils/ext/trace.c:219
     2e0:	9104c3e0 	add	x0, sp, #0x130
/home/avees/optee_local_build/Linux_for_Tegra/sources/tegra/optee-src/nv-optee/optee/optee_os/lib/libutils/ext/trace.c:220
     2e4:	9100c3e3 	add	x3, sp, #0x30
/home/avees/optee_local_build/Linux_for_Tegra/sources/tegra/optee-src/nv-optee/optee/optee_os/lib/libutils/ext/trace.c:219
     2e8:	a90583e0 	stp	x0, x0, [sp, #88]
     2ec:	910403e0 	add	x0, sp, #0x100
/home/avees/optee_local_build/Linux_for_Tegra/sources/tegra/optee-src/nv-optee/optee/optee_os/lib/libutils/ext/trace.c:220
     2f0:	910163e1 	add	x1, sp, #0x58
/home/avees/optee_local_build/Linux_for_Tegra/sources/tegra/optee-src/nv-optee/optee/optee_os/lib/libutils/ext/trace.c:219
     2f4:	f90037e0 	str	x0, [sp, #104]
     2f8:	128005e0 	mov	w0, #0xffffffd0            	// #-48
     2fc:	b90073e0 	str	w0, [sp, #112]
     300:	12800fe0 	mov	w0, #0xffffff80            	// #-128
/home/avees/optee_local_build/Linux_for_Tegra/sources/tegra/optee-src/nv-optee/optee/optee_os/lib/libutils/ext/trace.c:218
     304:	f9408274 	ldr	x20, [x19, #256]
/home/avees/optee_local_build/Linux_for_Tegra/sources/tegra/optee-src/nv-optee/optee/optee_os/lib/libutils/ext/trace.c:220
     308:	d2800402 	mov	x2, #0x20                  	// #32
/home/avees/optee_local_build/Linux_for_Tegra/sources/tegra/optee-src/nv-optee/optee/optee_os/lib/libutils/ext/trace.c:219
     30c:	b90077e0 	str	w0, [sp, #116]
/home/avees/optee_local_build/Linux_for_Tegra/sources/tegra/optee-src/nv-optee/optee/optee_os/lib/libutils/ext/trace.c:220
     310:	aa0303e0 	mov	x0, x3
     314:	97ffff43 	bl	20 <memcpy>
     318:	aa0003e3 	mov	x3, x0
     31c:	f9408260 	ldr	x0, [x19, #256]
/home/avees/optee_local_build/Linux_for_Tegra/sources/tegra/optee-src/nv-optee/optee/optee_os/lib/libutils/ext/trace.c:218
     320:	4b140274 	sub	w20, w19, w20
     324:	11040294 	add	w20, w20, #0x100
/home/avees/optee_local_build/Linux_for_Tegra/sources/tegra/optee-src/nv-optee/optee/optee_os/lib/libutils/ext/trace.c:220
     328:	aa1503e2 	mov	x2, x21
     32c:	93407e81 	sxtw	x1, w20
     330:	94000182 	bl	938 <vsnprintk>
/home/avees/optee_local_build/Linux_for_Tegra/sources/tegra/optee-src/nv-optee/optee/optee_os/lib/libutils/ext/trace.c:222
     334:	37f801e0 	tbnz	w0, #31, 370 <append+0xf4>
/home/avees/optee_local_build/Linux_for_Tegra/sources/tegra/optee-src/nv-optee/optee/optee_os/lib/libutils/ext/trace.c:226
     338:	6b00029f 	cmp	w20, w0
     33c:	540001ad 	b.le	370 <append+0xf4>
/home/avees/optee_local_build/Linux_for_Tegra/sources/tegra/optee-src/nv-optee/optee/optee_os/lib/libutils/ext/trace.c:230
     340:	f9408261 	ldr	x1, [x19, #256]
     344:	8b20c020 	add	x0, x1, w0, sxtw
     348:	f9008260 	str	x0, [x19, #256]
/home/avees/optee_local_build/Linux_for_Tegra/sources/tegra/optee-src/nv-optee/optee/optee_os/lib/libutils/ext/trace.c:231
     34c:	52800020 	mov	w0, #0x1                   	// #1
/home/avees/optee_local_build/Linux_for_Tegra/sources/tegra/optee-src/nv-optee/optee/optee_os/lib/libutils/ext/trace.c:232
     350:	b0000082 	adrp	x2, 11000 <_DYNAMIC>
     354:	f9409842 	ldr	x2, [x2, #304]
     358:	f9403fe1 	ldr	x1, [sp, #120]
     35c:	f9400043 	ldr	x3, [x2]
     360:	eb030021 	subs	x1, x1, x3
     364:	d2800003 	mov	x3, #0x0                   	// #0
     368:	54000080 	b.eq	378 <append+0xfc>  // b.none
     36c:	94000137 	bl	848 <__stack_chk_fail>
/home/avees/optee_local_build/Linux_for_Tegra/sources/tegra/optee-src/nv-optee/optee/optee_os/lib/libutils/ext/trace.c:224
     370:	52800000 	mov	w0, #0x0                   	// #0
     374:	17fffff7 	b	350 <append+0xd4>
/home/avees/optee_local_build/Linux_for_Tegra/sources/tegra/optee-src/nv-optee/optee/optee_os/lib/libutils/ext/trace.c:232
     378:	a94153f3 	ldp	x19, x20, [sp, #16]
     37c:	f94013f5 	ldr	x21, [sp, #32]
     380:	a8d37bfd 	ldp	x29, x30, [sp], #304
     384:	d65f03c0 	ret

0000000000000388 <trace_set_level>:
trace_set_level():
/home/avees/optee_local_build/Linux_for_Tegra/sources/tegra/optee-src/nv-optee/optee/optee_os/lib/libutils/ext/trace.c:28
     388:	7100141f 	cmp	w0, #0x5
     38c:	52800081 	mov	w1, #0x4                   	// #4
     390:	1a813000 	csel	w0, w0, w1, cc  // cc = lo, ul, last
     394:	b0000081 	adrp	x1, 11000 <_DYNAMIC>
     398:	f940a821 	ldr	x1, [x1, #336]
     39c:	b9000020 	str	w0, [x1]
/home/avees/optee_local_build/Linux_for_Tegra/sources/tegra/optee-src/nv-optee/optee/optee_os/lib/libutils/ext/trace.c:29
     3a0:	d65f03c0 	ret

00000000000003a4 <trace_get_level>:
trace_get_level():
/home/avees/optee_local_build/Linux_for_Tegra/sources/tegra/optee-src/nv-optee/optee/optee_os/lib/libutils/ext/trace.c:33
     3a4:	b0000080 	adrp	x0, 11000 <_DYNAMIC>
/home/avees/optee_local_build/Linux_for_Tegra/sources/tegra/optee-src/nv-optee/optee/optee_os/lib/libutils/ext/trace.c:34
     3a8:	f940a800 	ldr	x0, [x0, #336]
     3ac:	b9400000 	ldr	w0, [x0]
     3b0:	d65f03c0 	ret

00000000000003b4 <trace_vprintf>:
trace_vprintf():
/home/avees/optee_local_build/Linux_for_Tegra/sources/tegra/optee-src/nv-optee/optee/optee_os/lib/libutils/ext/trace.c:113
     3b4:	a9a77bfd 	stp	x29, x30, [sp, #-400]!
     3b8:	910003fd 	mov	x29, sp
     3bc:	a9046bf9 	stp	x25, x26, [sp, #64]
     3c0:	2a0103f9 	mov	w25, w1
     3c4:	b0000081 	adrp	x1, 11000 <_DYNAMIC>
     3c8:	a9025bf5 	stp	x21, x22, [sp, #32]
     3cc:	aa0003f6 	mov	x22, x0
     3d0:	aa0103f5 	mov	x21, x1
     3d4:	f9409820 	ldr	x0, [x1, #304]
     3d8:	a90153f3 	stp	x19, x20, [sp, #16]
     3dc:	2a0203f3 	mov	w19, w2
     3e0:	f9400002 	ldr	x2, [x0]
     3e4:	f900c7e2 	str	x2, [sp, #392]
     3e8:	d2800002 	mov	x2, #0x0                   	// #0
     3ec:	a90363f7 	stp	x23, x24, [sp, #48]
     3f0:	aa0403f7 	mov	x23, x4
     3f4:	a90573fb 	stp	x27, x28, [sp, #80]
     3f8:	aa0503f8 	mov	x24, x5
/home/avees/optee_local_build/Linux_for_Tegra/sources/tegra/optee-src/nv-optee/optee/optee_os/lib/libutils/ext/trace.c:118
     3fc:	72001c7b 	ands	w27, w3, #0xff
     400:	54000b20 	b.eq	564 <trace_vprintf+0x1b0>  // b.none
/home/avees/optee_local_build/Linux_for_Tegra/sources/tegra/optee-src/nv-optee/optee/optee_os/lib/libutils/ext/trace.c:118 (discriminator 1)
     404:	f940a820 	ldr	x0, [x1, #336]
     408:	b9400000 	ldr	w0, [x0]
     40c:	6b13001f 	cmp	w0, w19
     410:	540009cb 	b.lt	548 <trace_vprintf+0x194>  // b.tstop
trace_level_to_string():
/home/avees/optee_local_build/Linux_for_Tegra/sources/tegra/optee-src/nv-optee/optee/optee_os/lib/libutils/ext/trace.c:51
     414:	7100127f 	cmp	w19, #0x4
/home/avees/optee_local_build/Linux_for_Tegra/sources/tegra/optee-src/nv-optee/optee/optee_os/lib/libutils/ext/trace.c:54
     418:	f0000060 	adrp	x0, f000 <__text_end+0x2508>
/home/avees/optee_local_build/Linux_for_Tegra/sources/tegra/optee-src/nv-optee/optee/optee_os/lib/libutils/ext/trace.c:51
     41c:	1a9f9261 	csel	w1, w19, wzr, ls  // ls = plast
/home/avees/optee_local_build/Linux_for_Tegra/sources/tegra/optee-src/nv-optee/optee/optee_os/lib/libutils/ext/trace.c:54
     420:	912a3800 	add	x0, x0, #0xa8e
     424:	3861c803 	ldrb	w3, [x0, w1, sxtw]
trace_vprintf():
/home/avees/optee_local_build/Linux_for_Tegra/sources/tegra/optee-src/nv-optee/optee/optee_os/lib/libutils/ext/trace.c:122
     428:	910223f4 	add	x20, sp, #0x88
     42c:	f0000062 	adrp	x2, f000 <__text_end+0x2508>
     430:	aa1403e0 	mov	x0, x20
     434:	91295042 	add	x2, x2, #0xa54
     438:	d2802001 	mov	x1, #0x100                 	// #256
     43c:	94000155 	bl	990 <snprintk>
/home/avees/optee_local_build/Linux_for_Tegra/sources/tegra/optee-src/nv-optee/optee/optee_os/lib/libutils/ext/trace.c:124
     440:	37f80840 	tbnz	w0, #31, 548 <trace_vprintf+0x194>
/home/avees/optee_local_build/Linux_for_Tegra/sources/tegra/optee-src/nv-optee/optee/optee_os/lib/libutils/ext/trace.c:129
     444:	f940b2a3 	ldr	x3, [x21, #352]
     448:	d280201c 	mov	x28, #0x100                 	// #256
/home/avees/optee_local_build/Linux_for_Tegra/sources/tegra/optee-src/nv-optee/optee/optee_os/lib/libutils/ext/trace.c:126
     44c:	93407c1a 	sxtw	x26, w0
/home/avees/optee_local_build/Linux_for_Tegra/sources/tegra/optee-src/nv-optee/optee/optee_os/lib/libutils/ext/trace.c:129
     450:	cb20c381 	sub	x1, x28, w0, sxtw
     454:	f0000062 	adrp	x2, f000 <__text_end+0x2508>
     458:	8b20c280 	add	x0, x20, w0, sxtw
     45c:	91296042 	add	x2, x2, #0xa58
     460:	9400014c 	bl	990 <snprintk>
/home/avees/optee_local_build/Linux_for_Tegra/sources/tegra/optee-src/nv-optee/optee/optee_os/lib/libutils/ext/trace.c:131
     464:	37f80720 	tbnz	w0, #31, 548 <trace_vprintf+0x194>
/home/avees/optee_local_build/Linux_for_Tegra/sources/tegra/optee-src/nv-optee/optee/optee_os/lib/libutils/ext/trace.c:133
     468:	8b20c35a 	add	x26, x26, w0, sxtw
/home/avees/optee_local_build/Linux_for_Tegra/sources/tegra/optee-src/nv-optee/optee/optee_os/lib/libutils/ext/trace.c:135
     46c:	3400093b 	cbz	w27, 590 <trace_vprintf+0x1dc>
/home/avees/optee_local_build/Linux_for_Tegra/sources/tegra/optee-src/nv-optee/optee/optee_os/lib/libutils/ext/trace.c:135 (discriminator 1)
     470:	52800342 	mov	w2, #0x1a                  	// #26
     474:	1ad32453 	lsr	w19, w2, w19
     478:	360008d3 	tbz	w19, #0, 590 <trace_vprintf+0x1dc>
print_thread_id():
/home/avees/optee_local_build/Linux_for_Tegra/sources/tegra/optee-src/nv-optee/optee/optee_os/lib/libutils/ext/trace.c:66
     47c:	9400049f 	bl	16f8 <trace_ext_get_thread_id>
trace_vprintf():
/home/avees/optee_local_build/Linux_for_Tegra/sources/tegra/optee-src/nv-optee/optee/optee_os/lib/libutils/ext/trace.c:137
     480:	8b1a029b 	add	x27, x20, x26
     484:	cb1a039c 	sub	x28, x28, x26
print_thread_id():
/home/avees/optee_local_build/Linux_for_Tegra/sources/tegra/optee-src/nv-optee/optee/optee_os/lib/libutils/ext/trace.c:66
     488:	2a0003e4 	mov	w4, w0
/home/avees/optee_local_build/Linux_for_Tegra/sources/tegra/optee-src/nv-optee/optee/optee_os/lib/libutils/ext/trace.c:68
     48c:	37f80700 	tbnz	w0, #31, 56c <trace_vprintf+0x1b8>
/home/avees/optee_local_build/Linux_for_Tegra/sources/tegra/optee-src/nv-optee/optee/optee_os/lib/libutils/ext/trace.c:69
     490:	f0000062 	adrp	x2, f000 <__text_end+0x2508>
     494:	aa1c03e1 	mov	x1, x28
     498:	91297042 	add	x2, x2, #0xa5c
     49c:	aa1b03e0 	mov	x0, x27
     4a0:	52800043 	mov	w3, #0x2                   	// #2
     4a4:	9400013b 	bl	990 <snprintk>
trace_vprintf():
/home/avees/optee_local_build/Linux_for_Tegra/sources/tegra/optee-src/nv-optee/optee/optee_os/lib/libutils/ext/trace.c:144
     4a8:	37f80500 	tbnz	w0, #31, 548 <trace_vprintf+0x194>
/home/avees/optee_local_build/Linux_for_Tegra/sources/tegra/optee-src/nv-optee/optee/optee_os/lib/libutils/ext/trace.c:146
     4ac:	8b20c353 	add	x19, x26, w0, sxtw
/home/avees/optee_local_build/Linux_for_Tegra/sources/tegra/optee-src/nv-optee/optee/optee_os/lib/libutils/ext/trace.c:148
     4b0:	b4000176 	cbz	x22, 4dc <trace_vprintf+0x128>
/home/avees/optee_local_build/Linux_for_Tegra/sources/tegra/optee-src/nv-optee/optee/optee_os/lib/libutils/ext/trace.c:149
     4b4:	f0000062 	adrp	x2, f000 <__text_end+0x2508>
     4b8:	d2802001 	mov	x1, #0x100                 	// #256
     4bc:	2a1903e4 	mov	w4, w25
     4c0:	aa1603e3 	mov	x3, x22
     4c4:	91299c42 	add	x2, x2, #0xa67
     4c8:	cb130021 	sub	x1, x1, x19
     4cc:	8b130280 	add	x0, x20, x19
     4d0:	94000130 	bl	990 <snprintk>
/home/avees/optee_local_build/Linux_for_Tegra/sources/tegra/optee-src/nv-optee/optee/optee_os/lib/libutils/ext/trace.c:151
     4d4:	37f803a0 	tbnz	w0, #31, 548 <trace_vprintf+0x194>
/home/avees/optee_local_build/Linux_for_Tegra/sources/tegra/optee-src/nv-optee/optee/optee_os/lib/libutils/ext/trace.c:153
     4d8:	8b20c273 	add	x19, x19, w0, sxtw
/home/avees/optee_local_build/Linux_for_Tegra/sources/tegra/optee-src/nv-optee/optee/optee_os/lib/libutils/ext/trace.c:163
     4dc:	910183e3 	add	x3, sp, #0x60
     4e0:	aa1803e1 	mov	x1, x24
     4e4:	aa0303e0 	mov	x0, x3
     4e8:	d2800402 	mov	x2, #0x20                  	// #32
     4ec:	97fffecd 	bl	20 <memcpy>
     4f0:	aa0003e3 	mov	x3, x0
     4f4:	aa1703e2 	mov	x2, x23
     4f8:	8b130280 	add	x0, x20, x19
     4fc:	d2802001 	mov	x1, #0x100                 	// #256
     500:	cb130021 	sub	x1, x1, x19
     504:	9400010d 	bl	938 <vsnprintk>
/home/avees/optee_local_build/Linux_for_Tegra/sources/tegra/optee-src/nv-optee/optee/optee_os/lib/libutils/ext/trace.c:164
     508:	7100001f 	cmp	w0, #0x0
     50c:	5400004d 	b.le	514 <trace_vprintf+0x160>
/home/avees/optee_local_build/Linux_for_Tegra/sources/tegra/optee-src/nv-optee/optee/optee_os/lib/libutils/ext/trace.c:165
     510:	8b20c273 	add	x19, x19, w0, sxtw
/home/avees/optee_local_build/Linux_for_Tegra/sources/tegra/optee-src/nv-optee/optee/optee_os/lib/libutils/ext/trace.c:167
     514:	f103fa7f 	cmp	x19, #0xfe
     518:	d2801fc0 	mov	x0, #0xfe                  	// #254
     51c:	9a809273 	csel	x19, x19, x0, ls  // ls = plast
/home/avees/optee_local_build/Linux_for_Tegra/sources/tegra/optee-src/nv-optee/optee/optee_os/lib/libutils/ext/trace.c:170
     520:	52800140 	mov	w0, #0xa                   	// #10
     524:	38336a80 	strb	w0, [x20, x19]
/home/avees/optee_local_build/Linux_for_Tegra/sources/tegra/optee-src/nv-optee/optee/optee_os/lib/libutils/ext/trace.c:171
     528:	b4000093 	cbz	x19, 538 <trace_vprintf+0x184>
/home/avees/optee_local_build/Linux_for_Tegra/sources/tegra/optee-src/nv-optee/optee/optee_os/lib/libutils/ext/trace.c:171 (discriminator 1)
     52c:	38736a80 	ldrb	w0, [x20, x19]
     530:	7100281f 	cmp	w0, #0xa
     534:	540003c0 	b.eq	5ac <trace_vprintf+0x1f8>  // b.none
/home/avees/optee_local_build/Linux_for_Tegra/sources/tegra/optee-src/nv-optee/optee/optee_os/lib/libutils/ext/trace.c:174
     538:	91022be0 	add	x0, sp, #0x8a
     53c:	3833681f 	strb	wzr, [x0, x19]
/home/avees/optee_local_build/Linux_for_Tegra/sources/tegra/optee-src/nv-optee/optee/optee_os/lib/libutils/ext/trace.c:176
     540:	aa1403e0 	mov	x0, x20
     544:	94000463 	bl	16d0 <trace_ext_puts>
/home/avees/optee_local_build/Linux_for_Tegra/sources/tegra/optee-src/nv-optee/optee/optee_os/lib/libutils/ext/trace.c:177
     548:	f9409ab5 	ldr	x21, [x21, #304]
     54c:	f940c7e0 	ldr	x0, [sp, #392]
     550:	f94002a1 	ldr	x1, [x21]
     554:	eb010000 	subs	x0, x0, x1
     558:	d2800001 	mov	x1, #0x0                   	// #0
     55c:	540002c0 	b.eq	5b4 <trace_vprintf+0x200>  // b.none
     560:	940000ba 	bl	848 <__stack_chk_fail>
trace_level_to_string():
/home/avees/optee_local_build/Linux_for_Tegra/sources/tegra/optee-src/nv-optee/optee/optee_os/lib/libutils/ext/trace.c:49
     564:	528009a3 	mov	w3, #0x4d                  	// #77
     568:	17ffffb0 	b	428 <trace_vprintf+0x74>
print_thread_id():
/home/avees/optee_local_build/Linux_for_Tegra/sources/tegra/optee-src/nv-optee/optee/optee_os/lib/libutils/ext/trace.c:71
     56c:	aa1c03e1 	mov	x1, x28
     570:	aa1b03e0 	mov	x0, x27
     574:	90000084 	adrp	x4, 10000 <__func__.4161+0x95>
     578:	52800043 	mov	w3, #0x2                   	// #2
     57c:	910fdc84 	add	x4, x4, #0x3f7
     580:	f0000062 	adrp	x2, f000 <__text_end+0x2508>
     584:	91298842 	add	x2, x2, #0xa62
     588:	94000102 	bl	990 <snprintk>
     58c:	17ffffc7 	b	4a8 <trace_vprintf+0xf4>
trace_vprintf():
/home/avees/optee_local_build/Linux_for_Tegra/sources/tegra/optee-src/nv-optee/optee/optee_os/lib/libutils/ext/trace.c:157
     590:	f103fb5f 	cmp	x26, #0xfe
     594:	54fffda8 	b.hi	548 <trace_vprintf+0x194>  // b.pmore
/home/avees/optee_local_build/Linux_for_Tegra/sources/tegra/optee-src/nv-optee/optee/optee_os/lib/libutils/ext/trace.c:159
     598:	91000753 	add	x19, x26, #0x1
     59c:	52800400 	mov	w0, #0x20                  	// #32
     5a0:	383a6a80 	strb	w0, [x20, x26]
/home/avees/optee_local_build/Linux_for_Tegra/sources/tegra/optee-src/nv-optee/optee/optee_os/lib/libutils/ext/trace.c:160
     5a4:	38336a9f 	strb	wzr, [x20, x19]
     5a8:	17ffffcd 	b	4dc <trace_vprintf+0x128>
/home/avees/optee_local_build/Linux_for_Tegra/sources/tegra/optee-src/nv-optee/optee/optee_os/lib/libutils/ext/trace.c:172
     5ac:	d1000673 	sub	x19, x19, #0x1
     5b0:	17ffffde 	b	528 <trace_vprintf+0x174>
/home/avees/optee_local_build/Linux_for_Tegra/sources/tegra/optee-src/nv-optee/optee/optee_os/lib/libutils/ext/trace.c:177
     5b4:	a94153f3 	ldp	x19, x20, [sp, #16]
     5b8:	a9425bf5 	ldp	x21, x22, [sp, #32]
     5bc:	a94363f7 	ldp	x23, x24, [sp, #48]
     5c0:	a9446bf9 	ldp	x25, x26, [sp, #64]
     5c4:	a94573fb 	ldp	x27, x28, [sp, #80]
     5c8:	a8d97bfd 	ldp	x29, x30, [sp], #400
     5cc:	d65f03c0 	ret

00000000000005d0 <trace_printf>:
trace_printf():
/home/avees/optee_local_build/Linux_for_Tegra/sources/tegra/optee-src/nv-optee/optee/optee_os/lib/libutils/ext/trace.c:104
     5d0:	a9ad7bfd 	stp	x29, x30, [sp, #-304]!
     5d4:	910003fd 	mov	x29, sp
     5d8:	a90153f3 	stp	x19, x20, [sp, #16]
     5dc:	b0000093 	adrp	x19, 11000 <_DYNAMIC>
     5e0:	aa0003f4 	mov	x20, x0
     5e4:	f9409a73 	ldr	x19, [x19, #304]
     5e8:	3d8027e0 	str	q0, [sp, #144]
     5ec:	3d802be1 	str	q1, [sp, #160]
     5f0:	3d802fe2 	str	q2, [sp, #176]
     5f4:	3d8033e3 	str	q3, [sp, #192]
     5f8:	3d8037e4 	str	q4, [sp, #208]
     5fc:	3d803be5 	str	q5, [sp, #224]
     600:	3d803fe6 	str	q6, [sp, #240]
     604:	3d8043e7 	str	q7, [sp, #256]
     608:	a9119be5 	stp	x5, x6, [sp, #280]
/home/avees/optee_local_build/Linux_for_Tegra/sources/tegra/optee-src/nv-optee/optee/optee_os/lib/libutils/ext/trace.c:108
     60c:	910103e5 	add	x5, sp, #0x40
/home/avees/optee_local_build/Linux_for_Tegra/sources/tegra/optee-src/nv-optee/optee/optee_os/lib/libutils/ext/trace.c:104
     610:	f90097e7 	str	x7, [sp, #296]
     614:	a9025bf5 	stp	x21, x22, [sp, #32]
     618:	2a0103f5 	mov	w21, w1
     61c:	f9400260 	ldr	x0, [x19]
     620:	f90047e0 	str	x0, [sp, #136]
     624:	d2800000 	mov	x0, #0x0                   	// #0
/home/avees/optee_local_build/Linux_for_Tegra/sources/tegra/optee-src/nv-optee/optee/optee_os/lib/libutils/ext/trace.c:107
     628:	9104c3e0 	add	x0, sp, #0x130
     62c:	a90683e0 	stp	x0, x0, [sp, #104]
     630:	910443e0 	add	x0, sp, #0x110
     634:	f9003fe0 	str	x0, [sp, #120]
     638:	128002e0 	mov	w0, #0xffffffe8            	// #-24
     63c:	b90083e0 	str	w0, [sp, #128]
     640:	12800fe0 	mov	w0, #0xffffff80            	// #-128
/home/avees/optee_local_build/Linux_for_Tegra/sources/tegra/optee-src/nv-optee/optee/optee_os/lib/libutils/ext/trace.c:104
     644:	2a0203f6 	mov	w22, w2
/home/avees/optee_local_build/Linux_for_Tegra/sources/tegra/optee-src/nv-optee/optee/optee_os/lib/libutils/ext/trace.c:108
     648:	9101a3e1 	add	x1, sp, #0x68
     64c:	d2800402 	mov	x2, #0x20                  	// #32
/home/avees/optee_local_build/Linux_for_Tegra/sources/tegra/optee-src/nv-optee/optee/optee_os/lib/libutils/ext/trace.c:104
     650:	a90363f7 	stp	x23, x24, [sp, #48]
     654:	12001c78 	and	w24, w3, #0xff
     658:	aa0403f7 	mov	x23, x4
/home/avees/optee_local_build/Linux_for_Tegra/sources/tegra/optee-src/nv-optee/optee/optee_os/lib/libutils/ext/trace.c:107
     65c:	b90087e0 	str	w0, [sp, #132]
/home/avees/optee_local_build/Linux_for_Tegra/sources/tegra/optee-src/nv-optee/optee/optee_os/lib/libutils/ext/trace.c:108
     660:	aa0503e0 	mov	x0, x5
     664:	97fffe6f 	bl	20 <memcpy>
     668:	2a1503e1 	mov	w1, w21
     66c:	aa0003e5 	mov	x5, x0
     670:	aa1703e4 	mov	x4, x23
     674:	aa1403e0 	mov	x0, x20
     678:	2a1803e3 	mov	w3, w24
     67c:	2a1603e2 	mov	w2, w22
     680:	97ffff4d 	bl	3b4 <trace_vprintf>
/home/avees/optee_local_build/Linux_for_Tegra/sources/tegra/optee-src/nv-optee/optee/optee_os/lib/libutils/ext/trace.c:110
     684:	f94047e0 	ldr	x0, [sp, #136]
     688:	f9400261 	ldr	x1, [x19]
     68c:	eb010000 	subs	x0, x0, x1
     690:	d2800001 	mov	x1, #0x0                   	// #0
     694:	54000040 	b.eq	69c <trace_printf+0xcc>  // b.none
     698:	9400006c 	bl	848 <__stack_chk_fail>
     69c:	a94153f3 	ldp	x19, x20, [sp, #16]
     6a0:	a9425bf5 	ldp	x21, x22, [sp, #32]
     6a4:	a94363f7 	ldp	x23, x24, [sp, #48]
     6a8:	a8d37bfd 	ldp	x29, x30, [sp], #304
     6ac:	d65f03c0 	ret

00000000000006b0 <dhex_dump>:
dhex_dump():
/home/avees/optee_local_build/Linux_for_Tegra/sources/tegra/optee-src/nv-optee/optee/optee_os/lib/libutils/ext/trace.c:236
     6b0:	a9a97bfd 	stp	x29, x30, [sp, #-368]!
     6b4:	b0000085 	adrp	x5, 11000 <_DYNAMIC>
     6b8:	910003fd 	mov	x29, sp
     6bc:	a9025bf5 	stp	x21, x22, [sp, #32]
     6c0:	aa0003f5 	mov	x21, x0
     6c4:	2a0103f6 	mov	w22, w1
     6c8:	f94098a0 	ldr	x0, [x5, #304]
     6cc:	a90153f3 	stp	x19, x20, [sp, #16]
/home/avees/optee_local_build/Linux_for_Tegra/sources/tegra/optee-src/nv-optee/optee/optee_os/lib/libutils/ext/trace.c:242
     6d0:	f940a8a5 	ldr	x5, [x5, #336]
/home/avees/optee_local_build/Linux_for_Tegra/sources/tegra/optee-src/nv-optee/optee/optee_os/lib/libutils/ext/trace.c:236
     6d4:	f9400001 	ldr	x1, [x0]
     6d8:	f900b7e1 	str	x1, [sp, #360]
     6dc:	d2800001 	mov	x1, #0x0                   	// #0
     6e0:	a90363f7 	stp	x23, x24, [sp, #48]
/home/avees/optee_local_build/Linux_for_Tegra/sources/tegra/optee-src/nv-optee/optee/optee_os/lib/libutils/ext/trace.c:242
     6e4:	b94000a0 	ldr	w0, [x5]
/home/avees/optee_local_build/Linux_for_Tegra/sources/tegra/optee-src/nv-optee/optee/optee_os/lib/libutils/ext/trace.c:236
     6e8:	a9046bf9 	stp	x25, x26, [sp, #64]
/home/avees/optee_local_build/Linux_for_Tegra/sources/tegra/optee-src/nv-optee/optee/optee_os/lib/libutils/ext/trace.c:242
     6ec:	6b02001f 	cmp	w0, w2
/home/avees/optee_local_build/Linux_for_Tegra/sources/tegra/optee-src/nv-optee/optee/optee_os/lib/libutils/ext/trace.c:236
     6f0:	a90573fb 	stp	x27, x28, [sp, #80]
/home/avees/optee_local_build/Linux_for_Tegra/sources/tegra/optee-src/nv-optee/optee/optee_os/lib/libutils/ext/trace.c:242
     6f4:	5400030b 	b.lt	754 <dhex_dump+0xa4>  // b.tstop
/home/avees/optee_local_build/Linux_for_Tegra/sources/tegra/optee-src/nv-optee/optee/optee_os/lib/libutils/ext/trace.c:246
     6f8:	f000007a 	adrp	x26, f000 <__text_end+0x2508>
/home/avees/optee_local_build/Linux_for_Tegra/sources/tegra/optee-src/nv-optee/optee/optee_os/lib/libutils/ext/trace.c:251
     6fc:	f000007b 	adrp	x27, f000 <__text_end+0x2508>
     700:	2a0203f4 	mov	w20, w2
     704:	aa0303f8 	mov	x24, x3
     708:	2a0403f9 	mov	w25, w4
/home/avees/optee_local_build/Linux_for_Tegra/sources/tegra/optee-src/nv-optee/optee/optee_os/lib/libutils/ext/trace.c:243
     70c:	910183f7 	add	x23, sp, #0x60
/home/avees/optee_local_build/Linux_for_Tegra/sources/tegra/optee-src/nv-optee/optee/optee_os/lib/libutils/ext/trace.c:246
     710:	9129d35a 	add	x26, x26, #0xa74
/home/avees/optee_local_build/Linux_for_Tegra/sources/tegra/optee-src/nv-optee/optee/optee_os/lib/libutils/ext/trace.c:251
     714:	9129bb7b 	add	x27, x27, #0xa6e
/home/avees/optee_local_build/Linux_for_Tegra/sources/tegra/optee-src/nv-optee/optee/optee_os/lib/libutils/ext/trace.c:244
     718:	d2800013 	mov	x19, #0x0                   	// #0
/home/avees/optee_local_build/Linux_for_Tegra/sources/tegra/optee-src/nv-optee/optee/optee_os/lib/libutils/ext/trace.c:243
     71c:	f900b3ff 	str	xzr, [sp, #352]
/home/avees/optee_local_build/Linux_for_Tegra/sources/tegra/optee-src/nv-optee/optee/optee_os/lib/libutils/ext/trace.c:244
     720:	2a1303fc 	mov	w28, w19
/home/avees/optee_local_build/Linux_for_Tegra/sources/tegra/optee-src/nv-optee/optee/optee_os/lib/libutils/ext/trace.c:244 (discriminator 1)
     724:	6b13033f 	cmp	w25, w19
     728:	5400026c 	b.gt	774 <dhex_dump+0xc4>
/home/avees/optee_local_build/Linux_for_Tegra/sources/tegra/optee-src/nv-optee/optee/optee_os/lib/libutils/ext/trace.c:264
     72c:	f940b3e0 	ldr	x0, [sp, #352]
     730:	b4000120 	cbz	x0, 754 <dhex_dump+0xa4>
/home/avees/optee_local_build/Linux_for_Tegra/sources/tegra/optee-src/nv-optee/optee/optee_os/lib/libutils/ext/trace.c:266
     734:	f0000064 	adrp	x4, f000 <__text_end+0x2508>
     738:	910183e5 	add	x5, sp, #0x60
     73c:	9129f084 	add	x4, x4, #0xa7c
     740:	2a1403e2 	mov	w2, w20
     744:	2a1603e1 	mov	w1, w22
     748:	aa1503e0 	mov	x0, x21
     74c:	52800023 	mov	w3, #0x1                   	// #1
     750:	97ffffa0 	bl	5d0 <trace_printf>
/home/avees/optee_local_build/Linux_for_Tegra/sources/tegra/optee-src/nv-optee/optee/optee_os/lib/libutils/ext/trace.c:274
     754:	b0000085 	adrp	x5, 11000 <_DYNAMIC>
     758:	f94098a5 	ldr	x5, [x5, #304]
     75c:	f940b7e0 	ldr	x0, [sp, #360]
     760:	f94000a1 	ldr	x1, [x5]
     764:	eb010000 	subs	x0, x0, x1
     768:	d2800001 	mov	x1, #0x0                   	// #0
     76c:	54000600 	b.eq	82c <dhex_dump+0x17c>  // b.none
     770:	94000036 	bl	848 <__stack_chk_fail>
/home/avees/optee_local_build/Linux_for_Tegra/sources/tegra/optee-src/nv-optee/optee/optee_os/lib/libutils/ext/trace.c:245
     774:	f2400e7f 	tst	x19, #0xf
     778:	54000200 	b.eq	7b8 <dhex_dump+0x108>  // b.none
/home/avees/optee_local_build/Linux_for_Tegra/sources/tegra/optee-src/nv-optee/optee/optee_os/lib/libutils/ext/trace.c:251
     77c:	38736b02 	ldrb	w2, [x24, x19]
     780:	aa1b03e1 	mov	x1, x27
     784:	aa1703e0 	mov	x0, x23
     788:	97fffebd 	bl	27c <append>
/home/avees/optee_local_build/Linux_for_Tegra/sources/tegra/optee-src/nv-optee/optee/optee_os/lib/libutils/ext/trace.c:252
     78c:	35000240 	cbnz	w0, 7d4 <dhex_dump+0x124>
/home/avees/optee_local_build/Linux_for_Tegra/sources/tegra/optee-src/nv-optee/optee/optee_os/lib/libutils/ext/trace.c:273
     790:	f0000060 	adrp	x0, f000 <__text_end+0x2508>
     794:	912a3800 	add	x0, x0, #0xa8e
     798:	91001400 	add	x0, x0, #0x5
     79c:	f0000064 	adrp	x4, f000 <__text_end+0x2508>
     7a0:	52800023 	mov	w3, #0x1                   	// #1
     7a4:	9129fc84 	add	x4, x4, #0xa7f
     7a8:	52800062 	mov	w2, #0x3                   	// #3
     7ac:	52802221 	mov	w1, #0x111                 	// #273
     7b0:	97ffff88 	bl	5d0 <trace_printf>
     7b4:	17ffffe8 	b	754 <dhex_dump+0xa4>
/home/avees/optee_local_build/Linux_for_Tegra/sources/tegra/optee-src/nv-optee/optee/optee_os/lib/libutils/ext/trace.c:246
     7b8:	8b130303 	add	x3, x24, x19
     7bc:	aa1a03e1 	mov	x1, x26
     7c0:	aa1703e0 	mov	x0, x23
     7c4:	52800202 	mov	w2, #0x10                  	// #16
     7c8:	97fffead 	bl	27c <append>
/home/avees/optee_local_build/Linux_for_Tegra/sources/tegra/optee-src/nv-optee/optee/optee_os/lib/libutils/ext/trace.c:248
     7cc:	35fffd80 	cbnz	w0, 77c <dhex_dump+0xcc>
     7d0:	17fffff0 	b	790 <dhex_dump+0xe0>
/home/avees/optee_local_build/Linux_for_Tegra/sources/tegra/optee-src/nv-optee/optee/optee_os/lib/libutils/ext/trace.c:254
     7d4:	12000f80 	and	w0, w28, #0xf
     7d8:	71001c1f 	cmp	w0, #0x7
     7dc:	54000101 	b.ne	7fc <dhex_dump+0x14c>  // b.any
/home/avees/optee_local_build/Linux_for_Tegra/sources/tegra/optee-src/nv-optee/optee/optee_os/lib/libutils/ext/trace.c:255
     7e0:	f0000061 	adrp	x1, f000 <__text_end+0x2508>
     7e4:	aa1703e0 	mov	x0, x23
     7e8:	9129e821 	add	x1, x1, #0xa7a
     7ec:	97fffea4 	bl	27c <append>
/home/avees/optee_local_build/Linux_for_Tegra/sources/tegra/optee-src/nv-optee/optee/optee_os/lib/libutils/ext/trace.c:256
     7f0:	34fffd00 	cbz	w0, 790 <dhex_dump+0xe0>
/home/avees/optee_local_build/Linux_for_Tegra/sources/tegra/optee-src/nv-optee/optee/optee_os/lib/libutils/ext/trace.c:244 (discriminator 2)
     7f4:	91000673 	add	x19, x19, #0x1
     7f8:	17ffffca 	b	720 <dhex_dump+0x70>
/home/avees/optee_local_build/Linux_for_Tegra/sources/tegra/optee-src/nv-optee/optee/optee_os/lib/libutils/ext/trace.c:258
     7fc:	71003c1f 	cmp	w0, #0xf
     800:	54ffffa1 	b.ne	7f4 <dhex_dump+0x144>  // b.any
/home/avees/optee_local_build/Linux_for_Tegra/sources/tegra/optee-src/nv-optee/optee/optee_os/lib/libutils/ext/trace.c:259
     804:	aa1703e5 	mov	x5, x23
     808:	2a1403e2 	mov	w2, w20
     80c:	2a1603e1 	mov	w1, w22
     810:	aa1503e0 	mov	x0, x21
     814:	f0000064 	adrp	x4, f000 <__text_end+0x2508>
     818:	52800023 	mov	w3, #0x1                   	// #1
     81c:	9129f084 	add	x4, x4, #0xa7c
     820:	97ffff6c 	bl	5d0 <trace_printf>
/home/avees/optee_local_build/Linux_for_Tegra/sources/tegra/optee-src/nv-optee/optee/optee_os/lib/libutils/ext/trace.c:261
     824:	f900b3ff 	str	xzr, [sp, #352]
     828:	17fffff3 	b	7f4 <dhex_dump+0x144>
/home/avees/optee_local_build/Linux_for_Tegra/sources/tegra/optee-src/nv-optee/optee/optee_os/lib/libutils/ext/trace.c:274
     82c:	a94153f3 	ldp	x19, x20, [sp, #16]
     830:	a9425bf5 	ldp	x21, x22, [sp, #32]
     834:	a94363f7 	ldp	x23, x24, [sp, #48]
     838:	a9446bf9 	ldp	x25, x26, [sp, #64]
     83c:	a94573fb 	ldp	x27, x28, [sp, #80]
     840:	a8d77bfd 	ldp	x29, x30, [sp], #368
     844:	d65f03c0 	ret

0000000000000848 <__stack_chk_fail>:
__stack_chk_fail():
/home/avees/optee_local_build/Linux_for_Tegra/sources/tegra/optee-src/nv-optee/optee/optee_os/lib/libutils/isoc/stack_check.c:24
     848:	a9bf7bfd 	stp	x29, x30, [sp, #-16]!
/home/avees/optee_local_build/Linux_for_Tegra/sources/tegra/optee-src/nv-optee/optee/optee_os/lib/libutils/isoc/stack_check.c:25
     84c:	f0000064 	adrp	x4, f000 <__text_end+0x2508>
     850:	52800023 	mov	w3, #0x1                   	// #1
/home/avees/optee_local_build/Linux_for_Tegra/sources/tegra/optee-src/nv-optee/optee/optee_os/lib/libutils/isoc/stack_check.c:24
     854:	910003fd 	mov	x29, sp
/home/avees/optee_local_build/Linux_for_Tegra/sources/tegra/optee-src/nv-optee/optee/optee_os/lib/libutils/isoc/stack_check.c:25
     858:	912a7484 	add	x4, x4, #0xa9d
     85c:	52800022 	mov	w2, #0x1                   	// #1
     860:	52800001 	mov	w1, #0x0                   	// #0
     864:	d2800000 	mov	x0, #0x0                   	// #0
     868:	97ffff5a 	bl	5d0 <trace_printf>
/home/avees/optee_local_build/Linux_for_Tegra/sources/tegra/optee-src/nv-optee/optee/optee_os/lib/libutils/isoc/stack_check.c:27 (discriminator 1)
     86c:	1299fe00 	mov	w0, #0xffff300f            	// #-53233
     870:	940005e3 	bl	1ffc <_utee_panic>
/home/avees/optee_local_build/Linux_for_Tegra/sources/tegra/optee-src/nv-optee/optee/optee_os/lib/libutils/isoc/stack_check.c:26 (discriminator 1)
     874:	17fffffe 	b	86c <__stack_chk_fail+0x24>

0000000000000878 <__vsnprintf>:
__vsnprintf():
/home/avees/optee_local_build/Linux_for_Tegra/sources/tegra/optee-src/nv-optee/optee/optee_os/lib/libutils/ext/snprintk.c:138
     878:	a9b97bfd 	stp	x29, x30, [sp, #-112]!
     87c:	b0000085 	adrp	x5, 11000 <_DYNAMIC>
     880:	910003fd 	mov	x29, sp
     884:	f94098a5 	ldr	x5, [x5, #304]
     888:	a90153f3 	stp	x19, x20, [sp, #16]
     88c:	aa0003f3 	mov	x19, x0
     890:	aa0103f4 	mov	x20, x1
     894:	f94000a0 	ldr	x0, [x5]
     898:	f90037e0 	str	x0, [sp, #104]
     89c:	d2800000 	mov	x0, #0x0                   	// #0
     8a0:	aa0303e1 	mov	x1, x3
/home/avees/optee_local_build/Linux_for_Tegra/sources/tegra/optee-src/nv-optee/optee/optee_os/lib/libutils/ext/snprintk.c:143
     8a4:	910103e0 	add	x0, sp, #0x40
/home/avees/optee_local_build/Linux_for_Tegra/sources/tegra/optee-src/nv-optee/optee/optee_os/lib/libutils/ext/snprintk.c:138
     8a8:	a9025bf5 	stp	x21, x22, [sp, #32]
     8ac:	aa0203f5 	mov	x21, x2
/home/avees/optee_local_build/Linux_for_Tegra/sources/tegra/optee-src/nv-optee/optee/optee_os/lib/libutils/ext/snprintk.c:142
     8b0:	8b140276 	add	x22, x19, x20
/home/avees/optee_local_build/Linux_for_Tegra/sources/tegra/optee-src/nv-optee/optee/optee_os/lib/libutils/ext/snprintk.c:143
     8b4:	d2800402 	mov	x2, #0x20                  	// #32
/home/avees/optee_local_build/Linux_for_Tegra/sources/tegra/optee-src/nv-optee/optee/optee_os/lib/libutils/ext/snprintk.c:138
     8b8:	f9001bf7 	str	x23, [sp, #48]
     8bc:	12001c97 	and	w23, w4, #0xff
/home/avees/optee_local_build/Linux_for_Tegra/sources/tegra/optee-src/nv-optee/optee/optee_os/lib/libutils/ext/snprintk.c:142
     8c0:	f90033f6 	str	x22, [sp, #96]
/home/avees/optee_local_build/Linux_for_Tegra/sources/tegra/optee-src/nv-optee/optee/optee_os/lib/libutils/ext/snprintk.c:143
     8c4:	97fffdd7 	bl	20 <memcpy>
     8c8:	aa0003e3 	mov	x3, x0
     8cc:	2a1703e4 	mov	w4, w23
     8d0:	aa1303e2 	mov	x2, x19
     8d4:	910183e1 	add	x1, sp, #0x60
     8d8:	aa1503e0 	mov	x0, x21
     8dc:	94000060 	bl	a5c <kprintf.constprop.0>
/home/avees/optee_local_build/Linux_for_Tegra/sources/tegra/optee-src/nv-optee/optee/optee_os/lib/libutils/ext/snprintk.c:144
     8e0:	f100027f 	cmp	x19, #0x0
     8e4:	fa401a84 	ccmp	x20, #0x0, #0x4, ne  // ne = any
     8e8:	540000a0 	b.eq	8fc <__vsnprintf+0x84>  // b.none
/home/avees/optee_local_build/Linux_for_Tegra/sources/tegra/optee-src/nv-optee/optee/optee_os/lib/libutils/ext/snprintk.c:146
     8ec:	93407c01 	sxtw	x1, w0
     8f0:	eb20c29f 	cmp	x20, w0, sxtw
     8f4:	54000148 	b.hi	91c <__vsnprintf+0xa4>  // b.pmore
/home/avees/optee_local_build/Linux_for_Tegra/sources/tegra/optee-src/nv-optee/optee/optee_os/lib/libutils/ext/snprintk.c:147
     8f8:	381ff2df 	sturb	wzr, [x22, #-1]
/home/avees/optee_local_build/Linux_for_Tegra/sources/tegra/optee-src/nv-optee/optee/optee_os/lib/libutils/ext/snprintk.c:152
     8fc:	b0000085 	adrp	x5, 11000 <_DYNAMIC>
     900:	f94098a5 	ldr	x5, [x5, #304]
     904:	f94037e1 	ldr	x1, [sp, #104]
     908:	f94000a2 	ldr	x2, [x5]
     90c:	eb020021 	subs	x1, x1, x2
     910:	d2800002 	mov	x2, #0x0                   	// #0
     914:	54000080 	b.eq	924 <__vsnprintf+0xac>  // b.none
     918:	97ffffcc 	bl	848 <__stack_chk_fail>
/home/avees/optee_local_build/Linux_for_Tegra/sources/tegra/optee-src/nv-optee/optee/optee_os/lib/libutils/ext/snprintk.c:149
     91c:	38216a7f 	strb	wzr, [x19, x1]
/home/avees/optee_local_build/Linux_for_Tegra/sources/tegra/optee-src/nv-optee/optee/optee_os/lib/libutils/ext/snprintk.c:151
     920:	17fffff7 	b	8fc <__vsnprintf+0x84>
/home/avees/optee_local_build/Linux_for_Tegra/sources/tegra/optee-src/nv-optee/optee/optee_os/lib/libutils/ext/snprintk.c:152
     924:	a94153f3 	ldp	x19, x20, [sp, #16]
     928:	a9425bf5 	ldp	x21, x22, [sp, #32]
     92c:	f9401bf7 	ldr	x23, [sp, #48]
     930:	a8c77bfd 	ldp	x29, x30, [sp], #112
     934:	d65f03c0 	ret

0000000000000938 <vsnprintk>:
vsnprintk():
/home/avees/optee_local_build/Linux_for_Tegra/sources/tegra/optee-src/nv-optee/optee/optee_os/lib/libutils/ext/snprintk.c:130
     938:	a9bb7bfd 	stp	x29, x30, [sp, #-80]!
/home/avees/optee_local_build/Linux_for_Tegra/sources/tegra/optee-src/nv-optee/optee/optee_os/lib/libutils/ext/snprintk.c:131
     93c:	9100c3e4 	add	x4, sp, #0x30
/home/avees/optee_local_build/Linux_for_Tegra/sources/tegra/optee-src/nv-optee/optee/optee_os/lib/libutils/ext/snprintk.c:130
     940:	910003fd 	mov	x29, sp
     944:	a90153f3 	stp	x19, x20, [sp, #16]
     948:	aa0003f3 	mov	x19, x0
     94c:	aa0103f4 	mov	x20, x1
/home/avees/optee_local_build/Linux_for_Tegra/sources/tegra/optee-src/nv-optee/optee/optee_os/lib/libutils/ext/snprintk.c:131
     950:	aa0403e0 	mov	x0, x4
/home/avees/optee_local_build/Linux_for_Tegra/sources/tegra/optee-src/nv-optee/optee/optee_os/lib/libutils/ext/snprintk.c:130
     954:	aa0303e1 	mov	x1, x3
     958:	f90013f5 	str	x21, [sp, #32]
     95c:	aa0203f5 	mov	x21, x2
/home/avees/optee_local_build/Linux_for_Tegra/sources/tegra/optee-src/nv-optee/optee/optee_os/lib/libutils/ext/snprintk.c:131
     960:	d2800402 	mov	x2, #0x20                  	// #32
     964:	97fffdaf 	bl	20 <memcpy>
     968:	aa1503e2 	mov	x2, x21
     96c:	aa0003e3 	mov	x3, x0
     970:	aa1403e1 	mov	x1, x20
     974:	aa1303e0 	mov	x0, x19
     978:	52800024 	mov	w4, #0x1                   	// #1
     97c:	97ffffbf 	bl	878 <__vsnprintf>
/home/avees/optee_local_build/Linux_for_Tegra/sources/tegra/optee-src/nv-optee/optee/optee_os/lib/libutils/ext/snprintk.c:132
     980:	a94153f3 	ldp	x19, x20, [sp, #16]
     984:	f94013f5 	ldr	x21, [sp, #32]
     988:	a8c57bfd 	ldp	x29, x30, [sp], #80
     98c:	d65f03c0 	ret

0000000000000990 <snprintk>:
snprintk():
/home/avees/optee_local_build/Linux_for_Tegra/sources/tegra/optee-src/nv-optee/optee/optee_os/lib/libutils/ext/snprintk.c:113
     990:	a9ad7bfd 	stp	x29, x30, [sp, #-304]!
     994:	910003fd 	mov	x29, sp
     998:	a90153f3 	stp	x19, x20, [sp, #16]
     99c:	b0000093 	adrp	x19, 11000 <_DYNAMIC>
     9a0:	aa0003f4 	mov	x20, x0
     9a4:	f9409a73 	ldr	x19, [x19, #304]
     9a8:	3d8023e0 	str	q0, [sp, #128]
     9ac:	3d8027e1 	str	q1, [sp, #144]
     9b0:	3d802be2 	str	q2, [sp, #160]
     9b4:	3d802fe3 	str	q3, [sp, #176]
     9b8:	3d8033e4 	str	q4, [sp, #192]
     9bc:	3d8037e5 	str	q5, [sp, #208]
     9c0:	3d803be6 	str	q6, [sp, #224]
     9c4:	3d803fe7 	str	q7, [sp, #240]
     9c8:	a91093e3 	stp	x3, x4, [sp, #264]
/home/avees/optee_local_build/Linux_for_Tegra/sources/tegra/optee-src/nv-optee/optee/optee_os/lib/libutils/ext/snprintk.c:118
     9cc:	9100c3e3 	add	x3, sp, #0x30
/home/avees/optee_local_build/Linux_for_Tegra/sources/tegra/optee-src/nv-optee/optee/optee_os/lib/libutils/ext/snprintk.c:113
     9d0:	a9119be5 	stp	x5, x6, [sp, #280]
     9d4:	f90097e7 	str	x7, [sp, #296]
     9d8:	a9025bf5 	stp	x21, x22, [sp, #32]
     9dc:	aa0103f5 	mov	x21, x1
     9e0:	f9400260 	ldr	x0, [x19]
     9e4:	f9003fe0 	str	x0, [sp, #120]
     9e8:	d2800000 	mov	x0, #0x0                   	// #0
/home/avees/optee_local_build/Linux_for_Tegra/sources/tegra/optee-src/nv-optee/optee/optee_os/lib/libutils/ext/snprintk.c:117
     9ec:	9104c3e0 	add	x0, sp, #0x130
     9f0:	a90583e0 	stp	x0, x0, [sp, #88]
     9f4:	910403e0 	add	x0, sp, #0x100
     9f8:	f90037e0 	str	x0, [sp, #104]
     9fc:	128004e0 	mov	w0, #0xffffffd8            	// #-40
     a00:	b90073e0 	str	w0, [sp, #112]
     a04:	12800fe0 	mov	w0, #0xffffff80            	// #-128
/home/avees/optee_local_build/Linux_for_Tegra/sources/tegra/optee-src/nv-optee/optee/optee_os/lib/libutils/ext/snprintk.c:113
     a08:	aa0203f6 	mov	x22, x2
/home/avees/optee_local_build/Linux_for_Tegra/sources/tegra/optee-src/nv-optee/optee/optee_os/lib/libutils/ext/snprintk.c:118
     a0c:	910163e1 	add	x1, sp, #0x58
     a10:	d2800402 	mov	x2, #0x20                  	// #32
/home/avees/optee_local_build/Linux_for_Tegra/sources/tegra/optee-src/nv-optee/optee/optee_os/lib/libutils/ext/snprintk.c:117
     a14:	b90077e0 	str	w0, [sp, #116]
/home/avees/optee_local_build/Linux_for_Tegra/sources/tegra/optee-src/nv-optee/optee/optee_os/lib/libutils/ext/snprintk.c:118
     a18:	aa0303e0 	mov	x0, x3
     a1c:	97fffd81 	bl	20 <memcpy>
     a20:	aa1603e2 	mov	x2, x22
     a24:	aa0003e3 	mov	x3, x0
     a28:	aa1503e1 	mov	x1, x21
     a2c:	aa1403e0 	mov	x0, x20
     a30:	97ffffc2 	bl	938 <vsnprintk>
/home/avees/optee_local_build/Linux_for_Tegra/sources/tegra/optee-src/nv-optee/optee/optee_os/lib/libutils/ext/snprintk.c:122
     a34:	f9403fe1 	ldr	x1, [sp, #120]
     a38:	f9400262 	ldr	x2, [x19]
     a3c:	eb020021 	subs	x1, x1, x2
     a40:	d2800002 	mov	x2, #0x0                   	// #0
     a44:	54000040 	b.eq	a4c <snprintk+0xbc>  // b.none
     a48:	97ffff80 	bl	848 <__stack_chk_fail>
     a4c:	a94153f3 	ldp	x19, x20, [sp, #16]
     a50:	a9425bf5 	ldp	x21, x22, [sp, #32]
     a54:	a8d37bfd 	ldp	x29, x30, [sp], #304
     a58:	d65f03c0 	ret

0000000000000a5c <kprintf.constprop.0>:
kprintf():
/home/avees/optee_local_build/Linux_for_Tegra/sources/tegra/optee-src/nv-optee/optee/optee_os/lib/libutils/ext/snprintk.c:242
     a5c:	d103c3ff 	sub	sp, sp, #0xf0
     a60:	aa0103e8 	mov	x8, x1
     a64:	a9037bfd 	stp	x29, x30, [sp, #48]
     a68:	9100c3fd 	add	x29, sp, #0x30
     a6c:	a90873fb 	stp	x27, x28, [sp, #128]
     a70:	aa0003fb 	mov	x27, x0
     a74:	12001c80 	and	w0, w4, #0xff
     a78:	b900a3e0 	str	w0, [sp, #160]
     a7c:	b0000080 	adrp	x0, 11000 <_DYNAMIC>
     a80:	a90453f3 	stp	x19, x20, [sp, #64]
     a84:	b9401874 	ldr	w20, [x3, #24]
     a88:	f9409800 	ldr	x0, [x0, #304]
     a8c:	a9055bf5 	stp	x21, x22, [sp, #80]
     a90:	aa0203f6 	mov	x22, x2
     a94:	f9400001 	ldr	x1, [x0]
     a98:	f90077e1 	str	x1, [sp, #232]
     a9c:	d2800001 	mov	x1, #0x0                   	// #0
     aa0:	a90663f7 	stp	x23, x24, [sp, #96]
     aa4:	a9076bf9 	stp	x25, x26, [sp, #112]
     aa8:	a9406873 	ldp	x19, x26, [x3]
/home/avees/optee_local_build/Linux_for_Tegra/sources/tegra/optee-src/nv-optee/optee/optee_os/lib/libutils/ext/snprintk.c:264
     aac:	b40004c8 	cbz	x8, b44 <kprintf.constprop.0+0xe8>
/home/avees/optee_local_build/Linux_for_Tegra/sources/tegra/optee-src/nv-optee/optee/optee_os/lib/libutils/ext/snprintk.c:265
     ab0:	f9400118 	ldr	x24, [x8]
/home/avees/optee_local_build/Linux_for_Tegra/sources/tegra/optee-src/nv-optee/optee/optee_os/lib/libutils/ext/snprintk.c:543
     ab4:	910303ec 	add	x12, sp, #0xc0
     ab8:	f0000060 	adrp	x0, f000 <__text_end+0x2508>
/home/avees/optee_local_build/Linux_for_Tegra/sources/tegra/optee-src/nv-optee/optee/optee_os/lib/libutils/ext/snprintk.c:275
     abc:	d2800017 	mov	x23, #0x0                   	// #0
     ac0:	91106000 	add	x0, x0, #0x418
/home/avees/optee_local_build/Linux_for_Tegra/sources/tegra/optee-src/nv-optee/optee/optee_os/lib/libutils/ext/snprintk.c:273
     ac4:	52800019 	mov	w25, #0x0                   	// #0
     ac8:	f9004be0 	str	x0, [sp, #144]
/home/avees/optee_local_build/Linux_for_Tegra/sources/tegra/optee-src/nv-optee/optee/optee_os/lib/libutils/ext/snprintk.c:281
     acc:	39400360 	ldrb	w0, [x27]
     ad0:	7100941f 	cmp	w0, #0x25
     ad4:	7a401804 	ccmp	w0, #0x0, #0x4, ne  // ne = any
     ad8:	540003a1 	b.ne	b4c <kprintf.constprop.0+0xf0>  // b.any
/home/avees/optee_local_build/Linux_for_Tegra/sources/tegra/optee-src/nv-optee/optee/optee_os/lib/libutils/ext/snprintk.c:285
     adc:	34005260 	cbz	w0, 1528 <kprintf.constprop.0+0xacc>
/home/avees/optee_local_build/Linux_for_Tegra/sources/tegra/optee-src/nv-optee/optee/optee_os/lib/libutils/ext/snprintk.c:293
     ae0:	12800005 	mov	w5, #0xffffffff            	// #-1
     ae4:	f0000066 	adrp	x6, f000 <__text_end+0x2508>
/home/avees/optee_local_build/Linux_for_Tegra/sources/tegra/optee-src/nv-optee/optee/optee_os/lib/libutils/ext/snprintk.c:288
     ae8:	9100077b 	add	x27, x27, #0x1
     aec:	2a1403e4 	mov	w4, w20
     af0:	aa1303e3 	mov	x3, x19
     af4:	9110d0c6 	add	x6, x6, #0x434
/home/avees/optee_local_build/Linux_for_Tegra/sources/tegra/optee-src/nv-optee/optee/optee_os/lib/libutils/ext/snprintk.c:330
     af8:	2a0503ee 	mov	w14, w5
/home/avees/optee_local_build/Linux_for_Tegra/sources/tegra/optee-src/nv-optee/optee/optee_os/lib/libutils/ext/snprintk.c:294
     afc:	52800001 	mov	w1, #0x0                   	// #0
/home/avees/optee_local_build/Linux_for_Tegra/sources/tegra/optee-src/nv-optee/optee/optee_os/lib/libutils/ext/snprintk.c:292
     b00:	5280000a 	mov	w10, #0x0                   	// #0
/home/avees/optee_local_build/Linux_for_Tegra/sources/tegra/optee-src/nv-optee/optee/optee_os/lib/libutils/ext/snprintk.c:290
     b04:	52800015 	mov	w21, #0x0                   	// #0
/home/avees/optee_local_build/Linux_for_Tegra/sources/tegra/optee-src/nv-optee/optee/optee_os/lib/libutils/ext/snprintk.c:352
     b08:	5280014d 	mov	w13, #0xa                   	// #10
/home/avees/optee_local_build/Linux_for_Tegra/sources/tegra/optee-src/nv-optee/optee/optee_os/lib/libutils/ext/snprintk.c:305
     b0c:	5280040f 	mov	w15, #0x20                  	// #32
/home/avees/optee_local_build/Linux_for_Tegra/sources/tegra/optee-src/nv-optee/optee/optee_os/lib/libutils/ext/snprintk.c:296
     b10:	3840177c 	ldrb	w28, [x27], #1
/home/avees/optee_local_build/Linux_for_Tegra/sources/tegra/optee-src/nv-optee/optee/optee_os/lib/libutils/ext/snprintk.c:297
     b14:	7100e79f 	cmp	w28, #0x39
     b18:	5400054c 	b.gt	bc0 <kprintf.constprop.0+0x164>
     b1c:	71007f9f 	cmp	w28, #0x1f
     b20:	5400502d 	b.le	1524 <kprintf.constprop.0+0xac8>
     b24:	51008380 	sub	w0, w28, #0x20
     b28:	7100641f 	cmp	w0, #0x19
     b2c:	54000508 	b.hi	bcc <kprintf.constprop.0+0x170>  // b.pmore
     b30:	f9404be2 	ldr	x2, [sp, #144]
     b34:	38604840 	ldrb	w0, [x2, w0, uxtw]
     b38:	10000062 	adr	x2, b44 <kprintf.constprop.0+0xe8>
     b3c:	8b208840 	add	x0, x2, w0, sxtb #2
     b40:	d61f0000 	br	x0
/home/avees/optee_local_build/Linux_for_Tegra/sources/tegra/optee-src/nv-optee/optee/optee_os/lib/libutils/ext/snprintk.c:267
     b44:	d2800018 	mov	x24, #0x0                   	// #0
     b48:	17ffffdb 	b	ab4 <kprintf.constprop.0+0x58>
/home/avees/optee_local_build/Linux_for_Tegra/sources/tegra/optee-src/nv-optee/optee/optee_os/lib/libutils/ext/snprintk.c:282
     b4c:	11000739 	add	w25, w25, #0x1
/home/avees/optee_local_build/Linux_for_Tegra/sources/tegra/optee-src/nv-optee/optee/optee_os/lib/libutils/ext/snprintk.c:283
     b50:	b40000b6 	cbz	x22, b64 <kprintf.constprop.0+0x108>
     b54:	f100011f 	cmp	x8, #0x0
     b58:	fa5812c0 	ccmp	x22, x24, #0x0, ne  // ne = any
     b5c:	54000042 	b.cs	b64 <kprintf.constprop.0+0x108>  // b.hs, b.nlast
     b60:	380016c0 	strb	w0, [x22], #1
/home/avees/optee_local_build/Linux_for_Tegra/sources/tegra/optee-src/nv-optee/optee/optee_os/lib/libutils/ext/snprintk.c:281
     b64:	9100077b 	add	x27, x27, #0x1
     b68:	17ffffd9 	b	acc <kprintf.constprop.0+0x70>
/home/avees/optee_local_build/Linux_for_Tegra/sources/tegra/optee-src/nv-optee/optee/optee_os/lib/libutils/ext/snprintk.c:325
     b6c:	52800561 	mov	w1, #0x2b                  	// #43
     b70:	17ffffe8 	b	b10 <kprintf.constprop.0+0xb4>
     b74:	786058c0 	ldrh	w0, [x6, w0, uxtw #1]
     b78:	10000062 	adr	x2, b84 <kprintf.constprop.0+0x128>
     b7c:	8b20a840 	add	x0, x2, w0, sxth #2
     b80:	d61f0000 	br	x0
/home/avees/optee_local_build/Linux_for_Tegra/sources/tegra/optee-src/nv-optee/optee/optee_os/lib/libutils/ext/snprintk.c:480
     b84:	f0000077 	adrp	x23, f000 <__text_end+0x2508>
     b88:	91128af7 	add	x23, x23, #0x4a2
     b8c:	910046f7 	add	x23, x23, #0x11
/home/avees/optee_local_build/Linux_for_Tegra/sources/tegra/optee-src/nv-optee/optee/optee_os/lib/libutils/ext/snprintk.c:481
     b90:	36384515 	tbz	w21, #7, 1430 <kprintf.constprop.0+0x9d4>
     b94:	37f84644 	tbnz	w4, #31, 145c <kprintf.constprop.0+0xa00>
     b98:	91003c73 	add	x19, x3, #0xf
     b9c:	2a0403f4 	mov	w20, w4
     ba0:	927df273 	and	x19, x19, #0xfffffffffffffff8
     ba4:	f9400062 	ldr	x2, [x3]
/home/avees/optee_local_build/Linux_for_Tegra/sources/tegra/optee-src/nv-optee/optee/optee_os/lib/libutils/ext/snprintk.c:484
     ba8:	36003475 	tbz	w21, #0, 1234 <kprintf.constprop.0+0x7d8>
     bac:	b4003442 	cbz	x2, 1234 <kprintf.constprop.0+0x7d8>
/home/avees/optee_local_build/Linux_for_Tegra/sources/tegra/optee-src/nv-optee/optee/optee_os/lib/libutils/ext/snprintk.c:485
     bb0:	321f02b5 	orr	w21, w21, #0x2
/home/avees/optee_local_build/Linux_for_Tegra/sources/tegra/optee-src/nv-optee/optee/optee_os/lib/libutils/ext/snprintk.c:482
     bb4:	52800040 	mov	w0, #0x2                   	// #2
/home/avees/optee_local_build/Linux_for_Tegra/sources/tegra/optee-src/nv-optee/optee/optee_os/lib/libutils/ext/snprintk.c:488
     bb8:	52800001 	mov	w1, #0x0                   	// #0
     bbc:	14000078 	b	d9c <kprintf.constprop.0+0x340>
/home/avees/optee_local_build/Linux_for_Tegra/sources/tegra/optee-src/nv-optee/optee/optee_os/lib/libutils/ext/snprintk.c:297
     bc0:	51011380 	sub	w0, w28, #0x44
     bc4:	7100d81f 	cmp	w0, #0x36
     bc8:	54fffd69 	b.ls	b74 <kprintf.constprop.0+0x118>  // b.plast
/home/avees/optee_local_build/Linux_for_Tegra/sources/tegra/optee-src/nv-optee/optee/optee_os/lib/libutils/ext/snprintk.c:554
     bcc:	2a0403f4 	mov	w20, w4
     bd0:	aa0303f3 	mov	x19, x3
/home/avees/optee_local_build/Linux_for_Tegra/sources/tegra/optee-src/nv-optee/optee/optee_os/lib/libutils/ext/snprintk.c:551
     bd4:	390303fc 	strb	w28, [sp, #192]
/home/avees/optee_local_build/Linux_for_Tegra/sources/tegra/optee-src/nv-optee/optee/optee_os/lib/libutils/ext/snprintk.c:554
     bd8:	14000058 	b	d38 <kprintf.constprop.0+0x2dc>
/home/avees/optee_local_build/Linux_for_Tegra/sources/tegra/optee-src/nv-optee/optee/optee_os/lib/libutils/ext/snprintk.c:305
     bdc:	7100003f 	cmp	w1, #0x0
     be0:	1a8f1021 	csel	w1, w1, w15, ne  // ne = any
     be4:	17ffffcb 	b	b10 <kprintf.constprop.0+0xb4>
/home/avees/optee_local_build/Linux_for_Tegra/sources/tegra/optee-src/nv-optee/optee/optee_os/lib/libutils/ext/snprintk.c:308
     be8:	320002b5 	orr	w21, w21, #0x1
/home/avees/optee_local_build/Linux_for_Tegra/sources/tegra/optee-src/nv-optee/optee/optee_os/lib/libutils/ext/snprintk.c:309
     bec:	17ffffc9 	b	b10 <kprintf.constprop.0+0xb4>
/home/avees/optee_local_build/Linux_for_Tegra/sources/tegra/optee-src/nv-optee/optee/optee_os/lib/libutils/ext/snprintk.c:317
     bf0:	37f80124 	tbnz	w4, #31, c14 <kprintf.constprop.0+0x1b8>
     bf4:	91002c62 	add	x2, x3, #0xb
     bf8:	aa0303e0 	mov	x0, x3
     bfc:	927df043 	and	x3, x2, #0xfffffffffffffff8
     c00:	b940000a 	ldr	w10, [x0]
     c04:	36fff86a 	tbz	w10, #31, b10 <kprintf.constprop.0+0xb4>
/home/avees/optee_local_build/Linux_for_Tegra/sources/tegra/optee-src/nv-optee/optee/optee_os/lib/libutils/ext/snprintk.c:319
     c08:	4b0a03ea 	neg	w10, w10
/home/avees/optee_local_build/Linux_for_Tegra/sources/tegra/optee-src/nv-optee/optee/optee_os/lib/libutils/ext/snprintk.c:322
     c0c:	321e02b5 	orr	w21, w21, #0x4
/home/avees/optee_local_build/Linux_for_Tegra/sources/tegra/optee-src/nv-optee/optee/optee_os/lib/libutils/ext/snprintk.c:323
     c10:	17ffffc0 	b	b10 <kprintf.constprop.0+0xb4>
/home/avees/optee_local_build/Linux_for_Tegra/sources/tegra/optee-src/nv-optee/optee/optee_os/lib/libutils/ext/snprintk.c:317
     c14:	11002082 	add	w2, w4, #0x8
     c18:	7100005f 	cmp	w2, #0x0
     c1c:	540000cd 	b.le	c34 <kprintf.constprop.0+0x1d8>
     c20:	91002c67 	add	x7, x3, #0xb
     c24:	aa0303e0 	mov	x0, x3
     c28:	2a0203e4 	mov	w4, w2
     c2c:	927df0e3 	and	x3, x7, #0xfffffffffffffff8
     c30:	17fffff4 	b	c00 <kprintf.constprop.0+0x1a4>
     c34:	8b24c340 	add	x0, x26, w4, sxtw
     c38:	2a0203e4 	mov	w4, w2
     c3c:	17fffff1 	b	c00 <kprintf.constprop.0+0x1a4>
/home/avees/optee_local_build/Linux_for_Tegra/sources/tegra/optee-src/nv-optee/optee/optee_os/lib/libutils/ext/snprintk.c:328
     c40:	3840177c 	ldrb	w28, [x27], #1
     c44:	7100ab9f 	cmp	w28, #0x2a
     c48:	54000341 	b.ne	cb0 <kprintf.constprop.0+0x254>  // b.any
/home/avees/optee_local_build/Linux_for_Tegra/sources/tegra/optee-src/nv-optee/optee/optee_os/lib/libutils/ext/snprintk.c:329
     c4c:	37f80144 	tbnz	w4, #31, c74 <kprintf.constprop.0+0x218>
     c50:	91002c62 	add	x2, x3, #0xb
     c54:	2a0403e7 	mov	w7, w4
     c58:	927df042 	and	x2, x2, #0xfffffffffffffff8
/home/avees/optee_local_build/Linux_for_Tegra/sources/tegra/optee-src/nv-optee/optee/optee_os/lib/libutils/ext/snprintk.c:330
     c5c:	b9400065 	ldr	w5, [x3]
/home/avees/optee_local_build/Linux_for_Tegra/sources/tegra/optee-src/nv-optee/optee/optee_os/lib/libutils/ext/snprintk.c:331
     c60:	2a0703e4 	mov	w4, w7
     c64:	aa0203e3 	mov	x3, x2
/home/avees/optee_local_build/Linux_for_Tegra/sources/tegra/optee-src/nv-optee/optee/optee_os/lib/libutils/ext/snprintk.c:330
     c68:	710000bf 	cmp	w5, #0x0
     c6c:	1a8ea0a5 	csel	w5, w5, w14, ge  // ge = tcont
/home/avees/optee_local_build/Linux_for_Tegra/sources/tegra/optee-src/nv-optee/optee/optee_os/lib/libutils/ext/snprintk.c:331
     c70:	17ffffa8 	b	b10 <kprintf.constprop.0+0xb4>
/home/avees/optee_local_build/Linux_for_Tegra/sources/tegra/optee-src/nv-optee/optee/optee_os/lib/libutils/ext/snprintk.c:329
     c74:	11002087 	add	w7, w4, #0x8
     c78:	710000ff 	cmp	w7, #0x0
     c7c:	5400008d 	b.le	c8c <kprintf.constprop.0+0x230>
     c80:	91002c62 	add	x2, x3, #0xb
     c84:	927df042 	and	x2, x2, #0xfffffffffffffff8
     c88:	17fffff5 	b	c5c <kprintf.constprop.0+0x200>
     c8c:	aa0303e2 	mov	x2, x3
     c90:	8b24c343 	add	x3, x26, w4, sxtw
     c94:	17fffff2 	b	c5c <kprintf.constprop.0+0x200>
/home/avees/optee_local_build/Linux_for_Tegra/sources/tegra/optee-src/nv-optee/optee/optee_os/lib/libutils/ext/snprintk.c:335
     c98:	1b0d00a5 	madd	w5, w5, w13, w0
/home/avees/optee_local_build/Linux_for_Tegra/sources/tegra/optee-src/nv-optee/optee/optee_os/lib/libutils/ext/snprintk.c:336
     c9c:	3840177c 	ldrb	w28, [x27], #1
/home/avees/optee_local_build/Linux_for_Tegra/sources/tegra/optee-src/nv-optee/optee/optee_os/lib/libutils/ext/snprintk.c:334
     ca0:	5100c380 	sub	w0, w28, #0x30
     ca4:	7100241f 	cmp	w0, #0x9
     ca8:	54ffff89 	b.ls	c98 <kprintf.constprop.0+0x23c>  // b.plast
     cac:	17ffff9a 	b	b14 <kprintf.constprop.0+0xb8>
/home/avees/optee_local_build/Linux_for_Tegra/sources/tegra/optee-src/nv-optee/optee/optee_os/lib/libutils/ext/snprintk.c:333
     cb0:	52800005 	mov	w5, #0x0                   	// #0
     cb4:	17fffffb 	b	ca0 <kprintf.constprop.0+0x244>
/home/avees/optee_local_build/Linux_for_Tegra/sources/tegra/optee-src/nv-optee/optee/optee_os/lib/libutils/ext/snprintk.c:346
     cb8:	321602b5 	orr	w21, w21, #0x400
/home/avees/optee_local_build/Linux_for_Tegra/sources/tegra/optee-src/nv-optee/optee/optee_os/lib/libutils/ext/snprintk.c:347
     cbc:	17ffff95 	b	b10 <kprintf.constprop.0+0xb4>
/home/avees/optee_local_build/Linux_for_Tegra/sources/tegra/optee-src/nv-optee/optee/optee_os/lib/libutils/ext/snprintk.c:297
     cc0:	5280000a 	mov	w10, #0x0                   	// #0
/home/avees/optee_local_build/Linux_for_Tegra/sources/tegra/optee-src/nv-optee/optee/optee_os/lib/libutils/ext/snprintk.c:352
     cc4:	5100c39c 	sub	w28, w28, #0x30
     cc8:	1b0d714a 	madd	w10, w10, w13, w28
/home/avees/optee_local_build/Linux_for_Tegra/sources/tegra/optee-src/nv-optee/optee/optee_os/lib/libutils/ext/snprintk.c:353
     ccc:	3840177c 	ldrb	w28, [x27], #1
/home/avees/optee_local_build/Linux_for_Tegra/sources/tegra/optee-src/nv-optee/optee/optee_os/lib/libutils/ext/snprintk.c:354
     cd0:	5100c380 	sub	w0, w28, #0x30
     cd4:	7100241f 	cmp	w0, #0x9
     cd8:	54ffff69 	b.ls	cc4 <kprintf.constprop.0+0x268>  // b.plast
     cdc:	17ffff8e 	b	b14 <kprintf.constprop.0+0xb8>
/home/avees/optee_local_build/Linux_for_Tegra/sources/tegra/optee-src/nv-optee/optee/optee_os/lib/libutils/ext/snprintk.c:358
     ce0:	321a02b5 	orr	w21, w21, #0x40
/home/avees/optee_local_build/Linux_for_Tegra/sources/tegra/optee-src/nv-optee/optee/optee_os/lib/libutils/ext/snprintk.c:359
     ce4:	17ffff8b 	b	b10 <kprintf.constprop.0+0xb4>
/home/avees/optee_local_build/Linux_for_Tegra/sources/tegra/optee-src/nv-optee/optee/optee_os/lib/libutils/ext/snprintk.c:361
     ce8:	321902b5 	orr	w21, w21, #0x80
/home/avees/optee_local_build/Linux_for_Tegra/sources/tegra/optee-src/nv-optee/optee/optee_os/lib/libutils/ext/snprintk.c:362
     cec:	17ffff89 	b	b10 <kprintf.constprop.0+0xb4>
/home/avees/optee_local_build/Linux_for_Tegra/sources/tegra/optee-src/nv-optee/optee/optee_os/lib/libutils/ext/snprintk.c:364
     cf0:	39400360 	ldrb	w0, [x27]
     cf4:	7101b01f 	cmp	w0, #0x6c
     cf8:	54000081 	b.ne	d08 <kprintf.constprop.0+0x2ac>  // b.any
     cfc:	9100077b 	add	x27, x27, #0x1
/home/avees/optee_local_build/Linux_for_Tegra/sources/tegra/optee-src/nv-optee/optee/optee_os/lib/libutils/ext/snprintk.c:372
     d00:	321b02b5 	orr	w21, w21, #0x20
/home/avees/optee_local_build/Linux_for_Tegra/sources/tegra/optee-src/nv-optee/optee/optee_os/lib/libutils/ext/snprintk.c:373
     d04:	17ffff83 	b	b10 <kprintf.constprop.0+0xb4>
/home/avees/optee_local_build/Linux_for_Tegra/sources/tegra/optee-src/nv-optee/optee/optee_os/lib/libutils/ext/snprintk.c:368
     d08:	321c02b5 	orr	w21, w21, #0x10
     d0c:	17ffff81 	b	b10 <kprintf.constprop.0+0xb4>
/home/avees/optee_local_build/Linux_for_Tegra/sources/tegra/optee-src/nv-optee/optee/optee_os/lib/libutils/ext/snprintk.c:375
     d10:	321802b5 	orr	w21, w21, #0x100
/home/avees/optee_local_build/Linux_for_Tegra/sources/tegra/optee-src/nv-optee/optee/optee_os/lib/libutils/ext/snprintk.c:376
     d14:	17ffff7f 	b	b10 <kprintf.constprop.0+0xb4>
/home/avees/optee_local_build/Linux_for_Tegra/sources/tegra/optee-src/nv-optee/optee/optee_os/lib/libutils/ext/snprintk.c:378
     d18:	321702b5 	orr	w21, w21, #0x200
/home/avees/optee_local_build/Linux_for_Tegra/sources/tegra/optee-src/nv-optee/optee/optee_os/lib/libutils/ext/snprintk.c:379
     d1c:	17ffff7d 	b	b10 <kprintf.constprop.0+0xb4>
/home/avees/optee_local_build/Linux_for_Tegra/sources/tegra/optee-src/nv-optee/optee/optee_os/lib/libutils/ext/snprintk.c:381
     d20:	37f80164 	tbnz	w4, #31, d4c <kprintf.constprop.0+0x2f0>
     d24:	91002c73 	add	x19, x3, #0xb
     d28:	2a0403f4 	mov	w20, w4
     d2c:	927df273 	and	x19, x19, #0xfffffffffffffff8
     d30:	b9400060 	ldr	w0, [x3]
     d34:	390303e0 	strb	w0, [sp, #192]
/home/avees/optee_local_build/Linux_for_Tegra/sources/tegra/optee-src/nv-optee/optee/optee_os/lib/libutils/ext/snprintk.c:550
     d38:	910303e3 	add	x3, sp, #0xc0
/home/avees/optee_local_build/Linux_for_Tegra/sources/tegra/optee-src/nv-optee/optee/optee_os/lib/libutils/ext/snprintk.c:552
     d3c:	52800025 	mov	w5, #0x1                   	// #1
/home/avees/optee_local_build/Linux_for_Tegra/sources/tegra/optee-src/nv-optee/optee/optee_os/lib/libutils/ext/snprintk.c:291
     d40:	52800006 	mov	w6, #0x0                   	// #0
/home/avees/optee_local_build/Linux_for_Tegra/sources/tegra/optee-src/nv-optee/optee/optee_os/lib/libutils/ext/snprintk.c:553
     d44:	52800001 	mov	w1, #0x0                   	// #0
/home/avees/optee_local_build/Linux_for_Tegra/sources/tegra/optee-src/nv-optee/optee/optee_os/lib/libutils/ext/snprintk.c:554
     d48:	140000fa 	b	1130 <kprintf.constprop.0+0x6d4>
/home/avees/optee_local_build/Linux_for_Tegra/sources/tegra/optee-src/nv-optee/optee/optee_os/lib/libutils/ext/snprintk.c:381
     d4c:	11002094 	add	w20, w4, #0x8
     d50:	7100029f 	cmp	w20, #0x0
     d54:	5400008d 	b.le	d64 <kprintf.constprop.0+0x308>
     d58:	91002c73 	add	x19, x3, #0xb
     d5c:	927df273 	and	x19, x19, #0xfffffffffffffff8
     d60:	17fffff4 	b	d30 <kprintf.constprop.0+0x2d4>
     d64:	aa0303f3 	mov	x19, x3
     d68:	8b24c343 	add	x3, x26, w4, sxtw
     d6c:	17fffff1 	b	d30 <kprintf.constprop.0+0x2d4>
/home/avees/optee_local_build/Linux_for_Tegra/sources/tegra/optee-src/nv-optee/optee/optee_os/lib/libutils/ext/snprintk.c:386
     d70:	321c02b5 	orr	w21, w21, #0x10
/home/avees/optee_local_build/Linux_for_Tegra/sources/tegra/optee-src/nv-optee/optee/optee_os/lib/libutils/ext/snprintk.c:390
     d74:	363802f5 	tbz	w21, #7, dd0 <kprintf.constprop.0+0x374>
     d78:	37f80424 	tbnz	w4, #31, dfc <kprintf.constprop.0+0x3a0>
     d7c:	91003c73 	add	x19, x3, #0xf
     d80:	2a0403f4 	mov	w20, w4
     d84:	927df273 	and	x19, x19, #0xfffffffffffffff8
     d88:	f9400062 	ldr	x2, [x3]
/home/avees/optee_local_build/Linux_for_Tegra/sources/tegra/optee-src/nv-optee/optee/optee_os/lib/libutils/ext/snprintk.c:391
     d8c:	b6f82e02 	tbz	x2, #63, 134c <kprintf.constprop.0+0x8f0>
/home/avees/optee_local_build/Linux_for_Tegra/sources/tegra/optee-src/nv-optee/optee/optee_os/lib/libutils/ext/snprintk.c:392
     d90:	cb0203e2 	neg	x2, x2
/home/avees/optee_local_build/Linux_for_Tegra/sources/tegra/optee-src/nv-optee/optee/optee_os/lib/libutils/ext/snprintk.c:395
     d94:	52800020 	mov	w0, #0x1                   	// #1
/home/avees/optee_local_build/Linux_for_Tegra/sources/tegra/optee-src/nv-optee/optee/optee_os/lib/libutils/ext/snprintk.c:393
     d98:	528005a1 	mov	w1, #0x2d                  	// #45
/home/avees/optee_local_build/Linux_for_Tegra/sources/tegra/optee-src/nv-optee/optee/optee_os/lib/libutils/ext/snprintk.c:494
     d9c:	310004bf 	cmn	w5, #0x1
     da0:	54003a21 	b.ne	14e4 <kprintf.constprop.0+0xa88>  // b.any
/home/avees/optee_local_build/Linux_for_Tegra/sources/tegra/optee-src/nv-optee/optee/optee_os/lib/libutils/ext/snprintk.c:509
     da4:	7100041f 	cmp	w0, #0x1
     da8:	54002d60 	b.eq	1354 <kprintf.constprop.0+0x8f8>  // b.none
     dac:	7100081f 	cmp	w0, #0x2
     db0:	54000ea1 	b.ne	f84 <kprintf.constprop.0+0x528>  // b.any
/home/avees/optee_local_build/Linux_for_Tegra/sources/tegra/optee-src/nv-optee/optee/optee_os/lib/libutils/ext/snprintk.c:502
     db4:	91009583 	add	x3, x12, #0x25
/home/avees/optee_local_build/Linux_for_Tegra/sources/tegra/optee-src/nv-optee/optee/optee_os/lib/libutils/ext/snprintk.c:531
     db8:	92400c40 	and	x0, x2, #0xf
/home/avees/optee_local_build/Linux_for_Tegra/sources/tegra/optee-src/nv-optee/optee/optee_os/lib/libutils/ext/snprintk.c:532
     dbc:	d344fc42 	lsr	x2, x2, #4
/home/avees/optee_local_build/Linux_for_Tegra/sources/tegra/optee-src/nv-optee/optee/optee_os/lib/libutils/ext/snprintk.c:531
     dc0:	38606ae0 	ldrb	w0, [x23, x0]
     dc4:	381ffc60 	strb	w0, [x3, #-1]!
/home/avees/optee_local_build/Linux_for_Tegra/sources/tegra/optee-src/nv-optee/optee/optee_os/lib/libutils/ext/snprintk.c:533
     dc8:	b5ffff82 	cbnz	x2, db8 <kprintf.constprop.0+0x35c>
     dcc:	1400007b 	b	fb8 <kprintf.constprop.0+0x55c>
/home/avees/optee_local_build/Linux_for_Tegra/sources/tegra/optee-src/nv-optee/optee/optee_os/lib/libutils/ext/snprintk.c:390
     dd0:	3747fd55 	tbnz	w21, #8, d78 <kprintf.constprop.0+0x31c>
     dd4:	374ffd35 	tbnz	w21, #9, d78 <kprintf.constprop.0+0x31c>
     dd8:	372ffd15 	tbnz	w21, #5, d78 <kprintf.constprop.0+0x31c>
     ddc:	3727fcf5 	tbnz	w21, #4, d78 <kprintf.constprop.0+0x31c>
     de0:	36300335 	tbz	w21, #6, e44 <kprintf.constprop.0+0x3e8>
     de4:	37f801e4 	tbnz	w4, #31, e20 <kprintf.constprop.0+0x3c4>
     de8:	91002c73 	add	x19, x3, #0xb
     dec:	2a0403f4 	mov	w20, w4
     df0:	927df273 	and	x19, x19, #0xfffffffffffffff8
     df4:	79800062 	ldrsh	x2, [x3]
     df8:	17ffffe5 	b	d8c <kprintf.constprop.0+0x330>
     dfc:	11002094 	add	w20, w4, #0x8
     e00:	7100029f 	cmp	w20, #0x0
     e04:	5400008d 	b.le	e14 <kprintf.constprop.0+0x3b8>
     e08:	91003c73 	add	x19, x3, #0xf
     e0c:	927df273 	and	x19, x19, #0xfffffffffffffff8
     e10:	17ffffde 	b	d88 <kprintf.constprop.0+0x32c>
     e14:	aa0303f3 	mov	x19, x3
     e18:	8b24c343 	add	x3, x26, w4, sxtw
     e1c:	17ffffdb 	b	d88 <kprintf.constprop.0+0x32c>
     e20:	11002094 	add	w20, w4, #0x8
     e24:	7100029f 	cmp	w20, #0x0
     e28:	5400008d 	b.le	e38 <kprintf.constprop.0+0x3dc>
     e2c:	91002c73 	add	x19, x3, #0xb
     e30:	927df273 	and	x19, x19, #0xfffffffffffffff8
     e34:	17fffff0 	b	df4 <kprintf.constprop.0+0x398>
     e38:	aa0303f3 	mov	x19, x3
     e3c:	8b24c343 	add	x3, x26, w4, sxtw
     e40:	17ffffed 	b	df4 <kprintf.constprop.0+0x398>
     e44:	37f800c4 	tbnz	w4, #31, e5c <kprintf.constprop.0+0x400>
     e48:	91002c73 	add	x19, x3, #0xb
     e4c:	2a0403f4 	mov	w20, w4
     e50:	927df273 	and	x19, x19, #0xfffffffffffffff8
     e54:	b9800062 	ldrsw	x2, [x3]
     e58:	17ffffcd 	b	d8c <kprintf.constprop.0+0x330>
     e5c:	11002094 	add	w20, w4, #0x8
     e60:	7100029f 	cmp	w20, #0x0
     e64:	5400008d 	b.le	e74 <kprintf.constprop.0+0x418>
     e68:	91002c73 	add	x19, x3, #0xb
     e6c:	927df273 	and	x19, x19, #0xfffffffffffffff8
     e70:	17fffff9 	b	e54 <kprintf.constprop.0+0x3f8>
     e74:	aa0303f3 	mov	x19, x3
     e78:	8b24c343 	add	x3, x26, w4, sxtw
     e7c:	17fffff6 	b	e54 <kprintf.constprop.0+0x3f8>
/home/avees/optee_local_build/Linux_for_Tegra/sources/tegra/optee-src/nv-optee/optee/optee_os/lib/libutils/ext/snprintk.c:398
     e80:	36380135 	tbz	w21, #7, ea4 <kprintf.constprop.0+0x448>
/home/avees/optee_local_build/Linux_for_Tegra/sources/tegra/optee-src/nv-optee/optee/optee_os/lib/libutils/ext/snprintk.c:407
     e84:	37f80284 	tbnz	w4, #31, ed4 <kprintf.constprop.0+0x478>
     e88:	91003c73 	add	x19, x3, #0xf
     e8c:	2a0403f4 	mov	w20, w4
     e90:	927df273 	and	x19, x19, #0xfffffffffffffff8
     e94:	f9400060 	ldr	x0, [x3]
     e98:	93407f21 	sxtw	x1, w25
     e9c:	f9000001 	str	x1, [x0]
     ea0:	17ffff0b 	b	acc <kprintf.constprop.0+0x70>
/home/avees/optee_local_build/Linux_for_Tegra/sources/tegra/optee-src/nv-optee/optee/optee_os/lib/libutils/ext/snprintk.c:400
     ea4:	3747ff15 	tbnz	w21, #8, e84 <kprintf.constprop.0+0x428>
/home/avees/optee_local_build/Linux_for_Tegra/sources/tegra/optee-src/nv-optee/optee/optee_os/lib/libutils/ext/snprintk.c:402
     ea8:	374ffef5 	tbnz	w21, #9, e84 <kprintf.constprop.0+0x428>
/home/avees/optee_local_build/Linux_for_Tegra/sources/tegra/optee-src/nv-optee/optee/optee_os/lib/libutils/ext/snprintk.c:404
     eac:	372ffed5 	tbnz	w21, #5, e84 <kprintf.constprop.0+0x428>
/home/avees/optee_local_build/Linux_for_Tegra/sources/tegra/optee-src/nv-optee/optee/optee_os/lib/libutils/ext/snprintk.c:406
     eb0:	3727feb5 	tbnz	w21, #4, e84 <kprintf.constprop.0+0x428>
/home/avees/optee_local_build/Linux_for_Tegra/sources/tegra/optee-src/nv-optee/optee/optee_os/lib/libutils/ext/snprintk.c:408
     eb4:	36300355 	tbz	w21, #6, f1c <kprintf.constprop.0+0x4c0>
/home/avees/optee_local_build/Linux_for_Tegra/sources/tegra/optee-src/nv-optee/optee/optee_os/lib/libutils/ext/snprintk.c:409
     eb8:	37f80204 	tbnz	w4, #31, ef8 <kprintf.constprop.0+0x49c>
     ebc:	91003c73 	add	x19, x3, #0xf
     ec0:	2a0403f4 	mov	w20, w4
     ec4:	927df273 	and	x19, x19, #0xfffffffffffffff8
     ec8:	f9400060 	ldr	x0, [x3]
     ecc:	79000019 	strh	w25, [x0]
     ed0:	17fffeff 	b	acc <kprintf.constprop.0+0x70>
/home/avees/optee_local_build/Linux_for_Tegra/sources/tegra/optee-src/nv-optee/optee/optee_os/lib/libutils/ext/snprintk.c:407
     ed4:	11002094 	add	w20, w4, #0x8
     ed8:	7100029f 	cmp	w20, #0x0
     edc:	5400008d 	b.le	eec <kprintf.constprop.0+0x490>
     ee0:	91003c73 	add	x19, x3, #0xf
     ee4:	927df273 	and	x19, x19, #0xfffffffffffffff8
     ee8:	17ffffeb 	b	e94 <kprintf.constprop.0+0x438>
     eec:	aa0303f3 	mov	x19, x3
     ef0:	8b24c343 	add	x3, x26, w4, sxtw
     ef4:	17ffffe8 	b	e94 <kprintf.constprop.0+0x438>
/home/avees/optee_local_build/Linux_for_Tegra/sources/tegra/optee-src/nv-optee/optee/optee_os/lib/libutils/ext/snprintk.c:409
     ef8:	11002094 	add	w20, w4, #0x8
     efc:	7100029f 	cmp	w20, #0x0
     f00:	5400008d 	b.le	f10 <kprintf.constprop.0+0x4b4>
     f04:	91003c73 	add	x19, x3, #0xf
     f08:	927df273 	and	x19, x19, #0xfffffffffffffff8
     f0c:	17ffffef 	b	ec8 <kprintf.constprop.0+0x46c>
     f10:	aa0303f3 	mov	x19, x3
     f14:	8b24c343 	add	x3, x26, w4, sxtw
     f18:	17ffffec 	b	ec8 <kprintf.constprop.0+0x46c>
/home/avees/optee_local_build/Linux_for_Tegra/sources/tegra/optee-src/nv-optee/optee/optee_os/lib/libutils/ext/snprintk.c:411
     f1c:	37f800e4 	tbnz	w4, #31, f38 <kprintf.constprop.0+0x4dc>
     f20:	91003c73 	add	x19, x3, #0xf
     f24:	2a0403f4 	mov	w20, w4
     f28:	927df273 	and	x19, x19, #0xfffffffffffffff8
     f2c:	f9400060 	ldr	x0, [x3]
     f30:	b9000019 	str	w25, [x0]
     f34:	17fffee6 	b	acc <kprintf.constprop.0+0x70>
     f38:	11002094 	add	w20, w4, #0x8
     f3c:	7100029f 	cmp	w20, #0x0
     f40:	5400008d 	b.le	f50 <kprintf.constprop.0+0x4f4>
     f44:	91003c73 	add	x19, x3, #0xf
     f48:	927df273 	and	x19, x19, #0xfffffffffffffff8
     f4c:	17fffff8 	b	f2c <kprintf.constprop.0+0x4d0>
     f50:	aa0303f3 	mov	x19, x3
     f54:	8b24c343 	add	x3, x26, w4, sxtw
     f58:	17fffff5 	b	f2c <kprintf.constprop.0+0x4d0>
/home/avees/optee_local_build/Linux_for_Tegra/sources/tegra/optee-src/nv-optee/optee/optee_os/lib/libutils/ext/snprintk.c:414
     f5c:	321c02b5 	orr	w21, w21, #0x10
/home/avees/optee_local_build/Linux_for_Tegra/sources/tegra/optee-src/nv-optee/optee/optee_os/lib/libutils/ext/snprintk.c:417
     f60:	36380355 	tbz	w21, #7, fc8 <kprintf.constprop.0+0x56c>
     f64:	37f80484 	tbnz	w4, #31, ff4 <kprintf.constprop.0+0x598>
     f68:	91003c73 	add	x19, x3, #0xf
     f6c:	2a0403f4 	mov	w20, w4
     f70:	927df273 	and	x19, x19, #0xfffffffffffffff8
     f74:	f9400062 	ldr	x2, [x3]
/home/avees/optee_local_build/Linux_for_Tegra/sources/tegra/optee-src/nv-optee/optee/optee_os/lib/libutils/ext/snprintk.c:494
     f78:	310004bf 	cmn	w5, #0x1
     f7c:	52800001 	mov	w1, #0x0                   	// #0
     f80:	54002b01 	b.ne	14e0 <kprintf.constprop.0+0xa84>  // b.any
/home/avees/optee_local_build/Linux_for_Tegra/sources/tegra/optee-src/nv-optee/optee/optee_os/lib/libutils/ext/snprintk.c:502
     f84:	91009583 	add	x3, x12, #0x25
/home/avees/optee_local_build/Linux_for_Tegra/sources/tegra/optee-src/nv-optee/optee/optee_os/lib/libutils/ext/snprintk.c:512
     f88:	12000840 	and	w0, w2, #0x7
     f8c:	aa0303e4 	mov	x4, x3
     f90:	1100c000 	add	w0, w0, #0x30
     f94:	381ffc60 	strb	w0, [x3, #-1]!
/home/avees/optee_local_build/Linux_for_Tegra/sources/tegra/optee-src/nv-optee/optee/optee_os/lib/libutils/ext/snprintk.c:513
     f98:	d343fc42 	lsr	x2, x2, #3
/home/avees/optee_local_build/Linux_for_Tegra/sources/tegra/optee-src/nv-optee/optee/optee_os/lib/libutils/ext/snprintk.c:514
     f9c:	b5ffff62 	cbnz	x2, f88 <kprintf.constprop.0+0x52c>
/home/avees/optee_local_build/Linux_for_Tegra/sources/tegra/optee-src/nv-optee/optee/optee_os/lib/libutils/ext/snprintk.c:516
     fa0:	360000d5 	tbz	w21, #0, fb8 <kprintf.constprop.0+0x55c>
     fa4:	7100c01f 	cmp	w0, #0x30
     fa8:	54000080 	b.eq	fb8 <kprintf.constprop.0+0x55c>  // b.none
/home/avees/optee_local_build/Linux_for_Tegra/sources/tegra/optee-src/nv-optee/optee/optee_os/lib/libutils/ext/snprintk.c:517
     fac:	52800600 	mov	w0, #0x30                  	// #48
     fb0:	381ff060 	sturb	w0, [x3, #-1]
     fb4:	d1000883 	sub	x3, x4, #0x2
/home/avees/optee_local_build/Linux_for_Tegra/sources/tegra/optee-src/nv-optee/optee/optee_os/lib/libutils/ext/snprintk.c:543
     fb8:	91009580 	add	x0, x12, #0x25
     fbc:	2a0503e6 	mov	w6, w5
     fc0:	4b030005 	sub	w5, w0, w3
     fc4:	1400005b 	b	1130 <kprintf.constprop.0+0x6d4>
/home/avees/optee_local_build/Linux_for_Tegra/sources/tegra/optee-src/nv-optee/optee/optee_os/lib/libutils/ext/snprintk.c:417
     fc8:	3747fcf5 	tbnz	w21, #8, f64 <kprintf.constprop.0+0x508>
     fcc:	374ffcd5 	tbnz	w21, #9, f64 <kprintf.constprop.0+0x508>
     fd0:	372ffcb5 	tbnz	w21, #5, f64 <kprintf.constprop.0+0x508>
     fd4:	3727fc95 	tbnz	w21, #4, f64 <kprintf.constprop.0+0x508>
     fd8:	36300335 	tbz	w21, #6, 103c <kprintf.constprop.0+0x5e0>
     fdc:	37f801e4 	tbnz	w4, #31, 1018 <kprintf.constprop.0+0x5bc>
     fe0:	91002c73 	add	x19, x3, #0xb
     fe4:	2a0403f4 	mov	w20, w4
     fe8:	927df273 	and	x19, x19, #0xfffffffffffffff8
     fec:	79400062 	ldrh	w2, [x3]
     ff0:	17ffffe2 	b	f78 <kprintf.constprop.0+0x51c>
     ff4:	11002094 	add	w20, w4, #0x8
     ff8:	7100029f 	cmp	w20, #0x0
     ffc:	5400008d 	b.le	100c <kprintf.constprop.0+0x5b0>
    1000:	91003c73 	add	x19, x3, #0xf
    1004:	927df273 	and	x19, x19, #0xfffffffffffffff8
    1008:	17ffffdb 	b	f74 <kprintf.constprop.0+0x518>
    100c:	aa0303f3 	mov	x19, x3
    1010:	8b24c343 	add	x3, x26, w4, sxtw
    1014:	17ffffd8 	b	f74 <kprintf.constprop.0+0x518>
    1018:	11002094 	add	w20, w4, #0x8
    101c:	7100029f 	cmp	w20, #0x0
    1020:	5400008d 	b.le	1030 <kprintf.constprop.0+0x5d4>
    1024:	91002c73 	add	x19, x3, #0xb
    1028:	927df273 	and	x19, x19, #0xfffffffffffffff8
    102c:	17fffff0 	b	fec <kprintf.constprop.0+0x590>
    1030:	aa0303f3 	mov	x19, x3
    1034:	8b24c343 	add	x3, x26, w4, sxtw
    1038:	17ffffed 	b	fec <kprintf.constprop.0+0x590>
    103c:	37f800c4 	tbnz	w4, #31, 1054 <kprintf.constprop.0+0x5f8>
    1040:	91002c73 	add	x19, x3, #0xb
    1044:	2a0403f4 	mov	w20, w4
    1048:	927df273 	and	x19, x19, #0xfffffffffffffff8
    104c:	b9400062 	ldr	w2, [x3]
    1050:	17ffffca 	b	f78 <kprintf.constprop.0+0x51c>
    1054:	11002094 	add	w20, w4, #0x8
    1058:	7100029f 	cmp	w20, #0x0
    105c:	5400008d 	b.le	106c <kprintf.constprop.0+0x610>
    1060:	91002c73 	add	x19, x3, #0xb
    1064:	927df273 	and	x19, x19, #0xfffffffffffffff8
    1068:	17fffff9 	b	104c <kprintf.constprop.0+0x5f0>
    106c:	aa0303f3 	mov	x19, x3
    1070:	8b24c343 	add	x3, x26, w4, sxtw
    1074:	17fffff6 	b	104c <kprintf.constprop.0+0x5f0>
/home/avees/optee_local_build/Linux_for_Tegra/sources/tegra/optee-src/nv-optee/optee/optee_os/lib/libutils/ext/snprintk.c:421
    1078:	b940a3e0 	ldr	w0, [sp, #160]
    107c:	34000c80 	cbz	w0, 120c <kprintf.constprop.0+0x7b0>
    1080:	39400360 	ldrb	w0, [x27]
    1084:	7101541f 	cmp	w0, #0x55
    1088:	54000c21 	b.ne	120c <kprintf.constprop.0+0x7b0>  // b.any
    108c:	39400760 	ldrb	w0, [x27, #1]
    1090:	7101b01f 	cmp	w0, #0x6c
    1094:	54000bc1 	b.ne	120c <kprintf.constprop.0+0x7b0>  // b.any
/home/avees/optee_local_build/Linux_for_Tegra/sources/tegra/optee-src/nv-optee/optee/optee_os/lib/libutils/ext/snprintk.c:426
    1098:	91000b7b 	add	x27, x27, #0x2
/home/avees/optee_local_build/Linux_for_Tegra/sources/tegra/optee-src/nv-optee/optee/optee_os/lib/libutils/ext/snprintk.c:427
    109c:	37f80a64 	tbnz	w4, #31, 11e8 <kprintf.constprop.0+0x78c>
    10a0:	91003c73 	add	x19, x3, #0xf
    10a4:	2a0403f4 	mov	w20, w4
    10a8:	927df273 	and	x19, x19, #0xfffffffffffffff8
    10ac:	f9400060 	ldr	x0, [x3]
uuid2str():
/home/avees/optee_local_build/Linux_for_Tegra/sources/tegra/optee-src/nv-optee/optee/optee_os/lib/libutils/ext/snprintk.c:229
    10b0:	d0000062 	adrp	x2, f000 <__text_end+0x2508>
    10b4:	912af042 	add	x2, x2, #0xabc
    10b8:	f9004fec 	str	x12, [sp, #152]
    10bc:	b900a7ea 	str	w10, [sp, #164]
    10c0:	39403c01 	ldrb	w1, [x0, #15]
    10c4:	39402006 	ldrb	w6, [x0, #8]
    10c8:	79400c05 	ldrh	w5, [x0, #6]
    10cc:	39402407 	ldrb	w7, [x0, #9]
    10d0:	79400804 	ldrh	w4, [x0, #4]
    10d4:	b9002be1 	str	w1, [sp, #40]
    10d8:	f90057e8 	str	x8, [sp, #168]
    10dc:	39403801 	ldrb	w1, [x0, #14]
    10e0:	b90023e1 	str	w1, [sp, #32]
    10e4:	39403401 	ldrb	w1, [x0, #13]
    10e8:	b9001be1 	str	w1, [sp, #24]
    10ec:	39403001 	ldrb	w1, [x0, #12]
    10f0:	b90013e1 	str	w1, [sp, #16]
    10f4:	39402c01 	ldrb	w1, [x0, #11]
    10f8:	b9000be1 	str	w1, [sp, #8]
    10fc:	39402801 	ldrb	w1, [x0, #10]
    1100:	b90003e1 	str	w1, [sp]
    1104:	d28004a1 	mov	x1, #0x25                  	// #37
    1108:	b9400003 	ldr	w3, [x0]
    110c:	aa0c03e0 	mov	x0, x12
    1110:	97fffe20 	bl	990 <snprintk>
    1114:	2a0003e5 	mov	w5, w0
kprintf():
/home/avees/optee_local_build/Linux_for_Tegra/sources/tegra/optee-src/nv-optee/optee/optee_os/lib/libutils/ext/snprintk.c:429
    1118:	f9404fec 	ldr	x12, [sp, #152]
/home/avees/optee_local_build/Linux_for_Tegra/sources/tegra/optee-src/nv-optee/optee/optee_os/lib/libutils/ext/snprintk.c:291
    111c:	52800006 	mov	w6, #0x0                   	// #0
/home/avees/optee_local_build/Linux_for_Tegra/sources/tegra/optee-src/nv-optee/optee/optee_os/lib/libutils/ext/snprintk.c:431
    1120:	b940a7ea 	ldr	w10, [sp, #164]
/home/avees/optee_local_build/Linux_for_Tegra/sources/tegra/optee-src/nv-optee/optee/optee_os/lib/libutils/ext/snprintk.c:430
    1124:	52800001 	mov	w1, #0x0                   	// #0
/home/avees/optee_local_build/Linux_for_Tegra/sources/tegra/optee-src/nv-optee/optee/optee_os/lib/libutils/ext/snprintk.c:431
    1128:	f94057e8 	ldr	x8, [sp, #168]
/home/avees/optee_local_build/Linux_for_Tegra/sources/tegra/optee-src/nv-optee/optee/optee_os/lib/libutils/ext/snprintk.c:429
    112c:	aa0c03e3 	mov	x3, x12
/home/avees/optee_local_build/Linux_for_Tegra/sources/tegra/optee-src/nv-optee/optee/optee_os/lib/libutils/ext/snprintk.c:571
    1130:	6b0500df 	cmp	w6, w5
    1134:	1a85a0c4 	csel	w4, w6, w5, ge  // ge = tcont
/home/avees/optee_local_build/Linux_for_Tegra/sources/tegra/optee-src/nv-optee/optee/optee_os/lib/libutils/ext/snprintk.c:572
    1138:	340020c1 	cbz	w1, 1550 <kprintf.constprop.0+0xaf4>
/home/avees/optee_local_build/Linux_for_Tegra/sources/tegra/optee-src/nv-optee/optee/optee_os/lib/libutils/ext/snprintk.c:573
    113c:	11000484 	add	w4, w4, #0x1
/home/avees/optee_local_build/Linux_for_Tegra/sources/tegra/optee-src/nv-optee/optee/optee_os/lib/libutils/ext/snprintk.c:578
    1140:	6b0a009f 	cmp	w4, w10
    1144:	1a8aa080 	csel	w0, w4, w10, ge  // ge = tcont
    1148:	0b000339 	add	w25, w25, w0
/home/avees/optee_local_build/Linux_for_Tegra/sources/tegra/optee-src/nv-optee/optee/optee_os/lib/libutils/ext/snprintk.c:581
    114c:	52808080 	mov	w0, #0x404                 	// #1028
    1150:	6a0002a0 	ands	w0, w21, w0
    1154:	540000a1 	b.ne	1168 <kprintf.constprop.0+0x70c>  // b.any
/home/avees/optee_local_build/Linux_for_Tegra/sources/tegra/optee-src/nv-optee/optee/optee_os/lib/libutils/ext/snprintk.c:582
    1158:	4b040147 	sub	w7, w10, w4
/home/avees/optee_local_build/Linux_for_Tegra/sources/tegra/optee-src/nv-optee/optee/optee_os/lib/libutils/ext/snprintk.c:584
    115c:	52800402 	mov	w2, #0x20                  	// #32
/home/avees/optee_local_build/Linux_for_Tegra/sources/tegra/optee-src/nv-optee/optee/optee_os/lib/libutils/ext/snprintk.c:583
    1160:	710000ff 	cmp	w7, #0x0
    1164:	54001fcc 	b.gt	155c <kprintf.constprop.0+0xb00>
/home/avees/optee_local_build/Linux_for_Tegra/sources/tegra/optee-src/nv-optee/optee/optee_os/lib/libutils/ext/snprintk.c:588
    1168:	34002081 	cbz	w1, 1578 <kprintf.constprop.0+0xb1c>
/home/avees/optee_local_build/Linux_for_Tegra/sources/tegra/optee-src/nv-optee/optee/optee_os/lib/libutils/ext/snprintk.c:589
    116c:	b40000b6 	cbz	x22, 1180 <kprintf.constprop.0+0x724>
    1170:	f100011f 	cmp	x8, #0x0
    1174:	fa561302 	ccmp	x24, x22, #0x2, ne  // ne = any
    1178:	54000049 	b.ls	1180 <kprintf.constprop.0+0x724>  // b.plast
    117c:	380016c1 	strb	w1, [x22], #1
/home/avees/optee_local_build/Linux_for_Tegra/sources/tegra/optee-src/nv-optee/optee/optee_os/lib/libutils/ext/snprintk.c:596
    1180:	7110001f 	cmp	w0, #0x400
    1184:	540000a1 	b.ne	1198 <kprintf.constprop.0+0x73c>  // b.any
/home/avees/optee_local_build/Linux_for_Tegra/sources/tegra/optee-src/nv-optee/optee/optee_os/lib/libutils/ext/snprintk.c:597
    1188:	4b040140 	sub	w0, w10, w4
/home/avees/optee_local_build/Linux_for_Tegra/sources/tegra/optee-src/nv-optee/optee/optee_os/lib/libutils/ext/snprintk.c:599
    118c:	52800601 	mov	w1, #0x30                  	// #48
/home/avees/optee_local_build/Linux_for_Tegra/sources/tegra/optee-src/nv-optee/optee/optee_os/lib/libutils/ext/snprintk.c:598
    1190:	7100001f 	cmp	w0, #0x0
    1194:	5400216c 	b.gt	15c0 <kprintf.constprop.0+0xb64>
/home/avees/optee_local_build/Linux_for_Tegra/sources/tegra/optee-src/nv-optee/optee/optee_os/lib/libutils/ext/snprintk.c:603
    1198:	4b0500c6 	sub	w6, w6, w5
/home/avees/optee_local_build/Linux_for_Tegra/sources/tegra/optee-src/nv-optee/optee/optee_os/lib/libutils/ext/snprintk.c:605
    119c:	52800600 	mov	w0, #0x30                  	// #48
/home/avees/optee_local_build/Linux_for_Tegra/sources/tegra/optee-src/nv-optee/optee/optee_os/lib/libutils/ext/snprintk.c:604
    11a0:	710000df 	cmp	w6, #0x0
    11a4:	540021cc 	b.gt	15dc <kprintf.constprop.0+0xb80>
    11a8:	2a0503e5 	mov	w5, w5
    11ac:	d2800001 	mov	x1, #0x0                   	// #0
/home/avees/optee_local_build/Linux_for_Tegra/sources/tegra/optee-src/nv-optee/optee/optee_os/lib/libutils/ext/snprintk.c:608
    11b0:	eb05003f 	cmp	x1, x5
    11b4:	54002221 	b.ne	15f8 <kprintf.constprop.0+0xb9c>  // b.any
/home/avees/optee_local_build/Linux_for_Tegra/sources/tegra/optee-src/nv-optee/optee/optee_os/lib/libutils/ext/snprintk.c:611
    11b8:	3617c8b5 	tbz	w21, #2, acc <kprintf.constprop.0+0x70>
/home/avees/optee_local_build/Linux_for_Tegra/sources/tegra/optee-src/nv-optee/optee/optee_os/lib/libutils/ext/snprintk.c:612
    11bc:	4b04014a 	sub	w10, w10, w4
/home/avees/optee_local_build/Linux_for_Tegra/sources/tegra/optee-src/nv-optee/optee/optee_os/lib/libutils/ext/snprintk.c:614
    11c0:	52800400 	mov	w0, #0x20                  	// #32
/home/avees/optee_local_build/Linux_for_Tegra/sources/tegra/optee-src/nv-optee/optee/optee_os/lib/libutils/ext/snprintk.c:613
    11c4:	7100015f 	cmp	w10, #0x0
    11c8:	54ffc82d 	b.le	acc <kprintf.constprop.0+0x70>
/home/avees/optee_local_build/Linux_for_Tegra/sources/tegra/optee-src/nv-optee/optee/optee_os/lib/libutils/ext/snprintk.c:614
    11cc:	b40000b6 	cbz	x22, 11e0 <kprintf.constprop.0+0x784>
    11d0:	f100011f 	cmp	x8, #0x0
    11d4:	fa561302 	ccmp	x24, x22, #0x2, ne  // ne = any
    11d8:	54000049 	b.ls	11e0 <kprintf.constprop.0+0x784>  // b.plast
    11dc:	380016c0 	strb	w0, [x22], #1
    11e0:	5100054a 	sub	w10, w10, #0x1
    11e4:	17fffff8 	b	11c4 <kprintf.constprop.0+0x768>
/home/avees/optee_local_build/Linux_for_Tegra/sources/tegra/optee-src/nv-optee/optee/optee_os/lib/libutils/ext/snprintk.c:427
    11e8:	11002094 	add	w20, w4, #0x8
    11ec:	7100029f 	cmp	w20, #0x0
    11f0:	5400008d 	b.le	1200 <kprintf.constprop.0+0x7a4>
    11f4:	91003c73 	add	x19, x3, #0xf
    11f8:	927df273 	and	x19, x19, #0xfffffffffffffff8
    11fc:	17ffffac 	b	10ac <kprintf.constprop.0+0x650>
    1200:	aa0303f3 	mov	x19, x3
    1204:	8b24c343 	add	x3, x26, w4, sxtw
    1208:	17ffffa9 	b	10ac <kprintf.constprop.0+0x650>
/home/avees/optee_local_build/Linux_for_Tegra/sources/tegra/optee-src/nv-optee/optee/optee_os/lib/libutils/ext/snprintk.c:441
    120c:	37f801e4 	tbnz	w4, #31, 1248 <kprintf.constprop.0+0x7ec>
    1210:	91003c73 	add	x19, x3, #0xf
    1214:	2a0403f4 	mov	w20, w4
    1218:	927df273 	and	x19, x19, #0xfffffffffffffff8
/home/avees/optee_local_build/Linux_for_Tegra/sources/tegra/optee-src/nv-optee/optee/optee_os/lib/libutils/ext/snprintk.c:443
    121c:	d0000077 	adrp	x23, f000 <__text_end+0x2508>
    1220:	91128af7 	add	x23, x23, #0x4a2
/home/avees/optee_local_build/Linux_for_Tegra/sources/tegra/optee-src/nv-optee/optee/optee_os/lib/libutils/ext/snprintk.c:441
    1224:	f9400062 	ldr	x2, [x3]
/home/avees/optee_local_build/Linux_for_Tegra/sources/tegra/optee-src/nv-optee/optee/optee_os/lib/libutils/ext/snprintk.c:444
    1228:	321f02b5 	orr	w21, w21, #0x2
/home/avees/optee_local_build/Linux_for_Tegra/sources/tegra/optee-src/nv-optee/optee/optee_os/lib/libutils/ext/snprintk.c:443
    122c:	910046f7 	add	x23, x23, #0x11
/home/avees/optee_local_build/Linux_for_Tegra/sources/tegra/optee-src/nv-optee/optee/optee_os/lib/libutils/ext/snprintk.c:445
    1230:	52800f1c 	mov	w28, #0x78                  	// #120
/home/avees/optee_local_build/Linux_for_Tegra/sources/tegra/optee-src/nv-optee/optee/optee_os/lib/libutils/ext/snprintk.c:494
    1234:	310004bf 	cmn	w5, #0x1
    1238:	52800001 	mov	w1, #0x0                   	// #0
    123c:	54ffdbc0 	b.eq	db4 <kprintf.constprop.0+0x358>  // b.none
    1240:	52800040 	mov	w0, #0x2                   	// #2
    1244:	140000a8 	b	14e4 <kprintf.constprop.0+0xa88>
/home/avees/optee_local_build/Linux_for_Tegra/sources/tegra/optee-src/nv-optee/optee/optee_os/lib/libutils/ext/snprintk.c:441
    1248:	11002094 	add	w20, w4, #0x8
    124c:	7100029f 	cmp	w20, #0x0
    1250:	5400008d 	b.le	1260 <kprintf.constprop.0+0x804>
    1254:	91003c73 	add	x19, x3, #0xf
    1258:	927df273 	and	x19, x19, #0xfffffffffffffff8
    125c:	17fffff0 	b	121c <kprintf.constprop.0+0x7c0>
    1260:	aa0303f3 	mov	x19, x3
    1264:	8b24c343 	add	x3, x26, w4, sxtw
    1268:	17ffffed 	b	121c <kprintf.constprop.0+0x7c0>
/home/avees/optee_local_build/Linux_for_Tegra/sources/tegra/optee-src/nv-optee/optee/optee_os/lib/libutils/ext/snprintk.c:448
    126c:	37f80364 	tbnz	w4, #31, 12d8 <kprintf.constprop.0+0x87c>
    1270:	91003c73 	add	x19, x3, #0xf
    1274:	2a0403f4 	mov	w20, w4
    1278:	927df273 	and	x19, x19, #0xfffffffffffffff8
    127c:	f9400063 	ldr	x3, [x3]
    1280:	b5000063 	cbnz	x3, 128c <kprintf.constprop.0+0x830>
/home/avees/optee_local_build/Linux_for_Tegra/sources/tegra/optee-src/nv-optee/optee/optee_os/lib/libutils/ext/snprintk.c:450
    1284:	d0000063 	adrp	x3, f000 <__text_end+0x2508>
    1288:	912ad463 	add	x3, x3, #0xab5
/home/avees/optee_local_build/Linux_for_Tegra/sources/tegra/optee-src/nv-optee/optee/optee_os/lib/libutils/ext/snprintk.c:451
    128c:	310004bf 	cmn	w5, #0x1
    1290:	54000360 	b.eq	12fc <kprintf.constprop.0+0x8a0>  // b.none
/home/avees/optee_local_build/Linux_for_Tegra/sources/tegra/optee-src/nv-optee/optee/optee_os/lib/libutils/ext/snprintk.c:457
    1294:	93407ca2 	sxtw	x2, w5
    1298:	aa0303e0 	mov	x0, x3
    129c:	52800001 	mov	w1, #0x0                   	// #0
    12a0:	f9004fe3 	str	x3, [sp, #152]
    12a4:	2914abe5 	stp	w5, w10, [sp, #164]
    12a8:	a90b33e8 	stp	x8, x12, [sp, #176]
    12ac:	940000f7 	bl	1688 <memchr>
/home/avees/optee_local_build/Linux_for_Tegra/sources/tegra/optee-src/nv-optee/optee/optee_os/lib/libutils/ext/snprintk.c:459
    12b0:	2954abe5 	ldp	w5, w10, [sp, #164]
    12b4:	f9404fe3 	ldr	x3, [sp, #152]
    12b8:	a94b33e8 	ldp	x8, x12, [sp, #176]
    12bc:	b4000080 	cbz	x0, 12cc <kprintf.constprop.0+0x870>
/home/avees/optee_local_build/Linux_for_Tegra/sources/tegra/optee-src/nv-optee/optee/optee_os/lib/libutils/ext/snprintk.c:460
    12c0:	cb030000 	sub	x0, x0, x3
    12c4:	6b0000bf 	cmp	w5, w0
    12c8:	1a80d0a5 	csel	w5, w5, w0, le
/home/avees/optee_local_build/Linux_for_Tegra/sources/tegra/optee-src/nv-optee/optee/optee_os/lib/libutils/ext/snprintk.c:291
    12cc:	52800006 	mov	w6, #0x0                   	// #0
/home/avees/optee_local_build/Linux_for_Tegra/sources/tegra/optee-src/nv-optee/optee/optee_os/lib/libutils/ext/snprintk.c:467
    12d0:	52800001 	mov	w1, #0x0                   	// #0
    12d4:	17ffff97 	b	1130 <kprintf.constprop.0+0x6d4>
/home/avees/optee_local_build/Linux_for_Tegra/sources/tegra/optee-src/nv-optee/optee/optee_os/lib/libutils/ext/snprintk.c:448
    12d8:	11002094 	add	w20, w4, #0x8
    12dc:	7100029f 	cmp	w20, #0x0
    12e0:	5400008d 	b.le	12f0 <kprintf.constprop.0+0x894>
    12e4:	91003c73 	add	x19, x3, #0xf
    12e8:	927df273 	and	x19, x19, #0xfffffffffffffff8
    12ec:	17ffffe4 	b	127c <kprintf.constprop.0+0x820>
    12f0:	aa0303f3 	mov	x19, x3
    12f4:	8b24c343 	add	x3, x26, w4, sxtw
    12f8:	17ffffe1 	b	127c <kprintf.constprop.0+0x820>
/home/avees/optee_local_build/Linux_for_Tegra/sources/tegra/optee-src/nv-optee/optee/optee_os/lib/libutils/ext/snprintk.c:466
    12fc:	aa0303e0 	mov	x0, x3
    1300:	f9004fe3 	str	x3, [sp, #152]
    1304:	b900a7ea 	str	w10, [sp, #164]
    1308:	a90ab3e8 	stp	x8, x12, [sp, #168]
    130c:	940000ea 	bl	16b4 <strlen>
    1310:	b940a7ea 	ldr	w10, [sp, #164]
    1314:	2a0003e5 	mov	w5, w0
/home/avees/optee_local_build/Linux_for_Tegra/sources/tegra/optee-src/nv-optee/optee/optee_os/lib/libutils/ext/snprintk.c:291
    1318:	52800006 	mov	w6, #0x0                   	// #0
/home/avees/optee_local_build/Linux_for_Tegra/sources/tegra/optee-src/nv-optee/optee/optee_os/lib/libutils/ext/snprintk.c:467
    131c:	52800001 	mov	w1, #0x0                   	// #0
    1320:	f9404fe3 	ldr	x3, [sp, #152]
    1324:	a94ab3e8 	ldp	x8, x12, [sp, #168]
    1328:	17ffff82 	b	1130 <kprintf.constprop.0+0x6d4>
/home/avees/optee_local_build/Linux_for_Tegra/sources/tegra/optee-src/nv-optee/optee/optee_os/lib/libutils/ext/snprintk.c:470
    132c:	321c02b5 	orr	w21, w21, #0x10
/home/avees/optee_local_build/Linux_for_Tegra/sources/tegra/optee-src/nv-optee/optee/optee_os/lib/libutils/ext/snprintk.c:473
    1330:	36380235 	tbz	w21, #7, 1374 <kprintf.constprop.0+0x918>
    1334:	37f80364 	tbnz	w4, #31, 13a0 <kprintf.constprop.0+0x944>
    1338:	91003c73 	add	x19, x3, #0xf
    133c:	2a0403f4 	mov	w20, w4
    1340:	927df273 	and	x19, x19, #0xfffffffffffffff8
    1344:	f9400062 	ldr	x2, [x3]
/home/avees/optee_local_build/Linux_for_Tegra/sources/tegra/optee-src/nv-optee/optee/optee_os/lib/libutils/ext/snprintk.c:488
    1348:	52800001 	mov	w1, #0x0                   	// #0
/home/avees/optee_local_build/Linux_for_Tegra/sources/tegra/optee-src/nv-optee/optee/optee_os/lib/libutils/ext/snprintk.c:494
    134c:	310004bf 	cmn	w5, #0x1
    1350:	54000d81 	b.ne	1500 <kprintf.constprop.0+0xaa4>  // b.any
/home/avees/optee_local_build/Linux_for_Tegra/sources/tegra/optee-src/nv-optee/optee/optee_os/lib/libutils/ext/snprintk.c:502
    1354:	91009580 	add	x0, x12, #0x25
/home/avees/optee_local_build/Linux_for_Tegra/sources/tegra/optee-src/nv-optee/optee/optee_os/lib/libutils/ext/snprintk.c:523
    1358:	d2800144 	mov	x4, #0xa                   	// #10
/home/avees/optee_local_build/Linux_for_Tegra/sources/tegra/optee-src/nv-optee/optee/optee_os/lib/libutils/ext/snprintk.c:522
    135c:	d1000403 	sub	x3, x0, #0x1
    1360:	f100245f 	cmp	x2, #0x9
    1364:	54000d28 	b.hi	1508 <kprintf.constprop.0+0xaac>  // b.pmore
/home/avees/optee_local_build/Linux_for_Tegra/sources/tegra/optee-src/nv-optee/optee/optee_os/lib/libutils/ext/snprintk.c:526
    1368:	1100c042 	add	w2, w2, #0x30
    136c:	381ff002 	sturb	w2, [x0, #-1]
/home/avees/optee_local_build/Linux_for_Tegra/sources/tegra/optee-src/nv-optee/optee/optee_os/lib/libutils/ext/snprintk.c:527
    1370:	17ffff12 	b	fb8 <kprintf.constprop.0+0x55c>
/home/avees/optee_local_build/Linux_for_Tegra/sources/tegra/optee-src/nv-optee/optee/optee_os/lib/libutils/ext/snprintk.c:473
    1374:	3747fe15 	tbnz	w21, #8, 1334 <kprintf.constprop.0+0x8d8>
    1378:	374ffdf5 	tbnz	w21, #9, 1334 <kprintf.constprop.0+0x8d8>
    137c:	372ffdd5 	tbnz	w21, #5, 1334 <kprintf.constprop.0+0x8d8>
    1380:	3727fdb5 	tbnz	w21, #4, 1334 <kprintf.constprop.0+0x8d8>
    1384:	36300335 	tbz	w21, #6, 13e8 <kprintf.constprop.0+0x98c>
    1388:	37f801e4 	tbnz	w4, #31, 13c4 <kprintf.constprop.0+0x968>
    138c:	91002c73 	add	x19, x3, #0xb
    1390:	2a0403f4 	mov	w20, w4
    1394:	927df273 	and	x19, x19, #0xfffffffffffffff8
    1398:	79400062 	ldrh	w2, [x3]
    139c:	17ffffeb 	b	1348 <kprintf.constprop.0+0x8ec>
    13a0:	11002094 	add	w20, w4, #0x8
    13a4:	7100029f 	cmp	w20, #0x0
    13a8:	5400008d 	b.le	13b8 <kprintf.constprop.0+0x95c>
    13ac:	91003c73 	add	x19, x3, #0xf
    13b0:	927df273 	and	x19, x19, #0xfffffffffffffff8
    13b4:	17ffffe4 	b	1344 <kprintf.constprop.0+0x8e8>
    13b8:	aa0303f3 	mov	x19, x3
    13bc:	8b24c343 	add	x3, x26, w4, sxtw
    13c0:	17ffffe1 	b	1344 <kprintf.constprop.0+0x8e8>
    13c4:	11002094 	add	w20, w4, #0x8
    13c8:	7100029f 	cmp	w20, #0x0
    13cc:	5400008d 	b.le	13dc <kprintf.constprop.0+0x980>
    13d0:	91002c73 	add	x19, x3, #0xb
    13d4:	927df273 	and	x19, x19, #0xfffffffffffffff8
    13d8:	17fffff0 	b	1398 <kprintf.constprop.0+0x93c>
    13dc:	aa0303f3 	mov	x19, x3
    13e0:	8b24c343 	add	x3, x26, w4, sxtw
    13e4:	17ffffed 	b	1398 <kprintf.constprop.0+0x93c>
    13e8:	37f800c4 	tbnz	w4, #31, 1400 <kprintf.constprop.0+0x9a4>
    13ec:	91002c73 	add	x19, x3, #0xb
    13f0:	2a0403f4 	mov	w20, w4
    13f4:	927df273 	and	x19, x19, #0xfffffffffffffff8
    13f8:	b9400062 	ldr	w2, [x3]
    13fc:	17ffffd3 	b	1348 <kprintf.constprop.0+0x8ec>
    1400:	11002094 	add	w20, w4, #0x8
    1404:	7100029f 	cmp	w20, #0x0
    1408:	5400008d 	b.le	1418 <kprintf.constprop.0+0x9bc>
    140c:	91002c73 	add	x19, x3, #0xb
    1410:	927df273 	and	x19, x19, #0xfffffffffffffff8
    1414:	17fffff9 	b	13f8 <kprintf.constprop.0+0x99c>
    1418:	aa0303f3 	mov	x19, x3
    141c:	8b24c343 	add	x3, x26, w4, sxtw
    1420:	17fffff6 	b	13f8 <kprintf.constprop.0+0x99c>
/home/avees/optee_local_build/Linux_for_Tegra/sources/tegra/optee-src/nv-optee/optee/optee_os/lib/libutils/ext/snprintk.c:477
    1424:	d0000077 	adrp	x23, f000 <__text_end+0x2508>
    1428:	91128af7 	add	x23, x23, #0x4a2
    142c:	17fffdd9 	b	b90 <kprintf.constprop.0+0x134>
/home/avees/optee_local_build/Linux_for_Tegra/sources/tegra/optee-src/nv-optee/optee/optee_os/lib/libutils/ext/snprintk.c:481
    1430:	3747bb35 	tbnz	w21, #8, b94 <kprintf.constprop.0+0x138>
    1434:	374fbb15 	tbnz	w21, #9, b94 <kprintf.constprop.0+0x138>
    1438:	372fbaf5 	tbnz	w21, #5, b94 <kprintf.constprop.0+0x138>
    143c:	3727bad5 	tbnz	w21, #4, b94 <kprintf.constprop.0+0x138>
    1440:	36300335 	tbz	w21, #6, 14a4 <kprintf.constprop.0+0xa48>
    1444:	37f801e4 	tbnz	w4, #31, 1480 <kprintf.constprop.0+0xa24>
    1448:	91002c73 	add	x19, x3, #0xb
    144c:	2a0403f4 	mov	w20, w4
    1450:	927df273 	and	x19, x19, #0xfffffffffffffff8
    1454:	79400062 	ldrh	w2, [x3]
    1458:	17fffdd4 	b	ba8 <kprintf.constprop.0+0x14c>
    145c:	11002094 	add	w20, w4, #0x8
    1460:	7100029f 	cmp	w20, #0x0
    1464:	5400008d 	b.le	1474 <kprintf.constprop.0+0xa18>
    1468:	91003c73 	add	x19, x3, #0xf
    146c:	927df273 	and	x19, x19, #0xfffffffffffffff8
    1470:	17fffdcd 	b	ba4 <kprintf.constprop.0+0x148>
    1474:	aa0303f3 	mov	x19, x3
    1478:	8b24c343 	add	x3, x26, w4, sxtw
    147c:	17fffdca 	b	ba4 <kprintf.constprop.0+0x148>
    1480:	11002094 	add	w20, w4, #0x8
    1484:	7100029f 	cmp	w20, #0x0
    1488:	5400008d 	b.le	1498 <kprintf.constprop.0+0xa3c>
    148c:	91002c73 	add	x19, x3, #0xb
    1490:	927df273 	and	x19, x19, #0xfffffffffffffff8
    1494:	17fffff0 	b	1454 <kprintf.constprop.0+0x9f8>
    1498:	aa0303f3 	mov	x19, x3
    149c:	8b24c343 	add	x3, x26, w4, sxtw
    14a0:	17ffffed 	b	1454 <kprintf.constprop.0+0x9f8>
    14a4:	37f800c4 	tbnz	w4, #31, 14bc <kprintf.constprop.0+0xa60>
    14a8:	91002c73 	add	x19, x3, #0xb
    14ac:	2a0403f4 	mov	w20, w4
    14b0:	927df273 	and	x19, x19, #0xfffffffffffffff8
    14b4:	b9400062 	ldr	w2, [x3]
    14b8:	17fffdbc 	b	ba8 <kprintf.constprop.0+0x14c>
    14bc:	11002094 	add	w20, w4, #0x8
    14c0:	7100029f 	cmp	w20, #0x0
    14c4:	5400008d 	b.le	14d4 <kprintf.constprop.0+0xa78>
    14c8:	91002c73 	add	x19, x3, #0xb
    14cc:	927df273 	and	x19, x19, #0xfffffffffffffff8
    14d0:	17fffff9 	b	14b4 <kprintf.constprop.0+0xa58>
    14d4:	aa0303f3 	mov	x19, x3
    14d8:	8b24c343 	add	x3, x26, w4, sxtw
    14dc:	17fffff6 	b	14b4 <kprintf.constprop.0+0xa58>
/home/avees/optee_local_build/Linux_for_Tegra/sources/tegra/optee-src/nv-optee/optee/optee_os/lib/libutils/ext/snprintk.c:494
    14e0:	52800000 	mov	w0, #0x0                   	// #0
/home/avees/optee_local_build/Linux_for_Tegra/sources/tegra/optee-src/nv-optee/optee/optee_os/lib/libutils/ext/snprintk.c:503
    14e4:	f100005f 	cmp	x2, #0x0
/home/avees/optee_local_build/Linux_for_Tegra/sources/tegra/optee-src/nv-optee/optee/optee_os/lib/libutils/ext/snprintk.c:495
    14e8:	12157ab5 	and	w21, w21, #0xfffffbff
/home/avees/optee_local_build/Linux_for_Tegra/sources/tegra/optee-src/nv-optee/optee/optee_os/lib/libutils/ext/snprintk.c:503
    14ec:	7a4008a0 	ccmp	w5, #0x0, #0x0, eq  // eq = none
    14f0:	54ffc5a1 	b.ne	da4 <kprintf.constprop.0+0x348>  // b.any
/home/avees/optee_local_build/Linux_for_Tegra/sources/tegra/optee-src/nv-optee/optee/optee_os/lib/libutils/ext/snprintk.c:502
    14f4:	91009583 	add	x3, x12, #0x25
/home/avees/optee_local_build/Linux_for_Tegra/sources/tegra/optee-src/nv-optee/optee/optee_os/lib/libutils/ext/snprintk.c:542
    14f8:	52800005 	mov	w5, #0x0                   	// #0
    14fc:	17fffeaf 	b	fb8 <kprintf.constprop.0+0x55c>
/home/avees/optee_local_build/Linux_for_Tegra/sources/tegra/optee-src/nv-optee/optee/optee_os/lib/libutils/ext/snprintk.c:494
    1500:	52800020 	mov	w0, #0x1                   	// #1
    1504:	17fffff8 	b	14e4 <kprintf.constprop.0+0xa88>
/home/avees/optee_local_build/Linux_for_Tegra/sources/tegra/optee-src/nv-optee/optee/optee_os/lib/libutils/ext/snprintk.c:523
    1508:	9ac40846 	udiv	x6, x2, x4
    150c:	9b0488c2 	msub	x2, x6, x4, x2
    1510:	1100c042 	add	w2, w2, #0x30
    1514:	381ff002 	sturb	w2, [x0, #-1]
/home/avees/optee_local_build/Linux_for_Tegra/sources/tegra/optee-src/nv-optee/optee/optee_os/lib/libutils/ext/snprintk.c:524
    1518:	aa0603e2 	mov	x2, x6
    151c:	aa0303e0 	mov	x0, x3
    1520:	17ffff8f 	b	135c <kprintf.constprop.0+0x900>
/home/avees/optee_local_build/Linux_for_Tegra/sources/tegra/optee-src/nv-optee/optee/optee_os/lib/libutils/ext/snprintk.c:547
    1524:	35ffb55c 	cbnz	w28, bcc <kprintf.constprop.0+0x170>
/home/avees/optee_local_build/Linux_for_Tegra/sources/tegra/optee-src/nv-optee/optee/optee_os/lib/libutils/ext/snprintk.c:619
    1528:	b4000048 	cbz	x8, 1530 <kprintf.constprop.0+0xad4>
/home/avees/optee_local_build/Linux_for_Tegra/sources/tegra/optee-src/nv-optee/optee/optee_os/lib/libutils/ext/snprintk.c:620
    152c:	f9000116 	str	x22, [x8]
/home/avees/optee_local_build/Linux_for_Tegra/sources/tegra/optee-src/nv-optee/optee/optee_os/lib/libutils/ext/snprintk.c:622
    1530:	90000080 	adrp	x0, 11000 <_DYNAMIC>
    1534:	f9409800 	ldr	x0, [x0, #304]
    1538:	f94077e1 	ldr	x1, [sp, #232]
    153c:	f9400002 	ldr	x2, [x0]
    1540:	eb020021 	subs	x1, x1, x2
    1544:	d2800002 	mov	x2, #0x0                   	// #0
    1548:	54000680 	b.eq	1618 <kprintf.constprop.0+0xbbc>  // b.none
    154c:	97fffcbf 	bl	848 <__stack_chk_fail>
/home/avees/optee_local_build/Linux_for_Tegra/sources/tegra/optee-src/nv-optee/optee/optee_os/lib/libutils/ext/snprintk.c:574
    1550:	360fdf95 	tbz	w21, #1, 1140 <kprintf.constprop.0+0x6e4>
/home/avees/optee_local_build/Linux_for_Tegra/sources/tegra/optee-src/nv-optee/optee/optee_os/lib/libutils/ext/snprintk.c:575
    1554:	11000884 	add	w4, w4, #0x2
    1558:	17fffefa 	b	1140 <kprintf.constprop.0+0x6e4>
/home/avees/optee_local_build/Linux_for_Tegra/sources/tegra/optee-src/nv-optee/optee/optee_os/lib/libutils/ext/snprintk.c:584
    155c:	b40000b6 	cbz	x22, 1570 <kprintf.constprop.0+0xb14>
    1560:	f100011f 	cmp	x8, #0x0
    1564:	fa561302 	ccmp	x24, x22, #0x2, ne  // ne = any
    1568:	54000049 	b.ls	1570 <kprintf.constprop.0+0xb14>  // b.plast
    156c:	380016c2 	strb	w2, [x22], #1
    1570:	510004e7 	sub	w7, w7, #0x1
    1574:	17fffefb 	b	1160 <kprintf.constprop.0+0x704>
/home/avees/optee_local_build/Linux_for_Tegra/sources/tegra/optee-src/nv-optee/optee/optee_os/lib/libutils/ext/snprintk.c:590
    1578:	360fe055 	tbz	w21, #1, 1180 <kprintf.constprop.0+0x724>
/home/avees/optee_local_build/Linux_for_Tegra/sources/tegra/optee-src/nv-optee/optee/optee_os/lib/libutils/ext/snprintk.c:591
    157c:	b4ffe036 	cbz	x22, 1180 <kprintf.constprop.0+0x724>
    1580:	f100011f 	cmp	x8, #0x0
    1584:	1a9f17e2 	cset	w2, eq  // eq = none
    1588:	7100005f 	cmp	w2, #0x0
    158c:	fa560302 	ccmp	x24, x22, #0x2, eq  // eq = none
    1590:	54ffdf89 	b.ls	1180 <kprintf.constprop.0+0x724>  // b.plast
    1594:	aa1603e1 	mov	x1, x22
    1598:	52800607 	mov	w7, #0x30                  	// #48
/home/avees/optee_local_build/Linux_for_Tegra/sources/tegra/optee-src/nv-optee/optee/optee_os/lib/libutils/ext/snprintk.c:592
    159c:	7100005f 	cmp	w2, #0x0
/home/avees/optee_local_build/Linux_for_Tegra/sources/tegra/optee-src/nv-optee/optee/optee_os/lib/libutils/ext/snprintk.c:591
    15a0:	38001427 	strb	w7, [x1], #1
/home/avees/optee_local_build/Linux_for_Tegra/sources/tegra/optee-src/nv-optee/optee/optee_os/lib/libutils/ext/snprintk.c:592
    15a4:	fa410302 	ccmp	x24, x1, #0x2, eq  // eq = none
    15a8:	54000089 	b.ls	15b8 <kprintf.constprop.0+0xb5c>  // b.plast
    15ac:	91000ad6 	add	x22, x22, #0x2
    15b0:	381ff2dc 	sturb	w28, [x22, #-1]
    15b4:	17fffef3 	b	1180 <kprintf.constprop.0+0x724>
    15b8:	aa0103f6 	mov	x22, x1
    15bc:	17fffef1 	b	1180 <kprintf.constprop.0+0x724>
/home/avees/optee_local_build/Linux_for_Tegra/sources/tegra/optee-src/nv-optee/optee/optee_os/lib/libutils/ext/snprintk.c:599
    15c0:	b40000b6 	cbz	x22, 15d4 <kprintf.constprop.0+0xb78>
    15c4:	f100011f 	cmp	x8, #0x0
    15c8:	fa561302 	ccmp	x24, x22, #0x2, ne  // ne = any
    15cc:	54000049 	b.ls	15d4 <kprintf.constprop.0+0xb78>  // b.plast
    15d0:	380016c1 	strb	w1, [x22], #1
    15d4:	51000400 	sub	w0, w0, #0x1
    15d8:	17fffeee 	b	1190 <kprintf.constprop.0+0x734>
/home/avees/optee_local_build/Linux_for_Tegra/sources/tegra/optee-src/nv-optee/optee/optee_os/lib/libutils/ext/snprintk.c:605
    15dc:	b40000b6 	cbz	x22, 15f0 <kprintf.constprop.0+0xb94>
    15e0:	f100011f 	cmp	x8, #0x0
    15e4:	fa561302 	ccmp	x24, x22, #0x2, ne  // ne = any
    15e8:	54000049 	b.ls	15f0 <kprintf.constprop.0+0xb94>  // b.plast
    15ec:	380016c0 	strb	w0, [x22], #1
    15f0:	510004c6 	sub	w6, w6, #0x1
    15f4:	17fffeeb 	b	11a0 <kprintf.constprop.0+0x744>
/home/avees/optee_local_build/Linux_for_Tegra/sources/tegra/optee-src/nv-optee/optee/optee_os/lib/libutils/ext/snprintk.c:609
    15f8:	b40000d6 	cbz	x22, 1610 <kprintf.constprop.0+0xbb4>
    15fc:	f100011f 	cmp	x8, #0x0
    1600:	fa561302 	ccmp	x24, x22, #0x2, ne  // ne = any
    1604:	54000069 	b.ls	1610 <kprintf.constprop.0+0xbb4>  // b.plast
    1608:	38616860 	ldrb	w0, [x3, x1]
    160c:	380016c0 	strb	w0, [x22], #1
/home/avees/optee_local_build/Linux_for_Tegra/sources/tegra/optee-src/nv-optee/optee/optee_os/lib/libutils/ext/snprintk.c:608
    1610:	91000421 	add	x1, x1, #0x1
    1614:	17fffee7 	b	11b0 <kprintf.constprop.0+0x754>
/home/avees/optee_local_build/Linux_for_Tegra/sources/tegra/optee-src/nv-optee/optee/optee_os/lib/libutils/ext/snprintk.c:622
    1618:	2a1903e0 	mov	w0, w25
    161c:	a9437bfd 	ldp	x29, x30, [sp, #48]
    1620:	a94453f3 	ldp	x19, x20, [sp, #64]
    1624:	a9455bf5 	ldp	x21, x22, [sp, #80]
    1628:	a94663f7 	ldp	x23, x24, [sp, #96]
    162c:	a9476bf9 	ldp	x25, x26, [sp, #112]
    1630:	a94873fb 	ldp	x27, x28, [sp, #128]
    1634:	9103c3ff 	add	sp, sp, #0xf0
    1638:	d65f03c0 	ret

000000000000163c <__vsprintf>:
__vsprintf():
/home/avees/optee_local_build/Linux_for_Tegra/sources/tegra/optee-src/nv-optee/optee/optee_os/lib/libutils/ext/snprintk.c:155
    163c:	a9bc7bfd 	stp	x29, x30, [sp, #-64]!
/home/avees/optee_local_build/Linux_for_Tegra/sources/tegra/optee-src/nv-optee/optee/optee_os/lib/libutils/ext/snprintk.c:156
    1640:	910083e3 	add	x3, sp, #0x20
/home/avees/optee_local_build/Linux_for_Tegra/sources/tegra/optee-src/nv-optee/optee/optee_os/lib/libutils/ext/snprintk.c:155
    1644:	910003fd 	mov	x29, sp
    1648:	a90153f3 	stp	x19, x20, [sp, #16]
    164c:	aa0003f4 	mov	x20, x0
    1650:	aa0103f3 	mov	x19, x1
/home/avees/optee_local_build/Linux_for_Tegra/sources/tegra/optee-src/nv-optee/optee/optee_os/lib/libutils/ext/snprintk.c:156
    1654:	aa0303e0 	mov	x0, x3
/home/avees/optee_local_build/Linux_for_Tegra/sources/tegra/optee-src/nv-optee/optee/optee_os/lib/libutils/ext/snprintk.c:155
    1658:	aa0203e1 	mov	x1, x2
/home/avees/optee_local_build/Linux_for_Tegra/sources/tegra/optee-src/nv-optee/optee/optee_os/lib/libutils/ext/snprintk.c:156
    165c:	d2800402 	mov	x2, #0x20                  	// #32
    1660:	97fffa70 	bl	20 <memcpy>
    1664:	aa1403e2 	mov	x2, x20
    1668:	aa0003e3 	mov	x3, x0
    166c:	52800004 	mov	w4, #0x0                   	// #0
    1670:	aa1303e0 	mov	x0, x19
    1674:	d2800001 	mov	x1, #0x0                   	// #0
    1678:	97fffcf9 	bl	a5c <kprintf.constprop.0>
/home/avees/optee_local_build/Linux_for_Tegra/sources/tegra/optee-src/nv-optee/optee/optee_os/lib/libutils/ext/snprintk.c:157
    167c:	a94153f3 	ldp	x19, x20, [sp, #16]
    1680:	a8c47bfd 	ldp	x29, x30, [sp], #64
    1684:	d65f03c0 	ret

0000000000001688 <memchr>:
memchr():
/home/avees/optee_local_build/Linux_for_Tegra/sources/tegra/optee-src/nv-optee/optee/optee_os/lib/libutils/isoc/newlib/memchr.c:109
    1688:	12001c21 	and	w1, w1, #0xff
/home/avees/optee_local_build/Linux_for_Tegra/sources/tegra/optee-src/nv-optee/optee/optee_os/lib/libutils/isoc/newlib/memchr.c:153
    168c:	8b020002 	add	x2, x0, x2
    1690:	eb02001f 	cmp	x0, x2
    1694:	54000061 	b.ne	16a0 <memchr+0x18>  // b.any
/home/avees/optee_local_build/Linux_for_Tegra/sources/tegra/optee-src/nv-optee/optee/optee_os/lib/libutils/isoc/newlib/memchr.c:159
    1698:	d2800000 	mov	x0, #0x0                   	// #0
/home/avees/optee_local_build/Linux_for_Tegra/sources/tegra/optee-src/nv-optee/optee/optee_os/lib/libutils/isoc/newlib/memchr.c:160
    169c:	d65f03c0 	ret
/home/avees/optee_local_build/Linux_for_Tegra/sources/tegra/optee-src/nv-optee/optee/optee_os/lib/libutils/isoc/newlib/memchr.c:154
    16a0:	39400003 	ldrb	w3, [x0]
    16a4:	6b01007f 	cmp	w3, w1
    16a8:	54ffffa0 	b.eq	169c <memchr+0x14>  // b.none
/home/avees/optee_local_build/Linux_for_Tegra/sources/tegra/optee-src/nv-optee/optee/optee_os/lib/libutils/isoc/newlib/memchr.c:156
    16ac:	91000400 	add	x0, x0, #0x1
    16b0:	17fffff8 	b	1690 <memchr+0x8>

00000000000016b4 <strlen>:
strlen():
/home/avees/optee_local_build/Linux_for_Tegra/sources/tegra/optee-src/nv-optee/optee/optee_os/lib/libutils/isoc/newlib/strlen.c:117
    16b4:	aa0003e1 	mov	x1, x0
    16b8:	39400022 	ldrb	w2, [x1]
    16bc:	35000062 	cbnz	w2, 16c8 <strlen+0x14>
/home/avees/optee_local_build/Linux_for_Tegra/sources/tegra/optee-src/nv-optee/optee/optee_os/lib/libutils/isoc/newlib/strlen.c:120
    16c0:	cb000020 	sub	x0, x1, x0
    16c4:	d65f03c0 	ret
/home/avees/optee_local_build/Linux_for_Tegra/sources/tegra/optee-src/nv-optee/optee/optee_os/lib/libutils/isoc/newlib/strlen.c:118
    16c8:	91000421 	add	x1, x1, #0x1
    16cc:	17fffffb 	b	16b8 <strlen+0x4>

00000000000016d0 <trace_ext_puts>:
trace_ext_puts():
/home/avees/optee_local_build/Linux_for_Tegra/sources/tegra/optee-src/nv-optee/optee/optee_os/lib/libutee/trace_ext.c:22
    16d0:	a9be7bfd 	stp	x29, x30, [sp, #-32]!
    16d4:	910003fd 	mov	x29, sp
    16d8:	f9000bf3 	str	x19, [sp, #16]
    16dc:	aa0003f3 	mov	x19, x0
/home/avees/optee_local_build/Linux_for_Tegra/sources/tegra/optee-src/nv-optee/optee/optee_os/lib/libutee/trace_ext.c:26
    16e0:	97fffff5 	bl	16b4 <strlen>
    16e4:	aa0003e1 	mov	x1, x0
    16e8:	aa1303e0 	mov	x0, x19
/home/avees/optee_local_build/Linux_for_Tegra/sources/tegra/optee-src/nv-optee/optee/optee_os/lib/libutee/trace_ext.c:28
    16ec:	f9400bf3 	ldr	x19, [sp, #16]
    16f0:	a8c27bfd 	ldp	x29, x30, [sp], #32
/home/avees/optee_local_build/Linux_for_Tegra/sources/tegra/optee-src/nv-optee/optee/optee_os/lib/libutee/trace_ext.c:26
    16f4:	14000248 	b	2014 <_utee_log>

00000000000016f8 <trace_ext_get_thread_id>:
trace_ext_get_thread_id():
/home/avees/optee_local_build/Linux_for_Tegra/sources/tegra/optee-src/nv-optee/optee/optee_os/lib/libutee/trace_ext.c:33
    16f8:	12800000 	mov	w0, #0xffffffff            	// #-1
    16fc:	d65f03c0 	ret

0000000000001700 <printf>:
printf():
/home/avees/optee_local_build/Linux_for_Tegra/sources/tegra/optee-src/nv-optee/optee/optee_os/lib/libutee/trace_ext.c:41
    1700:	d108c3ff 	sub	sp, sp, #0x230
    1704:	a9007bfd 	stp	x29, x30, [sp]
    1708:	910003fd 	mov	x29, sp
    170c:	a90153f3 	stp	x19, x20, [sp, #16]
    1710:	aa0003f3 	mov	x19, x0
    1714:	910823e0 	add	x0, sp, #0x208
    1718:	a91f8be1 	stp	x1, x2, [sp, #504]
    171c:	90000081 	adrp	x1, 11000 <_DYNAMIC>
    1720:	3d805fe0 	str	q0, [sp, #368]
    1724:	3d8063e1 	str	q1, [sp, #384]
    1728:	3d8067e2 	str	q2, [sp, #400]
    172c:	3d806be3 	str	q3, [sp, #416]
    1730:	3d806fe4 	str	q4, [sp, #432]
    1734:	3d8073e5 	str	q5, [sp, #448]
    1738:	3d8077e6 	str	q6, [sp, #464]
    173c:	3d807be7 	str	q7, [sp, #480]
    1740:	f9409821 	ldr	x1, [x1, #304]
    1744:	a9001003 	stp	x3, x4, [x0]
    1748:	a9011805 	stp	x5, x6, [x0, #16]
    174c:	f90117e7 	str	x7, [sp, #552]
    1750:	f9400020 	ldr	x0, [x1]
    1754:	f900b7e0 	str	x0, [sp, #360]
    1758:	d2800000 	mov	x0, #0x0                   	// #0
/home/avees/optee_local_build/Linux_for_Tegra/sources/tegra/optee-src/nv-optee/optee/optee_os/lib/libutee/trace_ext.c:46
    175c:	97fffb12 	bl	3a4 <trace_get_level>
    1760:	7100001f 	cmp	w0, #0x0
    1764:	5400040d 	b.le	17e4 <printf+0xe4>
/home/avees/optee_local_build/Linux_for_Tegra/sources/tegra/optee-src/nv-optee/optee/optee_os/lib/libutee/trace_ext.c:49
    1768:	9108c3e0 	add	x0, sp, #0x230
/home/avees/optee_local_build/Linux_for_Tegra/sources/tegra/optee-src/nv-optee/optee/optee_os/lib/libutee/trace_ext.c:50
    176c:	910083e3 	add	x3, sp, #0x20
/home/avees/optee_local_build/Linux_for_Tegra/sources/tegra/optee-src/nv-optee/optee/optee_os/lib/libutee/trace_ext.c:49
    1770:	a90483e0 	stp	x0, x0, [sp, #72]
    1774:	9107c3e0 	add	x0, sp, #0x1f0
/home/avees/optee_local_build/Linux_for_Tegra/sources/tegra/optee-src/nv-optee/optee/optee_os/lib/libutee/trace_ext.c:50
    1778:	910123e1 	add	x1, sp, #0x48
/home/avees/optee_local_build/Linux_for_Tegra/sources/tegra/optee-src/nv-optee/optee/optee_os/lib/libutee/trace_ext.c:49
    177c:	f9002fe0 	str	x0, [sp, #88]
    1780:	128006e0 	mov	w0, #0xffffffc8            	// #-56
    1784:	b90063e0 	str	w0, [sp, #96]
    1788:	12800fe0 	mov	w0, #0xffffff80            	// #-128
/home/avees/optee_local_build/Linux_for_Tegra/sources/tegra/optee-src/nv-optee/optee/optee_os/lib/libutee/trace_ext.c:50
    178c:	d2800402 	mov	x2, #0x20                  	// #32
    1790:	9101a3f4 	add	x20, sp, #0x68
/home/avees/optee_local_build/Linux_for_Tegra/sources/tegra/optee-src/nv-optee/optee/optee_os/lib/libutee/trace_ext.c:49
    1794:	b90067e0 	str	w0, [sp, #100]
/home/avees/optee_local_build/Linux_for_Tegra/sources/tegra/optee-src/nv-optee/optee/optee_os/lib/libutee/trace_ext.c:50
    1798:	aa0303e0 	mov	x0, x3
    179c:	97fffa21 	bl	20 <memcpy>
    17a0:	aa0003e3 	mov	x3, x0
    17a4:	aa1303e2 	mov	x2, x19
    17a8:	aa1403e0 	mov	x0, x20
    17ac:	d2802001 	mov	x1, #0x100                 	// #256
    17b0:	94002bff 	bl	c7ac <vsnprintf>
    17b4:	2a0003f3 	mov	w19, w0
/home/avees/optee_local_build/Linux_for_Tegra/sources/tegra/optee-src/nv-optee/optee/optee_os/lib/libutee/trace_ext.c:53
    17b8:	37f80060 	tbnz	w0, #31, 17c4 <printf+0xc4>
/home/avees/optee_local_build/Linux_for_Tegra/sources/tegra/optee-src/nv-optee/optee/optee_os/lib/libutee/trace_ext.c:56
    17bc:	aa1403e0 	mov	x0, x20
    17c0:	97ffffc4 	bl	16d0 <trace_ext_puts>
/home/avees/optee_local_build/Linux_for_Tegra/sources/tegra/optee-src/nv-optee/optee/optee_os/lib/libutee/trace_ext.c:59
    17c4:	90000081 	adrp	x1, 11000 <_DYNAMIC>
    17c8:	f9409821 	ldr	x1, [x1, #304]
    17cc:	f940b7e0 	ldr	x0, [sp, #360]
    17d0:	f9400022 	ldr	x2, [x1]
    17d4:	eb020000 	subs	x0, x0, x2
    17d8:	d2800002 	mov	x2, #0x0                   	// #0
    17dc:	54000080 	b.eq	17ec <printf+0xec>  // b.none
    17e0:	97fffc1a 	bl	848 <__stack_chk_fail>
/home/avees/optee_local_build/Linux_for_Tegra/sources/tegra/optee-src/nv-optee/optee/optee_os/lib/libutee/trace_ext.c:47
    17e4:	52800013 	mov	w19, #0x0                   	// #0
    17e8:	17fffff7 	b	17c4 <printf+0xc4>
/home/avees/optee_local_build/Linux_for_Tegra/sources/tegra/optee-src/nv-optee/optee/optee_os/lib/libutee/trace_ext.c:59
    17ec:	2a1303e0 	mov	w0, w19
    17f0:	a9407bfd 	ldp	x29, x30, [sp]
    17f4:	a94153f3 	ldp	x19, x20, [sp, #16]
    17f8:	9108c3ff 	add	sp, sp, #0x230
    17fc:	d65f03c0 	ret

0000000000001800 <puts>:
puts():
/home/avees/optee_local_build/Linux_for_Tegra/sources/tegra/optee-src/nv-optee/optee/optee_os/lib/libutee/trace_ext.c:62
    1800:	a9be7bfd 	stp	x29, x30, [sp, #-32]!
    1804:	910003fd 	mov	x29, sp
    1808:	f9000bf3 	str	x19, [sp, #16]
    180c:	aa0003f3 	mov	x19, x0
/home/avees/optee_local_build/Linux_for_Tegra/sources/tegra/optee-src/nv-optee/optee/optee_os/lib/libutee/trace_ext.c:63
    1810:	97fffae5 	bl	3a4 <trace_get_level>
    1814:	7100001f 	cmp	w0, #0x0
    1818:	540000cd 	b.le	1830 <puts+0x30>
/home/avees/optee_local_build/Linux_for_Tegra/sources/tegra/optee-src/nv-optee/optee/optee_os/lib/libutee/trace_ext.c:64
    181c:	aa1303e0 	mov	x0, x19
    1820:	97ffffac 	bl	16d0 <trace_ext_puts>
/home/avees/optee_local_build/Linux_for_Tegra/sources/tegra/optee-src/nv-optee/optee/optee_os/lib/libutee/trace_ext.c:65
    1824:	f0000060 	adrp	x0, 10000 <__func__.4161+0x95>
    1828:	910fd800 	add	x0, x0, #0x3f6
    182c:	97ffffa9 	bl	16d0 <trace_ext_puts>
/home/avees/optee_local_build/Linux_for_Tegra/sources/tegra/optee-src/nv-optee/optee/optee_os/lib/libutee/trace_ext.c:68
    1830:	52800020 	mov	w0, #0x1                   	// #1
    1834:	f9400bf3 	ldr	x19, [sp, #16]
    1838:	a8c27bfd 	ldp	x29, x30, [sp], #32
    183c:	d65f03c0 	ret

0000000000001840 <putchar>:
putchar():
/home/avees/optee_local_build/Linux_for_Tegra/sources/tegra/optee-src/nv-optee/optee/optee_os/lib/libutee/trace_ext.c:71
    1840:	a9bd7bfd 	stp	x29, x30, [sp, #-48]!
    1844:	90000081 	adrp	x1, 11000 <_DYNAMIC>
    1848:	910003fd 	mov	x29, sp
    184c:	f9409821 	ldr	x1, [x1, #304]
    1850:	f9000bf3 	str	x19, [sp, #16]
    1854:	2a0003f3 	mov	w19, w0
/home/avees/optee_local_build/Linux_for_Tegra/sources/tegra/optee-src/nv-optee/optee/optee_os/lib/libutee/trace_ext.c:72
    1858:	390083f3 	strb	w19, [sp, #32]
/home/avees/optee_local_build/Linux_for_Tegra/sources/tegra/optee-src/nv-optee/optee/optee_os/lib/libutee/trace_ext.c:71
    185c:	f9400020 	ldr	x0, [x1]
    1860:	f90017e0 	str	x0, [sp, #40]
    1864:	d2800000 	mov	x0, #0x0                   	// #0
/home/avees/optee_local_build/Linux_for_Tegra/sources/tegra/optee-src/nv-optee/optee/optee_os/lib/libutee/trace_ext.c:72
    1868:	390087ff 	strb	wzr, [sp, #33]
/home/avees/optee_local_build/Linux_for_Tegra/sources/tegra/optee-src/nv-optee/optee/optee_os/lib/libutee/trace_ext.c:74
    186c:	97ffface 	bl	3a4 <trace_get_level>
    1870:	7100001f 	cmp	w0, #0x0
    1874:	5400006d 	b.le	1880 <putchar+0x40>
/home/avees/optee_local_build/Linux_for_Tegra/sources/tegra/optee-src/nv-optee/optee/optee_os/lib/libutee/trace_ext.c:75
    1878:	910083e0 	add	x0, sp, #0x20
    187c:	97ffff95 	bl	16d0 <trace_ext_puts>
/home/avees/optee_local_build/Linux_for_Tegra/sources/tegra/optee-src/nv-optee/optee/optee_os/lib/libutee/trace_ext.c:82
    1880:	90000081 	adrp	x1, 11000 <_DYNAMIC>
/home/avees/optee_local_build/Linux_for_Tegra/sources/tegra/optee-src/nv-optee/optee/optee_os/lib/libutee/trace_ext.c:81
    1884:	12001e60 	and	w0, w19, #0xff
/home/avees/optee_local_build/Linux_for_Tegra/sources/tegra/optee-src/nv-optee/optee/optee_os/lib/libutee/trace_ext.c:82
    1888:	f9409821 	ldr	x1, [x1, #304]
    188c:	f94017e2 	ldr	x2, [sp, #40]
    1890:	f9400023 	ldr	x3, [x1]
    1894:	eb030042 	subs	x2, x2, x3
    1898:	d2800003 	mov	x3, #0x0                   	// #0
    189c:	54000040 	b.eq	18a4 <putchar+0x64>  // b.none
    18a0:	97fffbea 	bl	848 <__stack_chk_fail>
    18a4:	f9400bf3 	ldr	x19, [sp, #16]
    18a8:	a8c37bfd 	ldp	x29, x30, [sp], #48
    18ac:	d65f03c0 	ret

00000000000018b0 <_get_fn_array>:
_get_fn_array():
/home/avees/optee_local_build/Linux_for_Tegra/sources/tegra/optee-src/nv-optee/optee/optee_os/lib/libutee/user_ta_entry.c:84
    18b0:	79403009 	ldrh	w9, [x0, #24]
/home/avees/optee_local_build/Linux_for_Tegra/sources/tegra/optee-src/nv-optee/optee/optee_os/lib/libutee/user_ta_entry.c:95
    18b4:	93407c21 	sxtw	x1, w1
/home/avees/optee_local_build/Linux_for_Tegra/sources/tegra/optee-src/nv-optee/optee/optee_os/lib/libutee/user_ta_entry.c:98
    18b8:	93407c42 	sxtw	x2, w2
/home/avees/optee_local_build/Linux_for_Tegra/sources/tegra/optee-src/nv-optee/optee/optee_os/lib/libutee/user_ta_entry.c:84
    18bc:	d2800007 	mov	x7, #0x0                   	// #0
/home/avees/optee_local_build/Linux_for_Tegra/sources/tegra/optee-src/nv-optee/optee/optee_os/lib/libutee/user_ta_entry.c:85
    18c0:	d280070a 	mov	x10, #0x38                  	// #56
/home/avees/optee_local_build/Linux_for_Tegra/sources/tegra/optee-src/nv-optee/optee/optee_os/lib/libutee/user_ta_entry.c:84 (discriminator 1)
    18c4:	eb07013f 	cmp	x9, x7
    18c8:	54000048 	b.hi	18d0 <_get_fn_array+0x20>  // b.pmore
/home/avees/optee_local_build/Linux_for_Tegra/sources/tegra/optee-src/nv-optee/optee/optee_os/lib/libutee/user_ta_entry.c:104
    18cc:	d65f03c0 	ret
/home/avees/optee_local_build/Linux_for_Tegra/sources/tegra/optee-src/nv-optee/optee/optee_os/lib/libutee/user_ta_entry.c:85
    18d0:	9b0a7ce5 	mul	x5, x7, x10
    18d4:	f9400808 	ldr	x8, [x0, #16]
    18d8:	8b050106 	add	x6, x8, x5
/home/avees/optee_local_build/Linux_for_Tegra/sources/tegra/optee-src/nv-optee/optee/optee_os/lib/libutee/user_ta_entry.c:86
    18dc:	b8656905 	ldr	w5, [x8, x5]
    18e0:	710008bf 	cmp	w5, #0x2
    18e4:	54000060 	b.eq	18f0 <_get_fn_array+0x40>  // b.none
/home/avees/optee_local_build/Linux_for_Tegra/sources/tegra/optee-src/nv-optee/optee/optee_os/lib/libutee/user_ta_entry.c:84
    18e8:	910004e7 	add	x7, x7, #0x1
    18ec:	17fffff6 	b	18c4 <_get_fn_array+0x14>
/home/avees/optee_local_build/Linux_for_Tegra/sources/tegra/optee-src/nv-optee/optee/optee_os/lib/libutee/user_ta_entry.c:89
    18f0:	f9400008 	ldr	x8, [x0]
    18f4:	f94008c5 	ldr	x5, [x6, #16]
/home/avees/optee_local_build/Linux_for_Tegra/sources/tegra/optee-src/nv-optee/optee/optee_os/lib/libutee/user_ta_entry.c:88
    18f8:	f94014c6 	ldr	x6, [x6, #40]
/home/avees/optee_local_build/Linux_for_Tegra/sources/tegra/optee-src/nv-optee/optee/optee_os/lib/libutee/user_ta_entry.c:89
    18fc:	8b0800a5 	add	x5, x5, x8
/home/avees/optee_local_build/Linux_for_Tegra/sources/tegra/optee-src/nv-optee/optee/optee_os/lib/libutee/user_ta_entry.c:90
    1900:	927cecc6 	and	x6, x6, #0xfffffffffffffff0
    1904:	8b0500c6 	add	x6, x6, x5
/home/avees/optee_local_build/Linux_for_Tegra/sources/tegra/optee-src/nv-optee/optee/optee_os/lib/libutee/user_ta_entry.c:90 (discriminator 1)
    1908:	eb0600bf 	cmp	x5, x6
    190c:	54fffee0 	b.eq	18e8 <_get_fn_array+0x38>  // b.none
/home/avees/optee_local_build/Linux_for_Tegra/sources/tegra/optee-src/nv-optee/optee/optee_os/lib/libutee/user_ta_entry.c:91
    1910:	f9400068 	ldr	x8, [x3]
    1914:	b4000068 	cbz	x8, 1920 <_get_fn_array+0x70>
/home/avees/optee_local_build/Linux_for_Tegra/sources/tegra/optee-src/nv-optee/optee/optee_os/lib/libutee/user_ta_entry.c:91 (discriminator 1)
    1918:	f9400088 	ldr	x8, [x4]
    191c:	b5fffe68 	cbnz	x8, 18e8 <_get_fn_array+0x38>
/home/avees/optee_local_build/Linux_for_Tegra/sources/tegra/optee-src/nv-optee/optee/optee_os/lib/libutee/user_ta_entry.c:93
    1920:	f94000a8 	ldr	x8, [x5]
    1924:	b4fffe28 	cbz	x8, 18e8 <_get_fn_array+0x38>
/home/avees/optee_local_build/Linux_for_Tegra/sources/tegra/optee-src/nv-optee/optee/optee_os/lib/libutee/user_ta_entry.c:95
    1928:	eb01011f 	cmp	x8, x1
    192c:	540000e1 	b.ne	1948 <_get_fn_array+0x98>  // b.any
/home/avees/optee_local_build/Linux_for_Tegra/sources/tegra/optee-src/nv-optee/optee/optee_os/lib/libutee/user_ta_entry.c:96
    1930:	f940000b 	ldr	x11, [x0]
    1934:	f94004a8 	ldr	x8, [x5, #8]
    1938:	8b0b0108 	add	x8, x8, x11
    193c:	f9000068 	str	x8, [x3]
/home/avees/optee_local_build/Linux_for_Tegra/sources/tegra/optee-src/nv-optee/optee/optee_os/lib/libutee/user_ta_entry.c:101 (discriminator 2)
    1940:	910040a5 	add	x5, x5, #0x10
/home/avees/optee_local_build/Linux_for_Tegra/sources/tegra/optee-src/nv-optee/optee/optee_os/lib/libutee/user_ta_entry.c:90 (discriminator 2)
    1944:	17fffff1 	b	1908 <_get_fn_array+0x58>
/home/avees/optee_local_build/Linux_for_Tegra/sources/tegra/optee-src/nv-optee/optee/optee_os/lib/libutee/user_ta_entry.c:98
    1948:	eb02011f 	cmp	x8, x2
    194c:	54ffffa1 	b.ne	1940 <_get_fn_array+0x90>  // b.any
/home/avees/optee_local_build/Linux_for_Tegra/sources/tegra/optee-src/nv-optee/optee/optee_os/lib/libutee/user_ta_entry.c:99
    1950:	f94004a8 	ldr	x8, [x5, #8]
    1954:	d343fd08 	lsr	x8, x8, #3
    1958:	f9000088 	str	x8, [x4]
    195c:	17fffff9 	b	1940 <_get_fn_array+0x90>

0000000000001960 <_fini_iterate_phdr_cb>:
_fini_iterate_phdr_cb():
/home/avees/optee_local_build/Linux_for_Tegra/sources/tegra/optee-src/nv-optee/optee/optee_os/lib/libutee/user_ta_entry.c:140
    1960:	a9bc7bfd 	stp	x29, x30, [sp, #-64]!
    1964:	90000081 	adrp	x1, 11000 <_DYNAMIC>
    1968:	910003fd 	mov	x29, sp
    196c:	f9409821 	ldr	x1, [x1, #304]
/home/avees/optee_local_build/Linux_for_Tegra/sources/tegra/optee-src/nv-optee/optee/optee_os/lib/libutee/user_ta_entry.c:145
    1970:	9100c3e4 	add	x4, sp, #0x30
    1974:	9100a3e3 	add	x3, sp, #0x28
/home/avees/optee_local_build/Linux_for_Tegra/sources/tegra/optee-src/nv-optee/optee/optee_os/lib/libutee/user_ta_entry.c:142
    1978:	a902ffff 	stp	xzr, xzr, [sp, #40]
/home/avees/optee_local_build/Linux_for_Tegra/sources/tegra/optee-src/nv-optee/optee/optee_os/lib/libutee/user_ta_entry.c:140
    197c:	f9400022 	ldr	x2, [x1]
    1980:	f9001fe2 	str	x2, [sp, #56]
    1984:	d2800002 	mov	x2, #0x0                   	// #0
    1988:	f9000bf3 	str	x19, [sp, #16]
/home/avees/optee_local_build/Linux_for_Tegra/sources/tegra/optee-src/nv-optee/optee/optee_os/lib/libutee/user_ta_entry.c:147
    198c:	d2800033 	mov	x19, #0x1                   	// #1
/home/avees/optee_local_build/Linux_for_Tegra/sources/tegra/optee-src/nv-optee/optee/optee_os/lib/libutee/user_ta_entry.c:145
    1990:	52800382 	mov	w2, #0x1c                  	// #28
    1994:	52800341 	mov	w1, #0x1a                  	// #26
    1998:	97ffffc6 	bl	18b0 <_get_fn_array>
/home/avees/optee_local_build/Linux_for_Tegra/sources/tegra/optee-src/nv-optee/optee/optee_os/lib/libutee/user_ta_entry.c:147 (discriminator 1)
    199c:	f9401be0 	ldr	x0, [sp, #48]
    19a0:	eb13001f 	cmp	x0, x19
    19a4:	54000122 	b.cs	19c8 <_fini_iterate_phdr_cb+0x68>  // b.hs, b.nlast
/home/avees/optee_local_build/Linux_for_Tegra/sources/tegra/optee-src/nv-optee/optee/optee_os/lib/libutee/user_ta_entry.c:151
    19a8:	90000081 	adrp	x1, 11000 <_DYNAMIC>
    19ac:	f9409821 	ldr	x1, [x1, #304]
    19b0:	f9401fe0 	ldr	x0, [sp, #56]
    19b4:	f9400022 	ldr	x2, [x1]
    19b8:	eb020000 	subs	x0, x0, x2
    19bc:	d2800002 	mov	x2, #0x0                   	// #0
    19c0:	54000100 	b.eq	19e0 <_fini_iterate_phdr_cb+0x80>  // b.none
    19c4:	97fffba1 	bl	848 <__stack_chk_fail>
/home/avees/optee_local_build/Linux_for_Tegra/sources/tegra/optee-src/nv-optee/optee/optee_os/lib/libutee/user_ta_entry.c:148 (discriminator 3)
    19c8:	f94017e1 	ldr	x1, [sp, #40]
    19cc:	cb130000 	sub	x0, x0, x19
/home/avees/optee_local_build/Linux_for_Tegra/sources/tegra/optee-src/nv-optee/optee/optee_os/lib/libutee/user_ta_entry.c:147 (discriminator 3)
    19d0:	91000673 	add	x19, x19, #0x1
/home/avees/optee_local_build/Linux_for_Tegra/sources/tegra/optee-src/nv-optee/optee/optee_os/lib/libutee/user_ta_entry.c:148 (discriminator 3)
    19d4:	f8607820 	ldr	x0, [x1, x0, lsl #3]
    19d8:	d63f0000 	blr	x0
/home/avees/optee_local_build/Linux_for_Tegra/sources/tegra/optee-src/nv-optee/optee/optee_os/lib/libutee/user_ta_entry.c:147 (discriminator 3)
    19dc:	17fffff0 	b	199c <_fini_iterate_phdr_cb+0x3c>
/home/avees/optee_local_build/Linux_for_Tegra/sources/tegra/optee-src/nv-optee/optee/optee_os/lib/libutee/user_ta_entry.c:151
    19e0:	52800000 	mov	w0, #0x0                   	// #0
    19e4:	f9400bf3 	ldr	x19, [sp, #16]
    19e8:	a8c47bfd 	ldp	x29, x30, [sp], #64
    19ec:	d65f03c0 	ret

00000000000019f0 <ta_header_get_session>:
ta_header_get_session():
/home/avees/optee_local_build/Linux_for_Tegra/sources/tegra/optee-src/nv-optee/optee/optee_os/lib/libutee/user_ta_entry.c:208
    19f0:	2a0003e1 	mov	w1, w0
/home/avees/optee_local_build/Linux_for_Tegra/sources/tegra/optee-src/nv-optee/optee/optee_os/lib/libutee/user_ta_entry.c:211
    19f4:	90000080 	adrp	x0, 11000 <_DYNAMIC>
    19f8:	f9426000 	ldr	x0, [x0, #1216]
/home/avees/optee_local_build/Linux_for_Tegra/sources/tegra/optee-src/nv-optee/optee/optee_os/lib/libutee/user_ta_entry.c:211 (discriminator 1)
    19fc:	b5000040 	cbnz	x0, 1a04 <ta_header_get_session+0x14>
/home/avees/optee_local_build/Linux_for_Tegra/sources/tegra/optee-src/nv-optee/optee/optee_os/lib/libutee/user_ta_entry.c:216
    1a00:	d65f03c0 	ret
/home/avees/optee_local_build/Linux_for_Tegra/sources/tegra/optee-src/nv-optee/optee/optee_os/lib/libutee/user_ta_entry.c:212
    1a04:	b9400002 	ldr	w2, [x0]
    1a08:	6b01005f 	cmp	w2, w1
    1a0c:	54ffffa0 	b.eq	1a00 <ta_header_get_session+0x10>  // b.none
/home/avees/optee_local_build/Linux_for_Tegra/sources/tegra/optee-src/nv-optee/optee/optee_os/lib/libutee/user_ta_entry.c:211 (discriminator 2)
    1a10:	f9400800 	ldr	x0, [x0, #16]
    1a14:	17fffffa 	b	19fc <ta_header_get_session+0xc>

0000000000001a18 <to_utee_params>:
to_utee_params():
/home/avees/optee_local_build/Linux_for_Tegra/sources/tegra/optee-src/nv-optee/optee/optee_os/lib/libutee/user_ta_entry.c:270
    1a18:	2a0103e3 	mov	w3, w1
    1a1c:	f8008403 	str	x3, [x0], #8
    1a20:	52800003 	mov	w3, #0x0                   	// #0
/home/avees/optee_local_build/Linux_for_Tegra/sources/tegra/optee-src/nv-optee/optee/optee_os/lib/libutee/user_ta_entry.c:272
    1a24:	1ac32425 	lsr	w5, w1, w3
    1a28:	12000ca4 	and	w4, w5, #0xf
    1a2c:	721e04bf 	tst	w5, #0xc
    1a30:	54000181 	b.ne	1a60 <to_utee_params+0x48>  // b.any
    1a34:	340001c4 	cbz	w4, 1a6c <to_utee_params+0x54>
/home/avees/optee_local_build/Linux_for_Tegra/sources/tegra/optee-src/nv-optee/optee/optee_os/lib/libutee/user_ta_entry.c:276
    1a38:	b9400044 	ldr	w4, [x2]
    1a3c:	f9000004 	str	x4, [x0]
/home/avees/optee_local_build/Linux_for_Tegra/sources/tegra/optee-src/nv-optee/optee/optee_os/lib/libutee/user_ta_entry.c:277
    1a40:	b9400444 	ldr	w4, [x2, #4]
/home/avees/optee_local_build/Linux_for_Tegra/sources/tegra/optee-src/nv-optee/optee/optee_os/lib/libutee/user_ta_entry.c:283
    1a44:	f9000404 	str	x4, [x0, #8]
/home/avees/optee_local_build/Linux_for_Tegra/sources/tegra/optee-src/nv-optee/optee/optee_os/lib/libutee/user_ta_entry.c:271 (discriminator 2)
    1a48:	11001063 	add	w3, w3, #0x4
    1a4c:	91004042 	add	x2, x2, #0x10
    1a50:	91004000 	add	x0, x0, #0x10
    1a54:	7100407f 	cmp	w3, #0x10
    1a58:	54fffe61 	b.ne	1a24 <to_utee_params+0xc>  // b.any
/home/avees/optee_local_build/Linux_for_Tegra/sources/tegra/optee-src/nv-optee/optee/optee_os/lib/libutee/user_ta_entry.c:291
    1a5c:	d65f03c0 	ret
/home/avees/optee_local_build/Linux_for_Tegra/sources/tegra/optee-src/nv-optee/optee/optee_os/lib/libutee/user_ta_entry.c:272
    1a60:	51001484 	sub	w4, w4, #0x5
    1a64:	7100089f 	cmp	w4, #0x2
    1a68:	54000069 	b.ls	1a74 <to_utee_params+0x5c>  // b.plast
/home/avees/optee_local_build/Linux_for_Tegra/sources/tegra/optee-src/nv-optee/optee/optee_os/lib/libutee/user_ta_entry.c:287
    1a6c:	a9007c1f 	stp	xzr, xzr, [x0]
/home/avees/optee_local_build/Linux_for_Tegra/sources/tegra/optee-src/nv-optee/optee/optee_os/lib/libutee/user_ta_entry.c:288
    1a70:	17fffff6 	b	1a48 <to_utee_params+0x30>
/home/avees/optee_local_build/Linux_for_Tegra/sources/tegra/optee-src/nv-optee/optee/optee_os/lib/libutee/user_ta_entry.c:282
    1a74:	f9400044 	ldr	x4, [x2]
    1a78:	f9000004 	str	x4, [x0]
/home/avees/optee_local_build/Linux_for_Tegra/sources/tegra/optee-src/nv-optee/optee/optee_os/lib/libutee/user_ta_entry.c:283
    1a7c:	f9400444 	ldr	x4, [x2, #8]
    1a80:	17fffff1 	b	1a44 <to_utee_params+0x2c>

0000000000001a84 <from_utee_params>:
from_utee_params():
/home/avees/optee_local_build/Linux_for_Tegra/sources/tegra/optee-src/nv-optee/optee/optee_os/lib/libutee/user_ta_entry.c:298
    1a84:	f8408445 	ldr	x5, [x2], #8
    1a88:	52800003 	mov	w3, #0x0                   	// #0
    1a8c:	2a0503e9 	mov	w9, w5
/home/avees/optee_local_build/Linux_for_Tegra/sources/tegra/optee-src/nv-optee/optee/optee_os/lib/libutee/user_ta_entry.c:304
    1a90:	1ac32528 	lsr	w8, w9, w3
    1a94:	12000d04 	and	w4, w8, #0xf
    1a98:	721e051f 	tst	w8, #0xc
/home/avees/optee_local_build/Linux_for_Tegra/sources/tegra/optee-src/nv-optee/optee/optee_os/lib/libutee/user_ta_entry.c:302
    1a9c:	a9401847 	ldp	x7, x6, [x2]
/home/avees/optee_local_build/Linux_for_Tegra/sources/tegra/optee-src/nv-optee/optee/optee_os/lib/libutee/user_ta_entry.c:304
    1aa0:	54000081 	b.ne	1ab0 <from_utee_params+0x2c>  // b.any
    1aa4:	340000c4 	cbz	w4, 1abc <from_utee_params+0x38>
/home/avees/optee_local_build/Linux_for_Tegra/sources/tegra/optee-src/nv-optee/optee/optee_os/lib/libutee/user_ta_entry.c:309
    1aa8:	29001807 	stp	w7, w6, [x0]
/home/avees/optee_local_build/Linux_for_Tegra/sources/tegra/optee-src/nv-optee/optee/optee_os/lib/libutee/user_ta_entry.c:310
    1aac:	14000004 	b	1abc <from_utee_params+0x38>
/home/avees/optee_local_build/Linux_for_Tegra/sources/tegra/optee-src/nv-optee/optee/optee_os/lib/libutee/user_ta_entry.c:304
    1ab0:	51001484 	sub	w4, w4, #0x5
    1ab4:	7100089f 	cmp	w4, #0x2
    1ab8:	54000109 	b.ls	1ad8 <from_utee_params+0x54>  // b.plast
/home/avees/optee_local_build/Linux_for_Tegra/sources/tegra/optee-src/nv-optee/optee/optee_os/lib/libutee/user_ta_entry.c:300 (discriminator 2)
    1abc:	11001063 	add	w3, w3, #0x4
    1ac0:	91004042 	add	x2, x2, #0x10
    1ac4:	91004000 	add	x0, x0, #0x10
    1ac8:	7100407f 	cmp	w3, #0x10
    1acc:	54fffe21 	b.ne	1a90 <from_utee_params+0xc>  // b.any
/home/avees/optee_local_build/Linux_for_Tegra/sources/tegra/optee-src/nv-optee/optee/optee_os/lib/libutee/user_ta_entry.c:323
    1ad0:	b9000025 	str	w5, [x1]
/home/avees/optee_local_build/Linux_for_Tegra/sources/tegra/optee-src/nv-optee/optee/optee_os/lib/libutee/user_ta_entry.c:324
    1ad4:	d65f03c0 	ret
/home/avees/optee_local_build/Linux_for_Tegra/sources/tegra/optee-src/nv-optee/optee/optee_os/lib/libutee/user_ta_entry.c:315
    1ad8:	a9001807 	stp	x7, x6, [x0]
/home/avees/optee_local_build/Linux_for_Tegra/sources/tegra/optee-src/nv-optee/optee/optee_os/lib/libutee/user_ta_entry.c:316
    1adc:	17fffff8 	b	1abc <from_utee_params+0x38>

0000000000001ae0 <_init_iterate_phdr_cb>:
_init_iterate_phdr_cb():
/home/avees/optee_local_build/Linux_for_Tegra/sources/tegra/optee-src/nv-optee/optee/optee_os/lib/libutee/user_ta_entry.c:60
    1ae0:	a9bd7bfd 	stp	x29, x30, [sp, #-48]!
    1ae4:	910003fd 	mov	x29, sp
    1ae8:	a90153f3 	stp	x19, x20, [sp, #16]
    1aec:	aa0203f4 	mov	x20, x2
    1af0:	f90013f5 	str	x21, [sp, #32]
    1af4:	aa0003f5 	mov	x21, x0
/home/avees/optee_local_build/Linux_for_Tegra/sources/tegra/optee-src/nv-optee/optee/optee_os/lib/libutee/user_ta_entry.c:64
    1af8:	d2800a00 	mov	x0, #0x50                  	// #80
    1afc:	940029fc 	bl	c2ec <malloc>
/home/avees/optee_local_build/Linux_for_Tegra/sources/tegra/optee-src/nv-optee/optee/optee_os/lib/libutee/user_ta_entry.c:65
    1b00:	b5000140 	cbnz	x0, 1b28 <_init_iterate_phdr_cb+0x48>
/home/avees/optee_local_build/Linux_for_Tegra/sources/tegra/optee-src/nv-optee/optee/optee_os/lib/libutee/user_ta_entry.c:66
    1b04:	d0000064 	adrp	x4, f000 <__text_end+0x2508>
    1b08:	d0000060 	adrp	x0, f000 <__text_end+0x2508>
    1b0c:	912bb484 	add	x4, x4, #0xaed
    1b10:	912cf000 	add	x0, x0, #0xb3c
    1b14:	52800023 	mov	w3, #0x1                   	// #1
    1b18:	52800022 	mov	w2, #0x1                   	// #1
    1b1c:	52800841 	mov	w1, #0x42                  	// #66
    1b20:	97fffaac 	bl	5d0 <trace_printf>
/home/avees/optee_local_build/Linux_for_Tegra/sources/tegra/optee-src/nv-optee/optee/optee_os/lib/libutee/user_ta_entry.c:67
    1b24:	940001e1 	bl	22a8 <abort>
    1b28:	aa0003f3 	mov	x19, x0
/home/avees/optee_local_build/Linux_for_Tegra/sources/tegra/optee-src/nv-optee/optee/optee_os/lib/libutee/user_ta_entry.c:69
    1b2c:	aa1503e1 	mov	x1, x21
    1b30:	d2800802 	mov	x2, #0x40                  	// #64
    1b34:	97fff93b 	bl	20 <memcpy>
/home/avees/optee_local_build/Linux_for_Tegra/sources/tegra/optee-src/nv-optee/optee/optee_os/lib/libutee/user_ta_entry.c:70
    1b38:	90000080 	adrp	x0, 11000 <_DYNAMIC>
    1b3c:	91130000 	add	x0, x0, #0x4c0
/home/avees/optee_local_build/Linux_for_Tegra/sources/tegra/optee-src/nv-optee/optee/optee_os/lib/libutee/user_ta_entry.c:73
    1b40:	f94013f5 	ldr	x21, [sp, #32]
/home/avees/optee_local_build/Linux_for_Tegra/sources/tegra/optee-src/nv-optee/optee/optee_os/lib/libutee/user_ta_entry.c:70
    1b44:	f9400c01 	ldr	x1, [x0, #24]
    1b48:	a904067f 	stp	xzr, x1, [x19, #64]
    1b4c:	f9000033 	str	x19, [x1]
    1b50:	91010273 	add	x19, x19, #0x40
    1b54:	f9000c13 	str	x19, [x0, #24]
/home/avees/optee_local_build/Linux_for_Tegra/sources/tegra/optee-src/nv-optee/optee/optee_os/lib/libutee/user_ta_entry.c:71
    1b58:	f9400280 	ldr	x0, [x20]
    1b5c:	91000400 	add	x0, x0, #0x1
    1b60:	f9000280 	str	x0, [x20]
/home/avees/optee_local_build/Linux_for_Tegra/sources/tegra/optee-src/nv-optee/optee/optee_os/lib/libutee/user_ta_entry.c:73
    1b64:	52800000 	mov	w0, #0x0                   	// #0
    1b68:	a94153f3 	ldp	x19, x20, [sp, #16]
    1b6c:	a8c37bfd 	ldp	x29, x30, [sp], #48
    1b70:	d65f03c0 	ret

0000000000001b74 <__utee_call_elf_init_fn>:
__utee_call_elf_init_fn():
/home/avees/optee_local_build/Linux_for_Tegra/sources/tegra/optee-src/nv-optee/optee/optee_os/lib/libutee/user_ta_entry.c:107
    1b74:	a9b97bfd 	stp	x29, x30, [sp, #-112]!
    1b78:	90000080 	adrp	x0, 11000 <_DYNAMIC>
    1b7c:	910003fd 	mov	x29, sp
    1b80:	f9409800 	ldr	x0, [x0, #304]
    1b84:	a90153f3 	stp	x19, x20, [sp, #16]
/home/avees/optee_local_build/Linux_for_Tegra/sources/tegra/optee-src/nv-optee/optee/optee_os/lib/libutee/user_ta_entry.c:111
    1b88:	d2800014 	mov	x20, #0x0                   	// #0
/home/avees/optee_local_build/Linux_for_Tegra/sources/tegra/optee-src/nv-optee/optee/optee_os/lib/libutee/user_ta_entry.c:107
    1b8c:	f9400001 	ldr	x1, [x0]
    1b90:	f90037e1 	str	x1, [sp, #104]
    1b94:	d2800001 	mov	x1, #0x0                   	// #0
/home/avees/optee_local_build/Linux_for_Tegra/sources/tegra/optee-src/nv-optee/optee/optee_os/lib/libutee/user_ta_entry.c:116
    1b98:	90000000 	adrp	x0, 1000 <kprintf.constprop.0+0x5a4>
    1b9c:	910163e1 	add	x1, sp, #0x58
    1ba0:	912b8000 	add	x0, x0, #0xae0
/home/avees/optee_local_build/Linux_for_Tegra/sources/tegra/optee-src/nv-optee/optee/optee_os/lib/libutee/user_ta_entry.c:107
    1ba4:	a9025bf5 	stp	x21, x22, [sp, #32]
    1ba8:	a90363f7 	stp	x23, x24, [sp, #48]
    1bac:	90000097 	adrp	x23, 11000 <_DYNAMIC>
    1bb0:	aa1703f8 	mov	x24, x23
    1bb4:	a9046bf9 	stp	x25, x26, [sp, #64]
/home/avees/optee_local_build/Linux_for_Tegra/sources/tegra/optee-src/nv-optee/optee/optee_os/lib/libutee/user_ta_entry.c:122
    1bb8:	910183f9 	add	x25, sp, #0x60
    1bbc:	910143fa 	add	x26, sp, #0x50
/home/avees/optee_local_build/Linux_for_Tegra/sources/tegra/optee-src/nv-optee/optee/optee_os/lib/libutee/user_ta_entry.c:109
    1bc0:	a9057fff 	stp	xzr, xzr, [sp, #80]
/home/avees/optee_local_build/Linux_for_Tegra/sources/tegra/optee-src/nv-optee/optee/optee_os/lib/libutee/user_ta_entry.c:110
    1bc4:	f90033ff 	str	xzr, [sp, #96]
/home/avees/optee_local_build/Linux_for_Tegra/sources/tegra/optee-src/nv-optee/optee/optee_os/lib/libutee/user_ta_entry.c:116
    1bc8:	9400142f 	bl	6c84 <dl_iterate_phdr>
/home/avees/optee_local_build/Linux_for_Tegra/sources/tegra/optee-src/nv-optee/optee/optee_os/lib/libutee/user_ta_entry.c:119
    1bcc:	90000081 	adrp	x1, 11000 <_DYNAMIC>
    1bd0:	91130020 	add	x0, x1, #0x4c0
    1bd4:	aa0103f3 	mov	x19, x1
    1bd8:	f9400c00 	ldr	x0, [x0, #24]
    1bdc:	f9400400 	ldr	x0, [x0, #8]
    1be0:	f9400015 	ldr	x21, [x0]
/home/avees/optee_local_build/Linux_for_Tegra/sources/tegra/optee-src/nv-optee/optee/optee_os/lib/libutee/user_ta_entry.c:119 (discriminator 1)
    1be4:	f942c2e1 	ldr	x1, [x23, #1408]
    1be8:	b5000175 	cbnz	x21, 1c14 <__utee_call_elf_init_fn+0xa0>
/home/avees/optee_local_build/Linux_for_Tegra/sources/tegra/optee-src/nv-optee/optee/optee_os/lib/libutee/user_ta_entry.c:130
    1bec:	8b010294 	add	x20, x20, x1
/home/avees/optee_local_build/Linux_for_Tegra/sources/tegra/optee-src/nv-optee/optee/optee_os/lib/libutee/user_ta_entry.c:132
    1bf0:	91130261 	add	x1, x19, #0x4c0
/home/avees/optee_local_build/Linux_for_Tegra/sources/tegra/optee-src/nv-optee/optee/optee_os/lib/libutee/user_ta_entry.c:133
    1bf4:	aa0103f3 	mov	x19, x1
/home/avees/optee_local_build/Linux_for_Tegra/sources/tegra/optee-src/nv-optee/optee/optee_os/lib/libutee/user_ta_entry.c:130
    1bf8:	f902c314 	str	x20, [x24, #1408]
/home/avees/optee_local_build/Linux_for_Tegra/sources/tegra/optee-src/nv-optee/optee/optee_os/lib/libutee/user_ta_entry.c:132
    1bfc:	f9400820 	ldr	x0, [x1, #16]
/home/avees/optee_local_build/Linux_for_Tegra/sources/tegra/optee-src/nv-optee/optee/optee_os/lib/libutee/user_ta_entry.c:132 (discriminator 2)
    1c00:	b40004a0 	cbz	x0, 1c94 <__utee_call_elf_init_fn+0x120>
    1c04:	a9440414 	ldp	x20, x1, [x0, #64]
/home/avees/optee_local_build/Linux_for_Tegra/sources/tegra/optee-src/nv-optee/optee/optee_os/lib/libutee/user_ta_entry.c:133 (discriminator 3)
    1c08:	b50003b4 	cbnz	x20, 1c7c <__utee_call_elf_init_fn+0x108>
/home/avees/optee_local_build/Linux_for_Tegra/sources/tegra/optee-src/nv-optee/optee/optee_os/lib/libutee/user_ta_entry.c:133 (discriminator 2)
    1c0c:	f9000e61 	str	x1, [x19, #24]
    1c10:	1400001c 	b	1c80 <__utee_call_elf_init_fn+0x10c>
/home/avees/optee_local_build/Linux_for_Tegra/sources/tegra/optee-src/nv-optee/optee/optee_os/lib/libutee/user_ta_entry.c:120
    1c14:	f9402fe0 	ldr	x0, [sp, #88]
    1c18:	cb010000 	sub	x0, x0, x1
    1c1c:	eb14001f 	cmp	x0, x20
    1c20:	54fffe60 	b.eq	1bec <__utee_call_elf_init_fn+0x78>  // b.none
/home/avees/optee_local_build/Linux_for_Tegra/sources/tegra/optee-src/nv-optee/optee/optee_os/lib/libutee/user_ta_entry.c:124
    1c24:	d2800016 	mov	x22, #0x0                   	// #0
/home/avees/optee_local_build/Linux_for_Tegra/sources/tegra/optee-src/nv-optee/optee/optee_os/lib/libutee/user_ta_entry.c:122
    1c28:	aa1903e4 	mov	x4, x25
    1c2c:	aa1a03e3 	mov	x3, x26
    1c30:	aa1503e0 	mov	x0, x21
    1c34:	52800362 	mov	w2, #0x1b                  	// #27
    1c38:	52800321 	mov	w1, #0x19                  	// #25
    1c3c:	97ffff1d 	bl	18b0 <_get_fn_array>
/home/avees/optee_local_build/Linux_for_Tegra/sources/tegra/optee-src/nv-optee/optee/optee_os/lib/libutee/user_ta_entry.c:124 (discriminator 1)
    1c40:	f94033e0 	ldr	x0, [sp, #96]
    1c44:	eb16001f 	cmp	x0, x22
    1c48:	54000108 	b.hi	1c68 <__utee_call_elf_init_fn+0xf4>  // b.pmore
/home/avees/optee_local_build/Linux_for_Tegra/sources/tegra/optee-src/nv-optee/optee/optee_os/lib/libutee/user_ta_entry.c:119 (discriminator 2)
    1c4c:	f94026a0 	ldr	x0, [x21, #72]
/home/avees/optee_local_build/Linux_for_Tegra/sources/tegra/optee-src/nv-optee/optee/optee_os/lib/libutee/user_ta_entry.c:128 (discriminator 2)
    1c50:	91000694 	add	x20, x20, #0x1
/home/avees/optee_local_build/Linux_for_Tegra/sources/tegra/optee-src/nv-optee/optee/optee_os/lib/libutee/user_ta_entry.c:119 (discriminator 2)
    1c54:	f9400400 	ldr	x0, [x0, #8]
    1c58:	f9400015 	ldr	x21, [x0]
/home/avees/optee_local_build/Linux_for_Tegra/sources/tegra/optee-src/nv-optee/optee/optee_os/lib/libutee/user_ta_entry.c:126 (discriminator 2)
    1c5c:	f9002bff 	str	xzr, [sp, #80]
/home/avees/optee_local_build/Linux_for_Tegra/sources/tegra/optee-src/nv-optee/optee/optee_os/lib/libutee/user_ta_entry.c:127 (discriminator 2)
    1c60:	f90033ff 	str	xzr, [sp, #96]
/home/avees/optee_local_build/Linux_for_Tegra/sources/tegra/optee-src/nv-optee/optee/optee_os/lib/libutee/user_ta_entry.c:119 (discriminator 2)
    1c64:	17ffffe0 	b	1be4 <__utee_call_elf_init_fn+0x70>
/home/avees/optee_local_build/Linux_for_Tegra/sources/tegra/optee-src/nv-optee/optee/optee_os/lib/libutee/user_ta_entry.c:125 (discriminator 3)
    1c68:	f9402be0 	ldr	x0, [sp, #80]
    1c6c:	f8767800 	ldr	x0, [x0, x22, lsl #3]
/home/avees/optee_local_build/Linux_for_Tegra/sources/tegra/optee-src/nv-optee/optee/optee_os/lib/libutee/user_ta_entry.c:124 (discriminator 3)
    1c70:	910006d6 	add	x22, x22, #0x1
/home/avees/optee_local_build/Linux_for_Tegra/sources/tegra/optee-src/nv-optee/optee/optee_os/lib/libutee/user_ta_entry.c:125 (discriminator 3)
    1c74:	d63f0000 	blr	x0
/home/avees/optee_local_build/Linux_for_Tegra/sources/tegra/optee-src/nv-optee/optee/optee_os/lib/libutee/user_ta_entry.c:124 (discriminator 3)
    1c78:	17fffff2 	b	1c40 <__utee_call_elf_init_fn+0xcc>
/home/avees/optee_local_build/Linux_for_Tegra/sources/tegra/optee-src/nv-optee/optee/optee_os/lib/libutee/user_ta_entry.c:133 (discriminator 1)
    1c7c:	f9002681 	str	x1, [x20, #72]
/home/avees/optee_local_build/Linux_for_Tegra/sources/tegra/optee-src/nv-optee/optee/optee_os/lib/libutee/user_ta_entry.c:133 (discriminator 4)
    1c80:	f9402401 	ldr	x1, [x0, #72]
    1c84:	f9000034 	str	x20, [x1]
/home/avees/optee_local_build/Linux_for_Tegra/sources/tegra/optee-src/nv-optee/optee/optee_os/lib/libutee/user_ta_entry.c:134 (discriminator 4)
    1c88:	940029b9 	bl	c36c <free>
/home/avees/optee_local_build/Linux_for_Tegra/sources/tegra/optee-src/nv-optee/optee/optee_os/lib/libutee/user_ta_entry.c:132 (discriminator 4)
    1c8c:	aa1403e0 	mov	x0, x20
    1c90:	17ffffdc 	b	1c00 <__utee_call_elf_init_fn+0x8c>
/home/avees/optee_local_build/Linux_for_Tegra/sources/tegra/optee-src/nv-optee/optee/optee_os/lib/libutee/user_ta_entry.c:136
    1c94:	90000080 	adrp	x0, 11000 <_DYNAMIC>
    1c98:	f9409800 	ldr	x0, [x0, #304]
    1c9c:	f94037e1 	ldr	x1, [sp, #104]
    1ca0:	f9400002 	ldr	x2, [x0]
    1ca4:	eb020021 	subs	x1, x1, x2
    1ca8:	d2800002 	mov	x2, #0x0                   	// #0
    1cac:	54000040 	b.eq	1cb4 <__utee_call_elf_init_fn+0x140>  // b.none
    1cb0:	97fffae6 	bl	848 <__stack_chk_fail>
    1cb4:	a94153f3 	ldp	x19, x20, [sp, #16]
    1cb8:	a9425bf5 	ldp	x21, x22, [sp, #32]
    1cbc:	a94363f7 	ldp	x23, x24, [sp, #48]
    1cc0:	a9446bf9 	ldp	x25, x26, [sp, #64]
    1cc4:	a8c77bfd 	ldp	x29, x30, [sp], #112
    1cc8:	d65f03c0 	ret

0000000000001ccc <__utee_call_elf_fini_fn>:
__utee_call_elf_fini_fn():
/home/avees/optee_local_build/Linux_for_Tegra/sources/tegra/optee-src/nv-optee/optee/optee_os/lib/libutee/user_ta_entry.c:155
    1ccc:	d2800001 	mov	x1, #0x0                   	// #0
    1cd0:	90000000 	adrp	x0, 1000 <kprintf.constprop.0+0x5a4>
    1cd4:	91258000 	add	x0, x0, #0x960
    1cd8:	140013eb 	b	6c84 <dl_iterate_phdr>

0000000000001cdc <ta_header_remove_session>:
ta_header_remove_session():
/home/avees/optee_local_build/Linux_for_Tegra/sources/tegra/optee-src/nv-optee/optee/optee_os/lib/libutee/user_ta_entry.c:245
    1cdc:	a9be7bfd 	stp	x29, x30, [sp, #-32]!
    1ce0:	2a0003e2 	mov	w2, w0
    1ce4:	910003fd 	mov	x29, sp
    1ce8:	f9000bf3 	str	x19, [sp, #16]
/home/avees/optee_local_build/Linux_for_Tegra/sources/tegra/optee-src/nv-optee/optee/optee_os/lib/libutee/user_ta_entry.c:249
    1cec:	90000093 	adrp	x19, 11000 <_DYNAMIC>
    1cf0:	f9426260 	ldr	x0, [x19, #1216]
/home/avees/optee_local_build/Linux_for_Tegra/sources/tegra/optee-src/nv-optee/optee/optee_os/lib/libutee/user_ta_entry.c:249 (discriminator 1)
    1cf4:	b5000080 	cbnz	x0, 1d04 <ta_header_remove_session+0x28>
/home/avees/optee_local_build/Linux_for_Tegra/sources/tegra/optee-src/nv-optee/optee/optee_os/lib/libutee/user_ta_entry.c:263
    1cf8:	f9400bf3 	ldr	x19, [sp, #16]
    1cfc:	a8c27bfd 	ldp	x29, x30, [sp], #32
    1d00:	d65f03c0 	ret
/home/avees/optee_local_build/Linux_for_Tegra/sources/tegra/optee-src/nv-optee/optee/optee_os/lib/libutee/user_ta_entry.c:250
    1d04:	b9400003 	ldr	w3, [x0]
    1d08:	f9400801 	ldr	x1, [x0, #16]
    1d0c:	6b02007f 	cmp	w3, w2
    1d10:	540002e1 	b.ne	1d6c <ta_header_remove_session+0x90>  // b.any
/home/avees/optee_local_build/Linux_for_Tegra/sources/tegra/optee-src/nv-optee/optee/optee_os/lib/libutee/user_ta_entry.c:251
    1d14:	f9400c02 	ldr	x2, [x0, #24]
    1d18:	b4000241 	cbz	x1, 1d60 <ta_header_remove_session+0x84>
/home/avees/optee_local_build/Linux_for_Tegra/sources/tegra/optee-src/nv-optee/optee/optee_os/lib/libutee/user_ta_entry.c:251 (discriminator 1)
    1d1c:	f9000c22 	str	x2, [x1, #24]
/home/avees/optee_local_build/Linux_for_Tegra/sources/tegra/optee-src/nv-optee/optee/optee_os/lib/libutee/user_ta_entry.c:251 (discriminator 4)
    1d20:	f9400c02 	ldr	x2, [x0, #24]
    1d24:	f9000041 	str	x1, [x2]
/home/avees/optee_local_build/Linux_for_Tegra/sources/tegra/optee-src/nv-optee/optee/optee_os/lib/libutee/user_ta_entry.c:252 (discriminator 4)
    1d28:	94000542 	bl	3230 <TEE_Free>
/home/avees/optee_local_build/Linux_for_Tegra/sources/tegra/optee-src/nv-optee/optee/optee_os/lib/libutee/user_ta_entry.c:257 (discriminator 4)
    1d2c:	f9426260 	ldr	x0, [x19, #1216]
    1d30:	b5fffe40 	cbnz	x0, 1cf8 <ta_header_remove_session+0x1c>
/home/avees/optee_local_build/Linux_for_Tegra/sources/tegra/optee-src/nv-optee/optee/optee_os/lib/libutee/user_ta_entry.c:255 (discriminator 1)
    1d34:	90000080 	adrp	x0, 11000 <_DYNAMIC>
    1d38:	52800281 	mov	w1, #0x14                  	// #20
    1d3c:	f940e000 	ldr	x0, [x0, #448]
    1d40:	b9401400 	ldr	w0, [x0, #20]
    1d44:	0a010000 	and	w0, w0, w1
/home/avees/optee_local_build/Linux_for_Tegra/sources/tegra/optee-src/nv-optee/optee/optee_os/lib/libutee/user_ta_entry.c:257 (discriminator 1)
    1d48:	6b01001f 	cmp	w0, w1
    1d4c:	54fffd60 	b.eq	1cf8 <ta_header_remove_session+0x1c>  // b.none
uninit_instance():
/home/avees/optee_local_build/Linux_for_Tegra/sources/tegra/optee-src/nv-optee/optee/optee_os/lib/libutee/user_ta_entry.c:192
    1d50:	97fff8fc 	bl	140 <TA_DestroyEntryPoint>
ta_header_remove_session():
/home/avees/optee_local_build/Linux_for_Tegra/sources/tegra/optee-src/nv-optee/optee/optee_os/lib/libutee/user_ta_entry.c:263
    1d54:	f9400bf3 	ldr	x19, [sp, #16]
    1d58:	a8c27bfd 	ldp	x29, x30, [sp], #32
uninit_instance():
/home/avees/optee_local_build/Linux_for_Tegra/sources/tegra/optee-src/nv-optee/optee/optee_os/lib/libutee/user_ta_entry.c:193
    1d5c:	17ffffdc 	b	1ccc <__utee_call_elf_fini_fn>
ta_header_remove_session():
/home/avees/optee_local_build/Linux_for_Tegra/sources/tegra/optee-src/nv-optee/optee/optee_os/lib/libutee/user_ta_entry.c:251 (discriminator 2)
    1d60:	91130263 	add	x3, x19, #0x4c0
    1d64:	f9000462 	str	x2, [x3, #8]
    1d68:	17ffffee 	b	1d20 <ta_header_remove_session+0x44>
    1d6c:	aa0103e0 	mov	x0, x1
    1d70:	17ffffe1 	b	1cf4 <ta_header_remove_session+0x18>

0000000000001d74 <__utee_entry>:
__utee_entry():
/home/avees/optee_local_build/Linux_for_Tegra/sources/tegra/optee-src/nv-optee/optee/optee_os/lib/libutee/user_ta_entry.c:421
    1d74:	a9b77bfd 	stp	x29, x30, [sp, #-144]!
/home/avees/optee_local_build/Linux_for_Tegra/sources/tegra/optee-src/nv-optee/optee/optee_os/lib/libutee/user_ta_entry.c:424
    1d78:	f100041f 	cmp	x0, #0x1
/home/avees/optee_local_build/Linux_for_Tegra/sources/tegra/optee-src/nv-optee/optee/optee_os/lib/libutee/user_ta_entry.c:421
    1d7c:	910003fd 	mov	x29, sp
    1d80:	a9025bf5 	stp	x21, x22, [sp, #32]
    1d84:	aa0103f5 	mov	x21, x1
    1d88:	90000081 	adrp	x1, 11000 <_DYNAMIC>
    1d8c:	aa0203f6 	mov	x22, x2
    1d90:	a90363f7 	stp	x23, x24, [sp, #48]
    1d94:	aa0303f7 	mov	x23, x3
    1d98:	f9409822 	ldr	x2, [x1, #304]
    1d9c:	a90153f3 	stp	x19, x20, [sp, #16]
    1da0:	aa0103f4 	mov	x20, x1
    1da4:	f9400043 	ldr	x3, [x2]
    1da8:	f90047e3 	str	x3, [sp, #136]
    1dac:	d2800003 	mov	x3, #0x0                   	// #0
/home/avees/optee_local_build/Linux_for_Tegra/sources/tegra/optee-src/nv-optee/optee/optee_os/lib/libutee/user_ta_entry.c:424
    1db0:	54000ca0 	b.eq	1f44 <__utee_entry+0x1d0>  // b.none
    1db4:	f100081f 	cmp	x0, #0x2
    1db8:	54000d80 	b.eq	1f68 <__utee_entry+0x1f4>  // b.none
    1dbc:	b50010c0 	cbnz	x0, 1fd4 <__utee_entry+0x260>
ta_header_add_session():
/home/avees/optee_local_build/Linux_for_Tegra/sources/tegra/optee-src/nv-optee/optee/optee_os/lib/libutee/user_ta_entry.c:220
    1dc0:	2a1503e0 	mov	w0, w21
    1dc4:	97ffff0b 	bl	19f0 <ta_header_get_session>
/home/avees/optee_local_build/Linux_for_Tegra/sources/tegra/optee-src/nv-optee/optee/optee_os/lib/libutee/user_ta_entry.c:223
    1dc8:	b5000840 	cbnz	x0, 1ed0 <__utee_entry+0x15c>
/home/avees/optee_local_build/Linux_for_Tegra/sources/tegra/optee-src/nv-optee/optee/optee_os/lib/libutee/user_ta_entry.c:226
    1dcc:	90000080 	adrp	x0, 11000 <_DYNAMIC>
    1dd0:	91160000 	add	x0, x0, #0x580
    1dd4:	39402001 	ldrb	w1, [x0, #8]
    1dd8:	340000e1 	cbz	w1, 1df4 <__utee_entry+0x80>
/home/avees/optee_local_build/Linux_for_Tegra/sources/tegra/optee-src/nv-optee/optee/optee_os/lib/libutee/user_ta_entry.c:233
    1ddc:	52b00001 	mov	w1, #0x80000000            	// #-2147483648
    1de0:	d2800400 	mov	x0, #0x20                  	// #32
    1de4:	940004c8 	bl	3104 <TEE_Malloc>
/home/avees/optee_local_build/Linux_for_Tegra/sources/tegra/optee-src/nv-optee/optee/optee_os/lib/libutee/user_ta_entry.c:235
    1de8:	b5000620 	cbnz	x0, 1eac <__utee_entry+0x138>
/home/avees/optee_local_build/Linux_for_Tegra/sources/tegra/optee-src/nv-optee/optee/optee_os/lib/libutee/user_ta_entry.c:236
    1dec:	129ffe73 	mov	w19, #0xffff000c            	// #-65524
    1df0:	14000022 	b	1e78 <__utee_entry+0x104>
/home/avees/optee_local_build/Linux_for_Tegra/sources/tegra/optee-src/nv-optee/optee/optee_os/lib/libutee/user_ta_entry.c:227
    1df4:	52800021 	mov	w1, #0x1                   	// #1
    1df8:	39002001 	strb	w1, [x0, #8]
init_instance():
/home/avees/optee_local_build/Linux_for_Tegra/sources/tegra/optee-src/nv-optee/optee/optee_os/lib/libutee/user_ta_entry.c:170
    1dfc:	97fff91e 	bl	274 <tahead_get_trace_level>
    1e00:	97fff962 	bl	388 <trace_set_level>
/home/avees/optee_local_build/Linux_for_Tegra/sources/tegra/optee-src/nv-optee/optee/optee_os/lib/libutee/user_ta_entry.c:172
    1e04:	f9409e80 	ldr	x0, [x20, #312]
    1e08:	f9400001 	ldr	x1, [x0]
    1e0c:	f940be80 	ldr	x0, [x20, #376]
    1e10:	94002a24 	bl	c6a0 <malloc_add_pool>
/home/avees/optee_local_build/Linux_for_Tegra/sources/tegra/optee-src/nv-optee/optee/optee_os/lib/libutee/user_ta_entry.c:173
    1e14:	f940a280 	ldr	x0, [x20, #320]
    1e18:	f9400017 	ldr	x23, [x0]
    1e1c:	b4000177 	cbz	x23, 1e48 <__utee_entry+0xd4>
/home/avees/optee_local_build/Linux_for_Tegra/sources/tegra/optee-src/nv-optee/optee/optee_os/lib/libutee/user_ta_entry.c:174
    1e20:	9400295b 	bl	c38c <raw_malloc_get_ctx_size>
    1e24:	94002932 	bl	c2ec <malloc>
    1e28:	f940d293 	ldr	x19, [x20, #416]
    1e2c:	f9000260 	str	x0, [x19]
/home/avees/optee_local_build/Linux_for_Tegra/sources/tegra/optee-src/nv-optee/optee/optee_os/lib/libutee/user_ta_entry.c:175
    1e30:	b40000c0 	cbz	x0, 1e48 <__utee_entry+0xd4>
/home/avees/optee_local_build/Linux_for_Tegra/sources/tegra/optee-src/nv-optee/optee/optee_os/lib/libutee/user_ta_entry.c:176
    1e34:	94002958 	bl	c394 <raw_malloc_init_ctx>
/home/avees/optee_local_build/Linux_for_Tegra/sources/tegra/optee-src/nv-optee/optee/optee_os/lib/libutee/user_ta_entry.c:177
    1e38:	f940d681 	ldr	x1, [x20, #424]
    1e3c:	aa1703e2 	mov	x2, x23
    1e40:	f9400260 	ldr	x0, [x19]
    1e44:	9400295f 	bl	c3c0 <raw_malloc_add_pool>
get_memtag_implementation():
/home/avees/optee_local_build/Linux_for_Tegra/sources/tegra/optee-src/nv-optee/optee/optee_os/lib/libutee/user_ta_entry.c:163
    1e48:	910113e2 	add	x2, sp, #0x44
    1e4c:	d0000061 	adrp	x1, f000 <__text_end+0x2508>
    1e50:	912c1821 	add	x1, x1, #0xb06
    1e54:	12800040 	mov	w0, #0xfffffffd            	// #-3
/home/avees/optee_local_build/Linux_for_Tegra/sources/tegra/optee-src/nv-optee/optee/optee_os/lib/libutee/user_ta_entry.c:161
    1e58:	b90047ff 	str	wzr, [sp, #68]
/home/avees/optee_local_build/Linux_for_Tegra/sources/tegra/optee-src/nv-optee/optee/optee_os/lib/libutee/user_ta_entry.c:163
    1e5c:	94001028 	bl	5efc <TEE_GetPropertyAsU32>
init_instance():
/home/avees/optee_local_build/Linux_for_Tegra/sources/tegra/optee-src/nv-optee/optee/optee_os/lib/libutee/user_ta_entry.c:183
    1e60:	94000763 	bl	3bec <_TEE_MathAPI_Init>
/home/avees/optee_local_build/Linux_for_Tegra/sources/tegra/optee-src/nv-optee/optee/optee_os/lib/libutee/user_ta_entry.c:184
    1e64:	940012f1 	bl	6a28 <__utee_tcb_init>
/home/avees/optee_local_build/Linux_for_Tegra/sources/tegra/optee-src/nv-optee/optee/optee_os/lib/libutee/user_ta_entry.c:185
    1e68:	97ffff43 	bl	1b74 <__utee_call_elf_init_fn>
/home/avees/optee_local_build/Linux_for_Tegra/sources/tegra/optee-src/nv-optee/optee/optee_os/lib/libutee/user_ta_entry.c:186
    1e6c:	97fff8a8 	bl	10c <TA_CreateEntryPoint>
    1e70:	2a0003f3 	mov	w19, w0
ta_header_add_session():
/home/avees/optee_local_build/Linux_for_Tegra/sources/tegra/optee-src/nv-optee/optee/optee_os/lib/libutee/user_ta_entry.c:229
    1e74:	34fffb40 	cbz	w0, 1ddc <__utee_entry+0x68>
ta_header_save_params():
/home/avees/optee_local_build/Linux_for_Tegra/sources/tegra/optee-src/nv-optee/optee/optee_os/lib/libutee/user_ta_entry.c:199
    1e78:	f940ca80 	ldr	x0, [x20, #400]
/home/avees/optee_local_build/Linux_for_Tegra/sources/tegra/optee-src/nv-optee/optee/optee_os/lib/libutee/user_ta_entry.c:204
    1e7c:	52800001 	mov	w1, #0x0                   	// #0
    1e80:	d2800802 	mov	x2, #0x40                  	// #64
/home/avees/optee_local_build/Linux_for_Tegra/sources/tegra/optee-src/nv-optee/optee/optee_os/lib/libutee/user_ta_entry.c:199
    1e84:	b900001f 	str	wzr, [x0]
/home/avees/optee_local_build/Linux_for_Tegra/sources/tegra/optee-src/nv-optee/optee/optee_os/lib/libutee/user_ta_entry.c:204
    1e88:	f940da80 	ldr	x0, [x20, #432]
    1e8c:	94002a75 	bl	c860 <memset>
__utee_entry():
/home/avees/optee_local_build/Linux_for_Tegra/sources/tegra/optee-src/nv-optee/optee/optee_os/lib/libutee/user_ta_entry.c:446
    1e90:	f9409a94 	ldr	x20, [x20, #304]
    1e94:	f94047e0 	ldr	x0, [sp, #136]
    1e98:	f9400281 	ldr	x1, [x20]
    1e9c:	eb010000 	subs	x0, x0, x1
    1ea0:	d2800001 	mov	x1, #0x0                   	// #0
    1ea4:	54000a00 	b.eq	1fe4 <__utee_entry+0x270>  // b.none
    1ea8:	97fffa68 	bl	848 <__stack_chk_fail>
ta_header_add_session():
/home/avees/optee_local_build/Linux_for_Tegra/sources/tegra/optee-src/nv-optee/optee/optee_os/lib/libutee/user_ta_entry.c:239
    1eac:	90000081 	adrp	x1, 11000 <_DYNAMIC>
    1eb0:	91130021 	add	x1, x1, #0x4c0
    1eb4:	f9400422 	ldr	x2, [x1, #8]
/home/avees/optee_local_build/Linux_for_Tegra/sources/tegra/optee-src/nv-optee/optee/optee_os/lib/libutee/user_ta_entry.c:237
    1eb8:	b9000015 	str	w21, [x0]
/home/avees/optee_local_build/Linux_for_Tegra/sources/tegra/optee-src/nv-optee/optee/optee_os/lib/libutee/user_ta_entry.c:239
    1ebc:	a900fc1f 	stp	xzr, xzr, [x0, #8]
    1ec0:	f9000c02 	str	x2, [x0, #24]
    1ec4:	f9000040 	str	x0, [x2]
    1ec8:	91004000 	add	x0, x0, #0x10
    1ecc:	f9000420 	str	x0, [x1, #8]
entry_open_session():
/home/avees/optee_local_build/Linux_for_Tegra/sources/tegra/optee-src/nv-optee/optee/optee_os/lib/libutee/user_ta_entry.c:338
    1ed0:	2a1503e0 	mov	w0, w21
    1ed4:	97fffec7 	bl	19f0 <ta_header_get_session>
    1ed8:	aa0003f3 	mov	x19, x0
/home/avees/optee_local_build/Linux_for_Tegra/sources/tegra/optee-src/nv-optee/optee/optee_os/lib/libutee/user_ta_entry.c:339
    1edc:	b4000800 	cbz	x0, 1fdc <__utee_entry+0x268>
/home/avees/optee_local_build/Linux_for_Tegra/sources/tegra/optee-src/nv-optee/optee/optee_os/lib/libutee/user_ta_entry.c:342
    1ee0:	910123f7 	add	x23, sp, #0x48
    1ee4:	aa1603e2 	mov	x2, x22
    1ee8:	910113e1 	add	x1, sp, #0x44
    1eec:	aa1703e0 	mov	x0, x23
    1ef0:	97fffee5 	bl	1a84 <from_utee_params>
/home/avees/optee_local_build/Linux_for_Tegra/sources/tegra/optee-src/nv-optee/optee/optee_os/lib/libutee/user_ta_entry.c:343
    1ef4:	b94047f8 	ldr	w24, [sp, #68]
ta_header_save_params():
/home/avees/optee_local_build/Linux_for_Tegra/sources/tegra/optee-src/nv-optee/optee/optee_os/lib/libutee/user_ta_entry.c:199
    1ef8:	f940ca80 	ldr	x0, [x20, #400]
/home/avees/optee_local_build/Linux_for_Tegra/sources/tegra/optee-src/nv-optee/optee/optee_os/lib/libutee/user_ta_entry.c:202
    1efc:	aa1703e1 	mov	x1, x23
    1f00:	d2800802 	mov	x2, #0x40                  	// #64
/home/avees/optee_local_build/Linux_for_Tegra/sources/tegra/optee-src/nv-optee/optee/optee_os/lib/libutee/user_ta_entry.c:199
    1f04:	b9000018 	str	w24, [x0]
/home/avees/optee_local_build/Linux_for_Tegra/sources/tegra/optee-src/nv-optee/optee/optee_os/lib/libutee/user_ta_entry.c:202
    1f08:	f940da80 	ldr	x0, [x20, #432]
    1f0c:	97fff845 	bl	20 <memcpy>
entry_open_session():
/home/avees/optee_local_build/Linux_for_Tegra/sources/tegra/optee-src/nv-optee/optee/optee_os/lib/libutee/user_ta_entry.c:345
    1f10:	91002262 	add	x2, x19, #0x8
    1f14:	aa1703e1 	mov	x1, x23
    1f18:	2a1803e0 	mov	w0, w24
    1f1c:	97fff892 	bl	164 <TA_OpenSessionEntryPoint>
/home/avees/optee_local_build/Linux_for_Tegra/sources/tegra/optee-src/nv-optee/optee/optee_os/lib/libutee/user_ta_entry.c:348
    1f20:	b94047e1 	ldr	w1, [sp, #68]
/home/avees/optee_local_build/Linux_for_Tegra/sources/tegra/optee-src/nv-optee/optee/optee_os/lib/libutee/user_ta_entry.c:345
    1f24:	2a0003f3 	mov	w19, w0
/home/avees/optee_local_build/Linux_for_Tegra/sources/tegra/optee-src/nv-optee/optee/optee_os/lib/libutee/user_ta_entry.c:348
    1f28:	aa1703e2 	mov	x2, x23
    1f2c:	aa1603e0 	mov	x0, x22
    1f30:	97fffeba 	bl	1a18 <to_utee_params>
/home/avees/optee_local_build/Linux_for_Tegra/sources/tegra/optee-src/nv-optee/optee/optee_os/lib/libutee/user_ta_entry.c:350
    1f34:	34fffa33 	cbz	w19, 1e78 <__utee_entry+0x104>
/home/avees/optee_local_build/Linux_for_Tegra/sources/tegra/optee-src/nv-optee/optee/optee_os/lib/libutee/user_ta_entry.c:351
    1f38:	2a1503e0 	mov	w0, w21
    1f3c:	97ffff68 	bl	1cdc <ta_header_remove_session>
    1f40:	17ffffce 	b	1e78 <__utee_entry+0x104>
entry_close_session():
/home/avees/optee_local_build/Linux_for_Tegra/sources/tegra/optee-src/nv-optee/optee/optee_os/lib/libutee/user_ta_entry.c:357
    1f44:	2a1503e0 	mov	w0, w21
    1f48:	97fffeaa 	bl	19f0 <ta_header_get_session>
/home/avees/optee_local_build/Linux_for_Tegra/sources/tegra/optee-src/nv-optee/optee/optee_os/lib/libutee/user_ta_entry.c:359
    1f4c:	b4000480 	cbz	x0, 1fdc <__utee_entry+0x268>
/home/avees/optee_local_build/Linux_for_Tegra/sources/tegra/optee-src/nv-optee/optee/optee_os/lib/libutee/user_ta_entry.c:362
    1f50:	f9400400 	ldr	x0, [x0, #8]
/home/avees/optee_local_build/Linux_for_Tegra/sources/tegra/optee-src/nv-optee/optee/optee_os/lib/libutee/user_ta_entry.c:365
    1f54:	52800013 	mov	w19, #0x0                   	// #0
/home/avees/optee_local_build/Linux_for_Tegra/sources/tegra/optee-src/nv-optee/optee/optee_os/lib/libutee/user_ta_entry.c:362
    1f58:	97fff891 	bl	19c <TA_CloseSessionEntryPoint>
/home/avees/optee_local_build/Linux_for_Tegra/sources/tegra/optee-src/nv-optee/optee/optee_os/lib/libutee/user_ta_entry.c:364
    1f5c:	2a1503e0 	mov	w0, w21
    1f60:	97ffff5f 	bl	1cdc <ta_header_remove_session>
/home/avees/optee_local_build/Linux_for_Tegra/sources/tegra/optee-src/nv-optee/optee/optee_os/lib/libutee/user_ta_entry.c:365
    1f64:	17ffffc5 	b	1e78 <__utee_entry+0x104>
entry_invoke_command():
/home/avees/optee_local_build/Linux_for_Tegra/sources/tegra/optee-src/nv-optee/optee/optee_os/lib/libutee/user_ta_entry.c:374
    1f68:	2a1503e0 	mov	w0, w21
    1f6c:	97fffea1 	bl	19f0 <ta_header_get_session>
    1f70:	aa0003f3 	mov	x19, x0
/home/avees/optee_local_build/Linux_for_Tegra/sources/tegra/optee-src/nv-optee/optee/optee_os/lib/libutee/user_ta_entry.c:376
    1f74:	b4000340 	cbz	x0, 1fdc <__utee_entry+0x268>
/home/avees/optee_local_build/Linux_for_Tegra/sources/tegra/optee-src/nv-optee/optee/optee_os/lib/libutee/user_ta_entry.c:379
    1f78:	910123f5 	add	x21, sp, #0x48
    1f7c:	aa1603e2 	mov	x2, x22
    1f80:	910113e1 	add	x1, sp, #0x44
    1f84:	aa1503e0 	mov	x0, x21
    1f88:	97fffebf 	bl	1a84 <from_utee_params>
/home/avees/optee_local_build/Linux_for_Tegra/sources/tegra/optee-src/nv-optee/optee/optee_os/lib/libutee/user_ta_entry.c:380
    1f8c:	b94047f8 	ldr	w24, [sp, #68]
ta_header_save_params():
/home/avees/optee_local_build/Linux_for_Tegra/sources/tegra/optee-src/nv-optee/optee/optee_os/lib/libutee/user_ta_entry.c:199
    1f90:	f940ca80 	ldr	x0, [x20, #400]
/home/avees/optee_local_build/Linux_for_Tegra/sources/tegra/optee-src/nv-optee/optee/optee_os/lib/libutee/user_ta_entry.c:202
    1f94:	aa1503e1 	mov	x1, x21
    1f98:	d2800802 	mov	x2, #0x40                  	// #64
/home/avees/optee_local_build/Linux_for_Tegra/sources/tegra/optee-src/nv-optee/optee/optee_os/lib/libutee/user_ta_entry.c:199
    1f9c:	b9000018 	str	w24, [x0]
/home/avees/optee_local_build/Linux_for_Tegra/sources/tegra/optee-src/nv-optee/optee/optee_os/lib/libutee/user_ta_entry.c:202
    1fa0:	f940da80 	ldr	x0, [x20, #432]
    1fa4:	97fff81f 	bl	20 <memcpy>
entry_invoke_command():
/home/avees/optee_local_build/Linux_for_Tegra/sources/tegra/optee-src/nv-optee/optee/optee_os/lib/libutee/user_ta_entry.c:382
    1fa8:	f9400660 	ldr	x0, [x19, #8]
    1fac:	2a1803e2 	mov	w2, w24
    1fb0:	2a1703e1 	mov	w1, w23
    1fb4:	aa1503e3 	mov	x3, x21
    1fb8:	97fff882 	bl	1c0 <TA_InvokeCommandEntryPoint>
    1fbc:	2a0003f3 	mov	w19, w0
/home/avees/optee_local_build/Linux_for_Tegra/sources/tegra/optee-src/nv-optee/optee/optee_os/lib/libutee/user_ta_entry.c:385
    1fc0:	b94047e1 	ldr	w1, [sp, #68]
    1fc4:	aa1503e2 	mov	x2, x21
    1fc8:	aa1603e0 	mov	x0, x22
    1fcc:	97fffe93 	bl	1a18 <to_utee_params>
/home/avees/optee_local_build/Linux_for_Tegra/sources/tegra/optee-src/nv-optee/optee/optee_os/lib/libutee/user_ta_entry.c:386
    1fd0:	17ffffaa 	b	1e78 <__utee_entry+0x104>
__utee_entry():
/home/avees/optee_local_build/Linux_for_Tegra/sources/tegra/optee-src/nv-optee/optee/optee_os/lib/libutee/user_ta_entry.c:424
    1fd4:	129ffeb3 	mov	w19, #0xffff000a            	// #-65526
    1fd8:	17ffffa8 	b	1e78 <__utee_entry+0x104>
entry_close_session():
/home/avees/optee_local_build/Linux_for_Tegra/sources/tegra/optee-src/nv-optee/optee/optee_os/lib/libutee/user_ta_entry.c:360
    1fdc:	129fff13 	mov	w19, #0xffff0007            	// #-65529
    1fe0:	17ffffa6 	b	1e78 <__utee_entry+0x104>
__utee_entry():
/home/avees/optee_local_build/Linux_for_Tegra/sources/tegra/optee-src/nv-optee/optee/optee_os/lib/libutee/user_ta_entry.c:446
    1fe4:	2a1303e0 	mov	w0, w19
    1fe8:	a94153f3 	ldp	x19, x20, [sp, #16]
    1fec:	a9425bf5 	ldp	x21, x22, [sp, #32]
    1ff0:	a94363f7 	ldp	x23, x24, [sp, #48]
    1ff4:	a8c97bfd 	ldp	x29, x30, [sp], #144
    1ff8:	d65f03c0 	ret

0000000000001ffc <_utee_panic>:
_utee_panic():
/home/avees/optee_local_build/Linux_for_Tegra/sources/tegra/optee-src/nv-optee/optee/optee_os/lib/libutee/arch/arm/utee_syscalls_a64.S:41
    1ffc:	a9bf7bfd 	stp	x29, x30, [sp, #-16]!
/home/avees/optee_local_build/Linux_for_Tegra/sources/tegra/optee-src/nv-optee/optee/optee_os/lib/libutee/arch/arm/utee_syscalls_a64.S:42
    2000:	910003e1 	mov	x1, sp
/home/avees/optee_local_build/Linux_for_Tegra/sources/tegra/optee-src/nv-optee/optee/optee_os/lib/libutee/arch/arm/utee_syscalls_a64.S:43
    2004:	94000007 	bl	2020 <__utee_panic>

0000000000002008 <_utee_return>:
_utee_return():
/home/avees/optee_local_build/Linux_for_Tegra/sources/tegra/optee-src/nv-optee/optee/optee_os/lib/libutee/include/utee_syscalls_asm.S:8
    2008:	d2800008 	mov	x8, #0x0                   	// #0
    200c:	d4000001 	svc	#0x0
    2010:	d65f03c0 	ret

0000000000002014 <_utee_log>:
_utee_log():
/home/avees/optee_local_build/Linux_for_Tegra/sources/tegra/optee-src/nv-optee/optee/optee_os/lib/libutee/include/utee_syscalls_asm.S:10
    2014:	d2800028 	mov	x8, #0x1                   	// #1
    2018:	d4000001 	svc	#0x0
    201c:	d65f03c0 	ret

0000000000002020 <__utee_panic>:
__utee_panic():
/home/avees/optee_local_build/Linux_for_Tegra/sources/tegra/optee-src/nv-optee/optee/optee_os/lib/libutee/include/utee_syscalls_asm.S:12
    2020:	d2800048 	mov	x8, #0x2                   	// #2
    2024:	d4000001 	svc	#0x0
    2028:	d65f03c0 	ret

000000000000202c <_utee_get_property>:
_utee_get_property():
/home/avees/optee_local_build/Linux_for_Tegra/sources/tegra/optee-src/nv-optee/optee/optee_os/lib/libutee/include/utee_syscalls_asm.S:14
    202c:	d2800068 	mov	x8, #0x3                   	// #3
    2030:	d4000001 	svc	#0x0
    2034:	d65f03c0 	ret

0000000000002038 <_utee_get_property_name_to_index>:
_utee_get_property_name_to_index():
/home/avees/optee_local_build/Linux_for_Tegra/sources/tegra/optee-src/nv-optee/optee/optee_os/lib/libutee/include/utee_syscalls_asm.S:16
    2038:	d2800088 	mov	x8, #0x4                   	// #4
    203c:	d4000001 	svc	#0x0
    2040:	d65f03c0 	ret

0000000000002044 <_utee_open_ta_session>:
_utee_open_ta_session():
/home/avees/optee_local_build/Linux_for_Tegra/sources/tegra/optee-src/nv-optee/optee/optee_os/lib/libutee/include/utee_syscalls_asm.S:19
    2044:	d28000a8 	mov	x8, #0x5                   	// #5
    2048:	d4000001 	svc	#0x0
    204c:	d65f03c0 	ret

0000000000002050 <_utee_close_ta_session>:
_utee_close_ta_session():
/home/avees/optee_local_build/Linux_for_Tegra/sources/tegra/optee-src/nv-optee/optee/optee_os/lib/libutee/include/utee_syscalls_asm.S:21
    2050:	d28000c8 	mov	x8, #0x6                   	// #6
    2054:	d4000001 	svc	#0x0
    2058:	d65f03c0 	ret

000000000000205c <_utee_invoke_ta_command>:
_utee_invoke_ta_command():
/home/avees/optee_local_build/Linux_for_Tegra/sources/tegra/optee-src/nv-optee/optee/optee_os/lib/libutee/include/utee_syscalls_asm.S:23
    205c:	d28000e8 	mov	x8, #0x7                   	// #7
    2060:	d4000001 	svc	#0x0
    2064:	d65f03c0 	ret

0000000000002068 <_utee_get_cancellation_flag>:
_utee_get_cancellation_flag():
/home/avees/optee_local_build/Linux_for_Tegra/sources/tegra/optee-src/nv-optee/optee/optee_os/lib/libutee/include/utee_syscalls_asm.S:25
    2068:	d2800128 	mov	x8, #0x9                   	// #9
    206c:	d4000001 	svc	#0x0
    2070:	d65f03c0 	ret

0000000000002074 <_utee_check_access_rights>:
_utee_check_access_rights():
/home/avees/optee_local_build/Linux_for_Tegra/sources/tegra/optee-src/nv-optee/optee/optee_os/lib/libutee/include/utee_syscalls_asm.S:28
    2074:	d2800108 	mov	x8, #0x8                   	// #8
    2078:	d4000001 	svc	#0x0
    207c:	d65f03c0 	ret

0000000000002080 <_utee_unmask_cancellation>:
_utee_unmask_cancellation():
/home/avees/optee_local_build/Linux_for_Tegra/sources/tegra/optee-src/nv-optee/optee/optee_os/lib/libutee/include/utee_syscalls_asm.S:30
    2080:	d2800148 	mov	x8, #0xa                   	// #10
    2084:	d4000001 	svc	#0x0
    2088:	d65f03c0 	ret

000000000000208c <_utee_mask_cancellation>:
_utee_mask_cancellation():
/home/avees/optee_local_build/Linux_for_Tegra/sources/tegra/optee-src/nv-optee/optee/optee_os/lib/libutee/include/utee_syscalls_asm.S:32
    208c:	d2800168 	mov	x8, #0xb                   	// #11
    2090:	d4000001 	svc	#0x0
    2094:	d65f03c0 	ret

0000000000002098 <_utee_wait>:
_utee_wait():
/home/avees/optee_local_build/Linux_for_Tegra/sources/tegra/optee-src/nv-optee/optee/optee_os/lib/libutee/include/utee_syscalls_asm.S:34
    2098:	d2800188 	mov	x8, #0xc                   	// #12
    209c:	d4000001 	svc	#0x0
    20a0:	d65f03c0 	ret

00000000000020a4 <_utee_get_time>:
_utee_get_time():
/home/avees/optee_local_build/Linux_for_Tegra/sources/tegra/optee-src/nv-optee/optee/optee_os/lib/libutee/include/utee_syscalls_asm.S:36
    20a4:	d28001a8 	mov	x8, #0xd                   	// #13
    20a8:	d4000001 	svc	#0x0
    20ac:	d65f03c0 	ret

00000000000020b0 <_utee_set_ta_time>:
_utee_set_ta_time():
/home/avees/optee_local_build/Linux_for_Tegra/sources/tegra/optee-src/nv-optee/optee/optee_os/lib/libutee/include/utee_syscalls_asm.S:38
    20b0:	d28001c8 	mov	x8, #0xe                   	// #14
    20b4:	d4000001 	svc	#0x0
    20b8:	d65f03c0 	ret

00000000000020bc <_utee_cryp_state_alloc>:
_utee_cryp_state_alloc():
/home/avees/optee_local_build/Linux_for_Tegra/sources/tegra/optee-src/nv-optee/optee/optee_os/lib/libutee/include/utee_syscalls_asm.S:40
    20bc:	d28001e8 	mov	x8, #0xf                   	// #15
    20c0:	d4000001 	svc	#0x0
    20c4:	d65f03c0 	ret

00000000000020c8 <_utee_cryp_state_copy>:
_utee_cryp_state_copy():
/home/avees/optee_local_build/Linux_for_Tegra/sources/tegra/optee-src/nv-optee/optee/optee_os/lib/libutee/include/utee_syscalls_asm.S:42
    20c8:	d2800208 	mov	x8, #0x10                  	// #16
    20cc:	d4000001 	svc	#0x0
    20d0:	d65f03c0 	ret

00000000000020d4 <_utee_cryp_state_free>:
_utee_cryp_state_free():
/home/avees/optee_local_build/Linux_for_Tegra/sources/tegra/optee-src/nv-optee/optee/optee_os/lib/libutee/include/utee_syscalls_asm.S:44
    20d4:	d2800228 	mov	x8, #0x11                  	// #17
    20d8:	d4000001 	svc	#0x0
    20dc:	d65f03c0 	ret

00000000000020e0 <_utee_hash_init>:
_utee_hash_init():
/home/avees/optee_local_build/Linux_for_Tegra/sources/tegra/optee-src/nv-optee/optee/optee_os/lib/libutee/include/utee_syscalls_asm.S:46
    20e0:	d2800248 	mov	x8, #0x12                  	// #18
    20e4:	d4000001 	svc	#0x0
    20e8:	d65f03c0 	ret

00000000000020ec <_utee_hash_update>:
_utee_hash_update():
/home/avees/optee_local_build/Linux_for_Tegra/sources/tegra/optee-src/nv-optee/optee/optee_os/lib/libutee/include/utee_syscalls_asm.S:48
    20ec:	d2800268 	mov	x8, #0x13                  	// #19
    20f0:	d4000001 	svc	#0x0
    20f4:	d65f03c0 	ret

00000000000020f8 <_utee_hash_final>:
_utee_hash_final():
/home/avees/optee_local_build/Linux_for_Tegra/sources/tegra/optee-src/nv-optee/optee/optee_os/lib/libutee/include/utee_syscalls_asm.S:50
    20f8:	d2800288 	mov	x8, #0x14                  	// #20
    20fc:	d4000001 	svc	#0x0
    2100:	d65f03c0 	ret

0000000000002104 <_utee_cipher_init>:
_utee_cipher_init():
/home/avees/optee_local_build/Linux_for_Tegra/sources/tegra/optee-src/nv-optee/optee/optee_os/lib/libutee/include/utee_syscalls_asm.S:52
    2104:	d28002a8 	mov	x8, #0x15                  	// #21
    2108:	d4000001 	svc	#0x0
    210c:	d65f03c0 	ret

0000000000002110 <_utee_cipher_update>:
_utee_cipher_update():
/home/avees/optee_local_build/Linux_for_Tegra/sources/tegra/optee-src/nv-optee/optee/optee_os/lib/libutee/include/utee_syscalls_asm.S:54
    2110:	d28002c8 	mov	x8, #0x16                  	// #22
    2114:	d4000001 	svc	#0x0
    2118:	d65f03c0 	ret

000000000000211c <_utee_cipher_final>:
_utee_cipher_final():
/home/avees/optee_local_build/Linux_for_Tegra/sources/tegra/optee-src/nv-optee/optee/optee_os/lib/libutee/include/utee_syscalls_asm.S:56
    211c:	d28002e8 	mov	x8, #0x17                  	// #23
    2120:	d4000001 	svc	#0x0
    2124:	d65f03c0 	ret

0000000000002128 <_utee_cryp_obj_get_info>:
_utee_cryp_obj_get_info():
/home/avees/optee_local_build/Linux_for_Tegra/sources/tegra/optee-src/nv-optee/optee/optee_os/lib/libutee/include/utee_syscalls_asm.S:58
    2128:	d2800308 	mov	x8, #0x18                  	// #24
    212c:	d4000001 	svc	#0x0
    2130:	d65f03c0 	ret

0000000000002134 <_utee_cryp_obj_restrict_usage>:
_utee_cryp_obj_restrict_usage():
/home/avees/optee_local_build/Linux_for_Tegra/sources/tegra/optee-src/nv-optee/optee/optee_os/lib/libutee/include/utee_syscalls_asm.S:60
    2134:	d2800328 	mov	x8, #0x19                  	// #25
    2138:	d4000001 	svc	#0x0
    213c:	d65f03c0 	ret

0000000000002140 <_utee_cryp_obj_get_attr>:
_utee_cryp_obj_get_attr():
/home/avees/optee_local_build/Linux_for_Tegra/sources/tegra/optee-src/nv-optee/optee/optee_os/lib/libutee/include/utee_syscalls_asm.S:63
    2140:	d2800348 	mov	x8, #0x1a                  	// #26
    2144:	d4000001 	svc	#0x0
    2148:	d65f03c0 	ret

000000000000214c <_utee_cryp_obj_alloc>:
_utee_cryp_obj_alloc():
/home/avees/optee_local_build/Linux_for_Tegra/sources/tegra/optee-src/nv-optee/optee/optee_os/lib/libutee/include/utee_syscalls_asm.S:65
    214c:	d2800368 	mov	x8, #0x1b                  	// #27
    2150:	d4000001 	svc	#0x0
    2154:	d65f03c0 	ret

0000000000002158 <_utee_cryp_obj_close>:
_utee_cryp_obj_close():
/home/avees/optee_local_build/Linux_for_Tegra/sources/tegra/optee-src/nv-optee/optee/optee_os/lib/libutee/include/utee_syscalls_asm.S:67
    2158:	d2800388 	mov	x8, #0x1c                  	// #28
    215c:	d4000001 	svc	#0x0
    2160:	d65f03c0 	ret

0000000000002164 <_utee_cryp_obj_reset>:
_utee_cryp_obj_reset():
/home/avees/optee_local_build/Linux_for_Tegra/sources/tegra/optee-src/nv-optee/optee/optee_os/lib/libutee/include/utee_syscalls_asm.S:69
    2164:	d28003a8 	mov	x8, #0x1d                  	// #29
    2168:	d4000001 	svc	#0x0
    216c:	d65f03c0 	ret

0000000000002170 <_utee_cryp_obj_populate>:
_utee_cryp_obj_populate():
/home/avees/optee_local_build/Linux_for_Tegra/sources/tegra/optee-src/nv-optee/optee/optee_os/lib/libutee/include/utee_syscalls_asm.S:71
    2170:	d28003c8 	mov	x8, #0x1e                  	// #30
    2174:	d4000001 	svc	#0x0
    2178:	d65f03c0 	ret

000000000000217c <_utee_cryp_obj_copy>:
_utee_cryp_obj_copy():
/home/avees/optee_local_build/Linux_for_Tegra/sources/tegra/optee-src/nv-optee/optee/optee_os/lib/libutee/include/utee_syscalls_asm.S:73
    217c:	d28003e8 	mov	x8, #0x1f                  	// #31
    2180:	d4000001 	svc	#0x0
    2184:	d65f03c0 	ret

0000000000002188 <_utee_cryp_derive_key>:
_utee_cryp_derive_key():
/home/avees/optee_local_build/Linux_for_Tegra/sources/tegra/optee-src/nv-optee/optee/optee_os/lib/libutee/include/utee_syscalls_asm.S:75
    2188:	d2800408 	mov	x8, #0x20                  	// #32
    218c:	d4000001 	svc	#0x0
    2190:	d65f03c0 	ret

0000000000002194 <_utee_cryp_random_number_generate>:
_utee_cryp_random_number_generate():
/home/avees/optee_local_build/Linux_for_Tegra/sources/tegra/optee-src/nv-optee/optee/optee_os/lib/libutee/include/utee_syscalls_asm.S:77
    2194:	d2800428 	mov	x8, #0x21                  	// #33
    2198:	d4000001 	svc	#0x0
    219c:	d65f03c0 	ret

00000000000021a0 <_utee_authenc_init>:
_utee_authenc_init():
/home/avees/optee_local_build/Linux_for_Tegra/sources/tegra/optee-src/nv-optee/optee/optee_os/lib/libutee/include/utee_syscalls_asm.S:80
    21a0:	d2800448 	mov	x8, #0x22                  	// #34
    21a4:	d4000001 	svc	#0x0
    21a8:	d65f03c0 	ret

00000000000021ac <_utee_authenc_update_aad>:
_utee_authenc_update_aad():
/home/avees/optee_local_build/Linux_for_Tegra/sources/tegra/optee-src/nv-optee/optee/optee_os/lib/libutee/include/utee_syscalls_asm.S:82
    21ac:	d2800468 	mov	x8, #0x23                  	// #35
    21b0:	d4000001 	svc	#0x0
    21b4:	d65f03c0 	ret

00000000000021b8 <_utee_authenc_update_payload>:
_utee_authenc_update_payload():
/home/avees/optee_local_build/Linux_for_Tegra/sources/tegra/optee-src/nv-optee/optee/optee_os/lib/libutee/include/utee_syscalls_asm.S:84
    21b8:	d2800488 	mov	x8, #0x24                  	// #36
    21bc:	d4000001 	svc	#0x0
    21c0:	d65f03c0 	ret

00000000000021c4 <_utee_authenc_enc_final>:
_utee_authenc_enc_final():
/home/avees/optee_local_build/Linux_for_Tegra/sources/tegra/optee-src/nv-optee/optee/optee_os/lib/libutee/include/utee_syscalls_asm.S:87
    21c4:	d28004a8 	mov	x8, #0x25                  	// #37
    21c8:	d4000001 	svc	#0x0
    21cc:	d65f03c0 	ret

00000000000021d0 <_utee_authenc_dec_final>:
_utee_authenc_dec_final():
/home/avees/optee_local_build/Linux_for_Tegra/sources/tegra/optee-src/nv-optee/optee/optee_os/lib/libutee/include/utee_syscalls_asm.S:89
    21d0:	d28004c8 	mov	x8, #0x26                  	// #38
    21d4:	d4000001 	svc	#0x0
    21d8:	d65f03c0 	ret

00000000000021dc <_utee_asymm_operate>:
_utee_asymm_operate():
/home/avees/optee_local_build/Linux_for_Tegra/sources/tegra/optee-src/nv-optee/optee/optee_os/lib/libutee/include/utee_syscalls_asm.S:91
    21dc:	d28004e8 	mov	x8, #0x27                  	// #39
    21e0:	d4000001 	svc	#0x0
    21e4:	d65f03c0 	ret

00000000000021e8 <_utee_asymm_verify>:
_utee_asymm_verify():
/home/avees/optee_local_build/Linux_for_Tegra/sources/tegra/optee-src/nv-optee/optee/optee_os/lib/libutee/include/utee_syscalls_asm.S:93
    21e8:	d2800508 	mov	x8, #0x28                  	// #40
    21ec:	d4000001 	svc	#0x0
    21f0:	d65f03c0 	ret

00000000000021f4 <_utee_storage_obj_open>:
_utee_storage_obj_open():
/home/avees/optee_local_build/Linux_for_Tegra/sources/tegra/optee-src/nv-optee/optee/optee_os/lib/libutee/include/utee_syscalls_asm.S:95
    21f4:	d2800528 	mov	x8, #0x29                  	// #41
    21f8:	d4000001 	svc	#0x0
    21fc:	d65f03c0 	ret

0000000000002200 <_utee_storage_obj_create>:
_utee_storage_obj_create():
/home/avees/optee_local_build/Linux_for_Tegra/sources/tegra/optee-src/nv-optee/optee/optee_os/lib/libutee/include/utee_syscalls_asm.S:97
    2200:	d2800548 	mov	x8, #0x2a                  	// #42
    2204:	d4000001 	svc	#0x0
    2208:	d65f03c0 	ret

000000000000220c <_utee_storage_obj_del>:
_utee_storage_obj_del():
/home/avees/optee_local_build/Linux_for_Tegra/sources/tegra/optee-src/nv-optee/optee/optee_os/lib/libutee/include/utee_syscalls_asm.S:99
    220c:	d2800568 	mov	x8, #0x2b                  	// #43
    2210:	d4000001 	svc	#0x0
    2214:	d65f03c0 	ret

0000000000002218 <_utee_storage_obj_rename>:
_utee_storage_obj_rename():
/home/avees/optee_local_build/Linux_for_Tegra/sources/tegra/optee-src/nv-optee/optee/optee_os/lib/libutee/include/utee_syscalls_asm.S:101
    2218:	d2800588 	mov	x8, #0x2c                  	// #44
    221c:	d4000001 	svc	#0x0
    2220:	d65f03c0 	ret

0000000000002224 <_utee_storage_alloc_enum>:
_utee_storage_alloc_enum():
/home/avees/optee_local_build/Linux_for_Tegra/sources/tegra/optee-src/nv-optee/optee/optee_os/lib/libutee/include/utee_syscalls_asm.S:103
    2224:	d28005a8 	mov	x8, #0x2d                  	// #45
    2228:	d4000001 	svc	#0x0
    222c:	d65f03c0 	ret

0000000000002230 <_utee_storage_free_enum>:
_utee_storage_free_enum():
/home/avees/optee_local_build/Linux_for_Tegra/sources/tegra/optee-src/nv-optee/optee/optee_os/lib/libutee/include/utee_syscalls_asm.S:105
    2230:	d28005c8 	mov	x8, #0x2e                  	// #46
    2234:	d4000001 	svc	#0x0
    2238:	d65f03c0 	ret

000000000000223c <_utee_storage_reset_enum>:
_utee_storage_reset_enum():
/home/avees/optee_local_build/Linux_for_Tegra/sources/tegra/optee-src/nv-optee/optee/optee_os/lib/libutee/include/utee_syscalls_asm.S:107
    223c:	d28005e8 	mov	x8, #0x2f                  	// #47
    2240:	d4000001 	svc	#0x0
    2244:	d65f03c0 	ret

0000000000002248 <_utee_storage_start_enum>:
_utee_storage_start_enum():
/home/avees/optee_local_build/Linux_for_Tegra/sources/tegra/optee-src/nv-optee/optee/optee_os/lib/libutee/include/utee_syscalls_asm.S:109
    2248:	d2800608 	mov	x8, #0x30                  	// #48
    224c:	d4000001 	svc	#0x0
    2250:	d65f03c0 	ret

0000000000002254 <_utee_storage_next_enum>:
_utee_storage_next_enum():
/home/avees/optee_local_build/Linux_for_Tegra/sources/tegra/optee-src/nv-optee/optee/optee_os/lib/libutee/include/utee_syscalls_asm.S:111
    2254:	d2800628 	mov	x8, #0x31                  	// #49
    2258:	d4000001 	svc	#0x0
    225c:	d65f03c0 	ret

0000000000002260 <_utee_storage_obj_read>:
_utee_storage_obj_read():
/home/avees/optee_local_build/Linux_for_Tegra/sources/tegra/optee-src/nv-optee/optee/optee_os/lib/libutee/include/utee_syscalls_asm.S:113
    2260:	d2800648 	mov	x8, #0x32                  	// #50
    2264:	d4000001 	svc	#0x0
    2268:	d65f03c0 	ret

000000000000226c <_utee_storage_obj_write>:
_utee_storage_obj_write():
/home/avees/optee_local_build/Linux_for_Tegra/sources/tegra/optee-src/nv-optee/optee/optee_os/lib/libutee/include/utee_syscalls_asm.S:115
    226c:	d2800668 	mov	x8, #0x33                  	// #51
    2270:	d4000001 	svc	#0x0
    2274:	d65f03c0 	ret

0000000000002278 <_utee_storage_obj_trunc>:
_utee_storage_obj_trunc():
/home/avees/optee_local_build/Linux_for_Tegra/sources/tegra/optee-src/nv-optee/optee/optee_os/lib/libutee/include/utee_syscalls_asm.S:117
    2278:	d2800688 	mov	x8, #0x34                  	// #52
    227c:	d4000001 	svc	#0x0
    2280:	d65f03c0 	ret

0000000000002284 <_utee_storage_obj_seek>:
_utee_storage_obj_seek():
/home/avees/optee_local_build/Linux_for_Tegra/sources/tegra/optee-src/nv-optee/optee/optee_os/lib/libutee/include/utee_syscalls_asm.S:119
    2284:	d28006a8 	mov	x8, #0x35                  	// #53
    2288:	d4000001 	svc	#0x0
    228c:	d65f03c0 	ret

0000000000002290 <_utee_cryp_obj_generate_key>:
_utee_cryp_obj_generate_key():
/home/avees/optee_local_build/Linux_for_Tegra/sources/tegra/optee-src/nv-optee/optee/optee_os/lib/libutee/include/utee_syscalls_asm.S:121
    2290:	d28006c8 	mov	x8, #0x36                  	// #54
    2294:	d4000001 	svc	#0x0
    2298:	d65f03c0 	ret

000000000000229c <_utee_cache_operation>:
_utee_cache_operation():
/home/avees/optee_local_build/Linux_for_Tegra/sources/tegra/optee-src/nv-optee/optee/optee_os/lib/libutee/include/utee_syscalls_asm.S:124
    229c:	d28008c8 	mov	x8, #0x46                  	// #70
    22a0:	d4000001 	svc	#0x0
    22a4:	d65f03c0 	ret

00000000000022a8 <abort>:
abort():
/home/avees/optee_local_build/Linux_for_Tegra/sources/tegra/optee-src/nv-optee/optee/optee_os/lib/libutee/abort.c:12
    22a8:	a9bf7bfd 	stp	x29, x30, [sp, #-16]!
/home/avees/optee_local_build/Linux_for_Tegra/sources/tegra/optee-src/nv-optee/optee/optee_os/lib/libutee/abort.c:13
    22ac:	b0000060 	adrp	x0, f000 <__text_end+0x2508>
    22b0:	912d4800 	add	x0, x0, #0xb52
/home/avees/optee_local_build/Linux_for_Tegra/sources/tegra/optee-src/nv-optee/optee/optee_os/lib/libutee/abort.c:12
    22b4:	910003fd 	mov	x29, sp
/home/avees/optee_local_build/Linux_for_Tegra/sources/tegra/optee-src/nv-optee/optee/optee_os/lib/libutee/abort.c:13
    22b8:	97fffd52 	bl	1800 <puts>
/home/avees/optee_local_build/Linux_for_Tegra/sources/tegra/optee-src/nv-optee/optee/optee_os/lib/libutee/abort.c:14
    22bc:	d2800000 	mov	x0, #0x0                   	// #0
    22c0:	97ffff4f 	bl	1ffc <_utee_panic>
/home/avees/optee_local_build/Linux_for_Tegra/sources/tegra/optee-src/nv-optee/optee/optee_os/lib/libutee/abort.c:16 (discriminator 1)
    22c4:	14000000 	b	22c4 <abort+0x1c>

00000000000022c8 <copy_param>:
copy_param():
/home/avees/optee_local_build/Linux_for_Tegra/sources/tegra/optee-src/nv-optee/optee/optee_os/lib/libutee/tee_api.c:43
    22c8:	2a0103e3 	mov	w3, w1
    22cc:	52800004 	mov	w4, #0x0                   	// #0
    22d0:	f8008403 	str	x3, [x0], #8
/home/avees/optee_local_build/Linux_for_Tegra/sources/tegra/optee-src/nv-optee/optee/optee_os/lib/libutee/tee_api.c:45
    22d4:	1ac42425 	lsr	w5, w1, w4
    22d8:	12000ca3 	and	w3, w5, #0xf
    22dc:	71000c7f 	cmp	w3, #0x3
    22e0:	540001a0 	b.eq	2314 <copy_param+0x4c>  // b.none
    22e4:	721e04bf 	tst	w5, #0xc
    22e8:	540000c1 	b.ne	2300 <copy_param+0x38>  // b.any
    22ec:	7100047f 	cmp	w3, #0x1
    22f0:	54000120 	b.eq	2314 <copy_param+0x4c>  // b.none
    22f4:	d2800003 	mov	x3, #0x0                   	// #0
    22f8:	d2800005 	mov	x5, #0x0                   	// #0
    22fc:	14000007 	b	2318 <copy_param+0x50>
    2300:	51001463 	sub	w3, w3, #0x5
    2304:	7100087f 	cmp	w3, #0x2
    2308:	54ffff68 	b.hi	22f4 <copy_param+0x2c>  // b.pmore
/home/avees/optee_local_build/Linux_for_Tegra/sources/tegra/optee-src/nv-optee/optee/optee_os/lib/libutee/tee_api.c:55
    230c:	a9400c45 	ldp	x5, x3, [x2]
/home/avees/optee_local_build/Linux_for_Tegra/sources/tegra/optee-src/nv-optee/optee/optee_os/lib/libutee/tee_api.c:56
    2310:	14000002 	b	2318 <copy_param+0x50>
/home/avees/optee_local_build/Linux_for_Tegra/sources/tegra/optee-src/nv-optee/optee/optee_os/lib/libutee/tee_api.c:49
    2314:	29400c45 	ldp	w5, w3, [x2]
/home/avees/optee_local_build/Linux_for_Tegra/sources/tegra/optee-src/nv-optee/optee/optee_os/lib/libutee/tee_api.c:62 (discriminator 2)
    2318:	a9000c05 	stp	x5, x3, [x0]
/home/avees/optee_local_build/Linux_for_Tegra/sources/tegra/optee-src/nv-optee/optee/optee_os/lib/libutee/tee_api.c:44 (discriminator 2)
    231c:	11001084 	add	w4, w4, #0x4
    2320:	91004042 	add	x2, x2, #0x10
    2324:	7100409f 	cmp	w4, #0x10
    2328:	91004000 	add	x0, x0, #0x10
    232c:	54fffd41 	b.ne	22d4 <copy_param+0xc>  // b.any
/home/avees/optee_local_build/Linux_for_Tegra/sources/tegra/optee-src/nv-optee/optee/optee_os/lib/libutee/tee_api.c:64
    2330:	d65f03c0 	ret

0000000000002334 <copy_gp11_param>:
copy_gp11_param():
/home/avees/optee_local_build/Linux_for_Tegra/sources/tegra/optee-src/nv-optee/optee/optee_os/lib/libutee/tee_api.c:73
    2334:	2a0103e3 	mov	w3, w1
    2338:	52800004 	mov	w4, #0x0                   	// #0
    233c:	f8008403 	str	x3, [x0], #8
/home/avees/optee_local_build/Linux_for_Tegra/sources/tegra/optee-src/nv-optee/optee/optee_os/lib/libutee/tee_api.c:75
    2340:	1ac42425 	lsr	w5, w1, w4
    2344:	12000ca3 	and	w3, w5, #0xf
    2348:	71000c7f 	cmp	w3, #0x3
    234c:	540001c0 	b.eq	2384 <copy_gp11_param+0x50>  // b.none
    2350:	721e04bf 	tst	w5, #0xc
    2354:	540000c1 	b.ne	236c <copy_gp11_param+0x38>  // b.any
    2358:	7100047f 	cmp	w3, #0x1
    235c:	54000140 	b.eq	2384 <copy_gp11_param+0x50>  // b.none
    2360:	d2800003 	mov	x3, #0x0                   	// #0
    2364:	d2800005 	mov	x5, #0x0                   	// #0
    2368:	14000008 	b	2388 <copy_gp11_param+0x54>
    236c:	51001463 	sub	w3, w3, #0x5
    2370:	7100087f 	cmp	w3, #0x2
    2374:	54ffff68 	b.hi	2360 <copy_gp11_param+0x2c>  // b.pmore
/home/avees/optee_local_build/Linux_for_Tegra/sources/tegra/optee-src/nv-optee/optee/optee_os/lib/libutee/tee_api.c:85
    2378:	b9400843 	ldr	w3, [x2, #8]
/home/avees/optee_local_build/Linux_for_Tegra/sources/tegra/optee-src/nv-optee/optee/optee_os/lib/libutee/tee_api.c:84
    237c:	f9400045 	ldr	x5, [x2]
/home/avees/optee_local_build/Linux_for_Tegra/sources/tegra/optee-src/nv-optee/optee/optee_os/lib/libutee/tee_api.c:86
    2380:	14000002 	b	2388 <copy_gp11_param+0x54>
/home/avees/optee_local_build/Linux_for_Tegra/sources/tegra/optee-src/nv-optee/optee/optee_os/lib/libutee/tee_api.c:79
    2384:	29400c45 	ldp	w5, w3, [x2]
/home/avees/optee_local_build/Linux_for_Tegra/sources/tegra/optee-src/nv-optee/optee/optee_os/lib/libutee/tee_api.c:92 (discriminator 2)
    2388:	a9000c05 	stp	x5, x3, [x0]
/home/avees/optee_local_build/Linux_for_Tegra/sources/tegra/optee-src/nv-optee/optee/optee_os/lib/libutee/tee_api.c:74 (discriminator 2)
    238c:	11001084 	add	w4, w4, #0x4
    2390:	91004042 	add	x2, x2, #0x10
    2394:	7100409f 	cmp	w4, #0x10
    2398:	91004000 	add	x0, x0, #0x10
    239c:	54fffd21 	b.ne	2340 <copy_gp11_param+0xc>  // b.any
/home/avees/optee_local_build/Linux_for_Tegra/sources/tegra/optee-src/nv-optee/optee/optee_os/lib/libutee/tee_api.c:94
    23a0:	d65f03c0 	ret

00000000000023a4 <check_mem_access_rights_params>:
check_mem_access_rights_params():
/home/avees/optee_local_build/Linux_for_Tegra/sources/tegra/optee-src/nv-optee/optee/optee_os/lib/libutee/tee_api.c:261
    23a4:	f0000063 	adrp	x3, 11000 <_DYNAMIC>
bufs_intersect():
/home/avees/optee_local_build/Linux_for_Tegra/sources/tegra/optee-src/nv-optee/optee/optee_os/lib/libutee/tee_api.c:241
    23a8:	d1000447 	sub	x7, x2, #0x1
    23ac:	8b0100e7 	add	x7, x7, x1
check_mem_access_rights_params():
/home/avees/optee_local_build/Linux_for_Tegra/sources/tegra/optee-src/nv-optee/optee/optee_os/lib/libutee/tee_api.c:261
    23b0:	52800005 	mov	w5, #0x0                   	// #0
    23b4:	f940c864 	ldr	x4, [x3, #400]
    23b8:	f940d863 	ldr	x3, [x3, #432]
    23bc:	b9400089 	ldr	w9, [x4]
    23c0:	1ac52524 	lsr	w4, w9, w5
    23c4:	12000c84 	and	w4, w4, #0xf
    23c8:	7100149f 	cmp	w4, #0x5
    23cc:	540002e0 	b.eq	2428 <check_mem_access_rights_params+0x84>  // b.none
    23d0:	51001884 	sub	w4, w4, #0x6
    23d4:	7100049f 	cmp	w4, #0x1
    23d8:	540001c8 	b.hi	2410 <check_mem_access_rights_params+0x6c>  // b.pmore
    23dc:	528000c6 	mov	w6, #0x6                   	// #6
/home/avees/optee_local_build/Linux_for_Tegra/sources/tegra/optee-src/nv-optee/optee/optee_os/lib/libutee/tee_api.c:268
    23e0:	a9401068 	ldp	x8, x4, [x3]
bufs_intersect():
/home/avees/optee_local_build/Linux_for_Tegra/sources/tegra/optee-src/nv-optee/optee/optee_os/lib/libutee/tee_api.c:244
    23e4:	f100005f 	cmp	x2, #0x0
    23e8:	fa401884 	ccmp	x4, #0x0, #0x4, ne  // ne = any
    23ec:	54000120 	b.eq	2410 <check_mem_access_rights_params+0x6c>  // b.none
/home/avees/optee_local_build/Linux_for_Tegra/sources/tegra/optee-src/nv-optee/optee/optee_os/lib/libutee/tee_api.c:242
    23f0:	d1000484 	sub	x4, x4, #0x1
/home/avees/optee_local_build/Linux_for_Tegra/sources/tegra/optee-src/nv-optee/optee/optee_os/lib/libutee/tee_api.c:247
    23f4:	eb07011f 	cmp	x8, x7
/home/avees/optee_local_build/Linux_for_Tegra/sources/tegra/optee-src/nv-optee/optee/optee_os/lib/libutee/tee_api.c:242
    23f8:	8b080084 	add	x4, x4, x8
/home/avees/optee_local_build/Linux_for_Tegra/sources/tegra/optee-src/nv-optee/optee/optee_os/lib/libutee/tee_api.c:247
    23fc:	fa449022 	ccmp	x1, x4, #0x2, ls  // ls = plast
    2400:	54000088 	b.hi	2410 <check_mem_access_rights_params+0x6c>  // b.pmore
check_mem_access_rights_params():
/home/avees/optee_local_build/Linux_for_Tegra/sources/tegra/optee-src/nv-optee/optee/optee_os/lib/libutee/tee_api.c:267
    2404:	320000c6 	orr	w6, w6, #0x1
/home/avees/optee_local_build/Linux_for_Tegra/sources/tegra/optee-src/nv-optee/optee/optee_os/lib/libutee/tee_api.c:271
    2408:	6a26001f 	bics	wzr, w0, w6
    240c:	54000121 	b.ne	2430 <check_mem_access_rights_params+0x8c>  // b.any
/home/avees/optee_local_build/Linux_for_Tegra/sources/tegra/optee-src/nv-optee/optee/optee_os/lib/libutee/tee_api.c:258 (discriminator 2)
    2410:	110010a5 	add	w5, w5, #0x4
    2414:	91004063 	add	x3, x3, #0x10
    2418:	710040bf 	cmp	w5, #0x10
    241c:	54fffd21 	b.ne	23c0 <check_mem_access_rights_params+0x1c>  // b.any
/home/avees/optee_local_build/Linux_for_Tegra/sources/tegra/optee-src/nv-optee/optee/optee_os/lib/libutee/tee_api.c:280
    2420:	52800000 	mov	w0, #0x0                   	// #0
/home/avees/optee_local_build/Linux_for_Tegra/sources/tegra/optee-src/nv-optee/optee/optee_os/lib/libutee/tee_api.c:281
    2424:	d65f03c0 	ret
/home/avees/optee_local_build/Linux_for_Tegra/sources/tegra/optee-src/nv-optee/optee/optee_os/lib/libutee/tee_api.c:259
    2428:	52800086 	mov	w6, #0x4                   	// #4
    242c:	17ffffed 	b	23e0 <check_mem_access_rights_params+0x3c>
/home/avees/optee_local_build/Linux_for_Tegra/sources/tegra/optee-src/nv-optee/optee/optee_os/lib/libutee/tee_api.c:272
    2430:	129fffc0 	mov	w0, #0xffff0001            	// #-65535
    2434:	17fffffc 	b	2424 <check_mem_access_rights_params+0x80>

0000000000002438 <buf_overlaps_no_share_heap>:
buf_overlaps_no_share_heap():
/home/avees/optee_local_build/Linux_for_Tegra/sources/tegra/optee-src/nv-optee/optee/optee_os/lib/libutee/tee_api.c:284
    2438:	aa0003e3 	mov	x3, x0
/home/avees/optee_local_build/Linux_for_Tegra/sources/tegra/optee-src/nv-optee/optee/optee_os/lib/libutee/tee_api.c:285
    243c:	f0000060 	adrp	x0, 11000 <_DYNAMIC>
    2440:	f940d000 	ldr	x0, [x0, #416]
    2444:	f9400000 	ldr	x0, [x0]
/home/avees/optee_local_build/Linux_for_Tegra/sources/tegra/optee-src/nv-optee/optee/optee_os/lib/libutee/tee_api.c:287
    2448:	b4000140 	cbz	x0, 2470 <buf_overlaps_no_share_heap+0x38>
/home/avees/optee_local_build/Linux_for_Tegra/sources/tegra/optee-src/nv-optee/optee/optee_os/lib/libutee/tee_api.c:284 (discriminator 1)
    244c:	a9bf7bfd 	stp	x29, x30, [sp, #-16]!
    2450:	aa0103e2 	mov	x2, x1
/home/avees/optee_local_build/Linux_for_Tegra/sources/tegra/optee-src/nv-optee/optee/optee_os/lib/libutee/tee_api.c:287 (discriminator 1)
    2454:	aa0303e1 	mov	x1, x3
/home/avees/optee_local_build/Linux_for_Tegra/sources/tegra/optee-src/nv-optee/optee/optee_os/lib/libutee/tee_api.c:284 (discriminator 1)
    2458:	910003fd 	mov	x29, sp
/home/avees/optee_local_build/Linux_for_Tegra/sources/tegra/optee-src/nv-optee/optee/optee_os/lib/libutee/tee_api.c:287 (discriminator 1)
    245c:	9400281d 	bl	c4d0 <raw_malloc_buffer_overlaps_heap>
    2460:	12001c00 	and	w0, w0, #0xff
/home/avees/optee_local_build/Linux_for_Tegra/sources/tegra/optee-src/nv-optee/optee/optee_os/lib/libutee/tee_api.c:288 (discriminator 1)
    2464:	12000000 	and	w0, w0, #0x1
    2468:	a8c17bfd 	ldp	x29, x30, [sp], #16
    246c:	d65f03c0 	ret
/home/avees/optee_local_build/Linux_for_Tegra/sources/tegra/optee-src/nv-optee/optee/optee_os/lib/libutee/tee_api.c:287
    2470:	52800000 	mov	w0, #0x0                   	// #0
/home/avees/optee_local_build/Linux_for_Tegra/sources/tegra/optee-src/nv-optee/optee/optee_os/lib/libutee/tee_api.c:288
    2474:	12000000 	and	w0, w0, #0x1
    2478:	d65f03c0 	ret

000000000000247c <check_invoke_param>:
check_invoke_param():
/home/avees/optee_local_build/Linux_for_Tegra/sources/tegra/optee-src/nv-optee/optee/optee_os/lib/libutee/tee_api.c:291
    247c:	a9bc7bfd 	stp	x29, x30, [sp, #-64]!
    2480:	910003fd 	mov	x29, sp
    2484:	a90153f3 	stp	x19, x20, [sp, #16]
    2488:	91002033 	add	x19, x1, #0x8
    248c:	52800014 	mov	w20, #0x0                   	// #0
    2490:	a9025bf5 	stp	x21, x22, [sp, #32]
    2494:	2a0003f5 	mov	w21, w0
    2498:	f9001bf7 	str	x23, [sp, #48]
/home/avees/optee_local_build/Linux_for_Tegra/sources/tegra/optee-src/nv-optee/optee/optee_os/lib/libutee/tee_api.c:299
    249c:	1ad426a1 	lsr	w1, w21, w20
    24a0:	12000c21 	and	w1, w1, #0xf
    24a4:	7100143f 	cmp	w1, #0x5
    24a8:	540003a0 	b.eq	251c <check_invoke_param+0xa0>  // b.none
    24ac:	51001821 	sub	w1, w1, #0x6
    24b0:	7100043f 	cmp	w1, #0x1
    24b4:	54000228 	b.hi	24f8 <check_invoke_param+0x7c>  // b.pmore
    24b8:	528000c0 	mov	w0, #0x6                   	// #6
/home/avees/optee_local_build/Linux_for_Tegra/sources/tegra/optee-src/nv-optee/optee/optee_os/lib/libutee/tee_api.c:297
    24bc:	a97fde76 	ldp	x22, x23, [x19, #-8]
/home/avees/optee_local_build/Linux_for_Tegra/sources/tegra/optee-src/nv-optee/optee/optee_os/lib/libutee/tee_api.c:306
    24c0:	32000000 	orr	w0, w0, #0x1
    24c4:	aa1703e2 	mov	x2, x23
    24c8:	aa1603e1 	mov	x1, x22
    24cc:	97ffffb6 	bl	23a4 <check_mem_access_rights_params>
    24d0:	34000060 	cbz	w0, 24dc <check_invoke_param+0x60>
/home/avees/optee_local_build/Linux_for_Tegra/sources/tegra/optee-src/nv-optee/optee/optee_os/lib/libutee/tee_api.c:307
    24d4:	52800000 	mov	w0, #0x0                   	// #0
    24d8:	94000bfe 	bl	54d0 <TEE_Panic>
/home/avees/optee_local_build/Linux_for_Tegra/sources/tegra/optee-src/nv-optee/optee/optee_os/lib/libutee/tee_api.c:308
    24dc:	aa1703e1 	mov	x1, x23
    24e0:	aa1603e0 	mov	x0, x22
    24e4:	97ffffd5 	bl	2438 <buf_overlaps_no_share_heap>
    24e8:	72001c1f 	tst	w0, #0xff
    24ec:	54000060 	b.eq	24f8 <check_invoke_param+0x7c>  // b.none
/home/avees/optee_local_build/Linux_for_Tegra/sources/tegra/optee-src/nv-optee/optee/optee_os/lib/libutee/tee_api.c:309
    24f0:	52800000 	mov	w0, #0x0                   	// #0
    24f4:	94000bf7 	bl	54d0 <TEE_Panic>
/home/avees/optee_local_build/Linux_for_Tegra/sources/tegra/optee-src/nv-optee/optee/optee_os/lib/libutee/tee_api.c:294 (discriminator 2)
    24f8:	11001294 	add	w20, w20, #0x4
    24fc:	91004273 	add	x19, x19, #0x10
    2500:	7100429f 	cmp	w20, #0x10
    2504:	54fffcc1 	b.ne	249c <check_invoke_param+0x20>  // b.any
/home/avees/optee_local_build/Linux_for_Tegra/sources/tegra/optee-src/nv-optee/optee/optee_os/lib/libutee/tee_api.c:315
    2508:	a94153f3 	ldp	x19, x20, [sp, #16]
    250c:	a9425bf5 	ldp	x21, x22, [sp, #32]
    2510:	f9401bf7 	ldr	x23, [sp, #48]
    2514:	a8c47bfd 	ldp	x29, x30, [sp], #64
    2518:	d65f03c0 	ret
/home/avees/optee_local_build/Linux_for_Tegra/sources/tegra/optee-src/nv-optee/optee/optee_os/lib/libutee/tee_api.c:295
    251c:	52800080 	mov	w0, #0x4                   	// #4
    2520:	17ffffe7 	b	24bc <check_invoke_param+0x40>

0000000000002524 <update_out_param>:
update_out_param():
/home/avees/optee_local_build/Linux_for_Tegra/sources/tegra/optee-src/nv-optee/optee/optee_os/lib/libutee/tee_api.c:180
    2524:	a9bc7bfd 	stp	x29, x30, [sp, #-64]!
    2528:	910003fd 	mov	x29, sp
    252c:	a90153f3 	stp	x19, x20, [sp, #16]
/home/avees/optee_local_build/Linux_for_Tegra/sources/tegra/optee-src/nv-optee/optee/optee_os/lib/libutee/tee_api.c:182
    2530:	aa0203f4 	mov	x20, x2
    2534:	aa0003f3 	mov	x19, x0
/home/avees/optee_local_build/Linux_for_Tegra/sources/tegra/optee-src/nv-optee/optee/optee_os/lib/libutee/tee_api.c:180
    2538:	a90363f7 	stp	x23, x24, [sp, #48]
    253c:	aa0103f8 	mov	x24, x1
/home/avees/optee_local_build/Linux_for_Tegra/sources/tegra/optee-src/nv-optee/optee/optee_os/lib/libutee/tee_api.c:182
    2540:	f8408697 	ldr	x23, [x20], #8
/home/avees/optee_local_build/Linux_for_Tegra/sources/tegra/optee-src/nv-optee/optee/optee_os/lib/libutee/tee_api.c:180
    2544:	a9025bf5 	stp	x21, x22, [sp, #32]
/home/avees/optee_local_build/Linux_for_Tegra/sources/tegra/optee-src/nv-optee/optee/optee_os/lib/libutee/tee_api.c:184
    2548:	d2800015 	mov	x21, #0x0                   	// #0
/home/avees/optee_local_build/Linux_for_Tegra/sources/tegra/optee-src/nv-optee/optee/optee_os/lib/libutee/tee_api.c:188
    254c:	531e76a0 	lsl	w0, w21, #2
/home/avees/optee_local_build/Linux_for_Tegra/sources/tegra/optee-src/nv-optee/optee/optee_os/lib/libutee/tee_api.c:186
    2550:	f9400696 	ldr	x22, [x20, #8]
/home/avees/optee_local_build/Linux_for_Tegra/sources/tegra/optee-src/nv-optee/optee/optee_os/lib/libutee/tee_api.c:188
    2554:	1ac026e0 	lsr	w0, w23, w0
    2558:	12000c01 	and	w1, w0, #0xf
    255c:	721e041f 	tst	w0, #0xc
    2560:	540000c1 	b.ne	2578 <update_out_param+0x54>  // b.any
    2564:	721f081f 	tst	w0, #0xe
    2568:	540000e0 	b.eq	2584 <update_out_param+0x60>  // b.none
/home/avees/optee_local_build/Linux_for_Tegra/sources/tegra/optee-src/nv-optee/optee/optee_os/lib/libutee/tee_api.c:191
    256c:	f9400280 	ldr	x0, [x20]
/home/avees/optee_local_build/Linux_for_Tegra/sources/tegra/optee-src/nv-optee/optee/optee_os/lib/libutee/tee_api.c:192
    2570:	29005a60 	stp	w0, w22, [x19]
/home/avees/optee_local_build/Linux_for_Tegra/sources/tegra/optee-src/nv-optee/optee/optee_os/lib/libutee/tee_api.c:193
    2574:	14000004 	b	2584 <update_out_param+0x60>
/home/avees/optee_local_build/Linux_for_Tegra/sources/tegra/optee-src/nv-optee/optee/optee_os/lib/libutee/tee_api.c:188
    2578:	51001820 	sub	w0, w1, #0x6
    257c:	7100041f 	cmp	w0, #0x1
    2580:	54000169 	b.ls	25ac <update_out_param+0x88>  // b.plast
/home/avees/optee_local_build/Linux_for_Tegra/sources/tegra/optee-src/nv-optee/optee/optee_os/lib/libutee/tee_api.c:184 (discriminator 2)
    2584:	910006b5 	add	x21, x21, #0x1
    2588:	91004294 	add	x20, x20, #0x10
    258c:	91004273 	add	x19, x19, #0x10
    2590:	f10012bf 	cmp	x21, #0x4
    2594:	54fffdc1 	b.ne	254c <update_out_param+0x28>  // b.any
/home/avees/optee_local_build/Linux_for_Tegra/sources/tegra/optee-src/nv-optee/optee/optee_os/lib/libutee/tee_api.c:205
    2598:	a94153f3 	ldp	x19, x20, [sp, #16]
    259c:	a9425bf5 	ldp	x21, x22, [sp, #32]
